
Login_system_using_KPD_LCD.elf:     file format elf32-avr

Sections:
Idx Name          Size      VMA       LMA       File off  Algn
  0 .text         00005186  00000000  00000000  00000074  2**1
                  CONTENTS, ALLOC, LOAD, READONLY, CODE
  1 .data         000001b2  00800060  00005186  000051fa  2**0
                  CONTENTS, ALLOC, LOAD, DATA
  2 .stab         00002fb8  00000000  00000000  000053ac  2**2
                  CONTENTS, READONLY, DEBUGGING
  3 .stabstr      000013b0  00000000  00000000  00008364  2**0
                  CONTENTS, READONLY, DEBUGGING
  4 .debug_aranges 000001e0  00000000  00000000  00009714  2**0
                  CONTENTS, READONLY, DEBUGGING
  5 .debug_pubnames 00000231  00000000  00000000  000098f4  2**0
                  CONTENTS, READONLY, DEBUGGING
  6 .debug_info   00003004  00000000  00000000  00009b25  2**0
                  CONTENTS, READONLY, DEBUGGING
  7 .debug_abbrev 00001560  00000000  00000000  0000cb29  2**0
                  CONTENTS, READONLY, DEBUGGING
  8 .debug_line   000014e2  00000000  00000000  0000e089  2**0
                  CONTENTS, READONLY, DEBUGGING
  9 .debug_frame  00000200  00000000  00000000  0000f56c  2**2
                  CONTENTS, READONLY, DEBUGGING
 10 .debug_str    00000361  00000000  00000000  0000f76c  2**0
                  CONTENTS, READONLY, DEBUGGING
 11 .debug_loc    0000232c  00000000  00000000  0000facd  2**0
                  CONTENTS, READONLY, DEBUGGING
 12 .debug_ranges 00000080  00000000  00000000  00011df9  2**0
                  CONTENTS, READONLY, DEBUGGING

Disassembly of section .text:

00000000 <__vectors>:
       0:	0c 94 2a 00 	jmp	0x54	; 0x54 <__ctors_end>
       4:	0c 94 3f 00 	jmp	0x7e	; 0x7e <__bad_interrupt>
       8:	0c 94 3f 00 	jmp	0x7e	; 0x7e <__bad_interrupt>
       c:	0c 94 3f 00 	jmp	0x7e	; 0x7e <__bad_interrupt>
      10:	0c 94 3f 00 	jmp	0x7e	; 0x7e <__bad_interrupt>
      14:	0c 94 3f 00 	jmp	0x7e	; 0x7e <__bad_interrupt>
      18:	0c 94 3f 00 	jmp	0x7e	; 0x7e <__bad_interrupt>
      1c:	0c 94 3f 00 	jmp	0x7e	; 0x7e <__bad_interrupt>
      20:	0c 94 3f 00 	jmp	0x7e	; 0x7e <__bad_interrupt>
      24:	0c 94 3f 00 	jmp	0x7e	; 0x7e <__bad_interrupt>
      28:	0c 94 3f 00 	jmp	0x7e	; 0x7e <__bad_interrupt>
      2c:	0c 94 3f 00 	jmp	0x7e	; 0x7e <__bad_interrupt>
      30:	0c 94 3f 00 	jmp	0x7e	; 0x7e <__bad_interrupt>
      34:	0c 94 3f 00 	jmp	0x7e	; 0x7e <__bad_interrupt>
      38:	0c 94 3f 00 	jmp	0x7e	; 0x7e <__bad_interrupt>
      3c:	0c 94 3f 00 	jmp	0x7e	; 0x7e <__bad_interrupt>
      40:	0c 94 3f 00 	jmp	0x7e	; 0x7e <__bad_interrupt>
      44:	0c 94 3f 00 	jmp	0x7e	; 0x7e <__bad_interrupt>
      48:	0c 94 3f 00 	jmp	0x7e	; 0x7e <__bad_interrupt>
      4c:	0c 94 3f 00 	jmp	0x7e	; 0x7e <__bad_interrupt>
      50:	0c 94 3f 00 	jmp	0x7e	; 0x7e <__bad_interrupt>

00000054 <__ctors_end>:
      54:	11 24       	eor	r1, r1
      56:	1f be       	out	0x3f, r1	; 63
      58:	cf e5       	ldi	r28, 0x5F	; 95
      5a:	d8 e0       	ldi	r29, 0x08	; 8
      5c:	de bf       	out	0x3e, r29	; 62
      5e:	cd bf       	out	0x3d, r28	; 61

00000060 <__do_copy_data>:
      60:	12 e0       	ldi	r17, 0x02	; 2
      62:	a0 e6       	ldi	r26, 0x60	; 96
      64:	b0 e0       	ldi	r27, 0x00	; 0
      66:	e6 e8       	ldi	r30, 0x86	; 134
      68:	f1 e5       	ldi	r31, 0x51	; 81
      6a:	02 c0       	rjmp	.+4      	; 0x70 <.do_copy_data_start>

0000006c <.do_copy_data_loop>:
      6c:	05 90       	lpm	r0, Z+
      6e:	0d 92       	st	X+, r0

00000070 <.do_copy_data_start>:
      70:	a2 31       	cpi	r26, 0x12	; 18
      72:	b1 07       	cpc	r27, r17
      74:	d9 f7       	brne	.-10     	; 0x6c <.do_copy_data_loop>
      76:	0e 94 2b 15 	call	0x2a56	; 0x2a56 <main>
      7a:	0c 94 c1 28 	jmp	0x5182	; 0x5182 <_exit>

0000007e <__bad_interrupt>:
      7e:	0c 94 00 00 	jmp	0	; 0x0 <__vectors>

00000082 <__ashldi3>:
      82:	ef 92       	push	r14
      84:	ff 92       	push	r15
      86:	0f 93       	push	r16
      88:	df 93       	push	r29
      8a:	cf 93       	push	r28
      8c:	cd b7       	in	r28, 0x3d	; 61
      8e:	de b7       	in	r29, 0x3e	; 62
      90:	60 97       	sbiw	r28, 0x10	; 16
      92:	0f b6       	in	r0, 0x3f	; 63
      94:	f8 94       	cli
      96:	de bf       	out	0x3e, r29	; 62
      98:	0f be       	out	0x3f, r0	; 63
      9a:	cd bf       	out	0x3d, r28	; 61
      9c:	a8 2f       	mov	r26, r24
      9e:	00 23       	and	r16, r16
      a0:	09 f4       	brne	.+2      	; 0xa4 <__ashldi3+0x22>
      a2:	61 c0       	rjmp	.+194    	; 0x166 <__ashldi3+0xe4>
      a4:	7e 01       	movw	r14, r28
      a6:	08 94       	sec
      a8:	e1 1c       	adc	r14, r1
      aa:	f1 1c       	adc	r15, r1
      ac:	88 e0       	ldi	r24, 0x08	; 8
      ae:	f7 01       	movw	r30, r14
      b0:	11 92       	st	Z+, r1
      b2:	8a 95       	dec	r24
      b4:	e9 f7       	brne	.-6      	; 0xb0 <__ashldi3+0x2e>
      b6:	29 83       	std	Y+1, r18	; 0x01
      b8:	3a 83       	std	Y+2, r19	; 0x02
      ba:	4b 83       	std	Y+3, r20	; 0x03
      bc:	5c 83       	std	Y+4, r21	; 0x04
      be:	6d 83       	std	Y+5, r22	; 0x05
      c0:	7e 83       	std	Y+6, r23	; 0x06
      c2:	af 83       	std	Y+7, r26	; 0x07
      c4:	98 87       	std	Y+8, r25	; 0x08
      c6:	80 e2       	ldi	r24, 0x20	; 32
      c8:	80 1b       	sub	r24, r16
      ca:	e8 2f       	mov	r30, r24
      cc:	ff 27       	eor	r31, r31
      ce:	e7 fd       	sbrc	r30, 7
      d0:	f0 95       	com	r31
      d2:	49 81       	ldd	r20, Y+1	; 0x01
      d4:	5a 81       	ldd	r21, Y+2	; 0x02
      d6:	6b 81       	ldd	r22, Y+3	; 0x03
      d8:	7c 81       	ldd	r23, Y+4	; 0x04
      da:	18 16       	cp	r1, r24
      dc:	84 f0       	brlt	.+32     	; 0xfe <__ashldi3+0x7c>
      de:	19 86       	std	Y+9, r1	; 0x09
      e0:	1a 86       	std	Y+10, r1	; 0x0a
      e2:	1b 86       	std	Y+11, r1	; 0x0b
      e4:	1c 86       	std	Y+12, r1	; 0x0c
      e6:	88 27       	eor	r24, r24
      e8:	99 27       	eor	r25, r25
      ea:	8e 1b       	sub	r24, r30
      ec:	9f 0b       	sbc	r25, r31
      ee:	04 c0       	rjmp	.+8      	; 0xf8 <__ashldi3+0x76>
      f0:	44 0f       	add	r20, r20
      f2:	55 1f       	adc	r21, r21
      f4:	66 1f       	adc	r22, r22
      f6:	77 1f       	adc	r23, r23
      f8:	8a 95       	dec	r24
      fa:	d2 f7       	brpl	.-12     	; 0xf0 <__ashldi3+0x6e>
      fc:	28 c0       	rjmp	.+80     	; 0x14e <__ashldi3+0xcc>
      fe:	20 2f       	mov	r18, r16
     100:	33 27       	eor	r19, r19
     102:	27 fd       	sbrc	r18, 7
     104:	30 95       	com	r19
     106:	db 01       	movw	r26, r22
     108:	ca 01       	movw	r24, r20
     10a:	02 2e       	mov	r0, r18
     10c:	04 c0       	rjmp	.+8      	; 0x116 <__ashldi3+0x94>
     10e:	88 0f       	add	r24, r24
     110:	99 1f       	adc	r25, r25
     112:	aa 1f       	adc	r26, r26
     114:	bb 1f       	adc	r27, r27
     116:	0a 94       	dec	r0
     118:	d2 f7       	brpl	.-12     	; 0x10e <__ashldi3+0x8c>
     11a:	89 87       	std	Y+9, r24	; 0x09
     11c:	9a 87       	std	Y+10, r25	; 0x0a
     11e:	ab 87       	std	Y+11, r26	; 0x0b
     120:	bc 87       	std	Y+12, r27	; 0x0c
     122:	04 c0       	rjmp	.+8      	; 0x12c <__ashldi3+0xaa>
     124:	76 95       	lsr	r23
     126:	67 95       	ror	r22
     128:	57 95       	ror	r21
     12a:	47 95       	ror	r20
     12c:	ea 95       	dec	r30
     12e:	d2 f7       	brpl	.-12     	; 0x124 <__ashldi3+0xa2>
     130:	8d 81       	ldd	r24, Y+5	; 0x05
     132:	9e 81       	ldd	r25, Y+6	; 0x06
     134:	af 81       	ldd	r26, Y+7	; 0x07
     136:	b8 85       	ldd	r27, Y+8	; 0x08
     138:	04 c0       	rjmp	.+8      	; 0x142 <__ashldi3+0xc0>
     13a:	88 0f       	add	r24, r24
     13c:	99 1f       	adc	r25, r25
     13e:	aa 1f       	adc	r26, r26
     140:	bb 1f       	adc	r27, r27
     142:	2a 95       	dec	r18
     144:	d2 f7       	brpl	.-12     	; 0x13a <__ashldi3+0xb8>
     146:	48 2b       	or	r20, r24
     148:	59 2b       	or	r21, r25
     14a:	6a 2b       	or	r22, r26
     14c:	7b 2b       	or	r23, r27
     14e:	4d 87       	std	Y+13, r20	; 0x0d
     150:	5e 87       	std	Y+14, r21	; 0x0e
     152:	6f 87       	std	Y+15, r22	; 0x0f
     154:	78 8b       	std	Y+16, r23	; 0x10
     156:	29 85       	ldd	r18, Y+9	; 0x09
     158:	3a 85       	ldd	r19, Y+10	; 0x0a
     15a:	4b 85       	ldd	r20, Y+11	; 0x0b
     15c:	5c 85       	ldd	r21, Y+12	; 0x0c
     15e:	6d 85       	ldd	r22, Y+13	; 0x0d
     160:	7e 85       	ldd	r23, Y+14	; 0x0e
     162:	af 85       	ldd	r26, Y+15	; 0x0f
     164:	98 89       	ldd	r25, Y+16	; 0x10
     166:	8a 2f       	mov	r24, r26
     168:	60 96       	adiw	r28, 0x10	; 16
     16a:	0f b6       	in	r0, 0x3f	; 63
     16c:	f8 94       	cli
     16e:	de bf       	out	0x3e, r29	; 62
     170:	0f be       	out	0x3f, r0	; 63
     172:	cd bf       	out	0x3d, r28	; 61
     174:	cf 91       	pop	r28
     176:	df 91       	pop	r29
     178:	0f 91       	pop	r16
     17a:	ff 90       	pop	r15
     17c:	ef 90       	pop	r14
     17e:	08 95       	ret

00000180 <__fixunssfsi>:
     180:	ef 92       	push	r14
     182:	ff 92       	push	r15
     184:	0f 93       	push	r16
     186:	1f 93       	push	r17
     188:	7b 01       	movw	r14, r22
     18a:	8c 01       	movw	r16, r24
     18c:	20 e0       	ldi	r18, 0x00	; 0
     18e:	30 e0       	ldi	r19, 0x00	; 0
     190:	40 e0       	ldi	r20, 0x00	; 0
     192:	5f e4       	ldi	r21, 0x4F	; 79
     194:	0e 94 a5 10 	call	0x214a	; 0x214a <__gesf2>
     198:	88 23       	and	r24, r24
     19a:	8c f0       	brlt	.+34     	; 0x1be <__fixunssfsi+0x3e>
     19c:	c8 01       	movw	r24, r16
     19e:	b7 01       	movw	r22, r14
     1a0:	20 e0       	ldi	r18, 0x00	; 0
     1a2:	30 e0       	ldi	r19, 0x00	; 0
     1a4:	40 e0       	ldi	r20, 0x00	; 0
     1a6:	5f e4       	ldi	r21, 0x4F	; 79
     1a8:	0e 94 1d 0f 	call	0x1e3a	; 0x1e3a <__subsf3>
     1ac:	0e 94 63 11 	call	0x22c6	; 0x22c6 <__fixsfsi>
     1b0:	9b 01       	movw	r18, r22
     1b2:	ac 01       	movw	r20, r24
     1b4:	20 50       	subi	r18, 0x00	; 0
     1b6:	30 40       	sbci	r19, 0x00	; 0
     1b8:	40 40       	sbci	r20, 0x00	; 0
     1ba:	50 48       	sbci	r21, 0x80	; 128
     1bc:	06 c0       	rjmp	.+12     	; 0x1ca <__fixunssfsi+0x4a>
     1be:	c8 01       	movw	r24, r16
     1c0:	b7 01       	movw	r22, r14
     1c2:	0e 94 63 11 	call	0x22c6	; 0x22c6 <__fixsfsi>
     1c6:	9b 01       	movw	r18, r22
     1c8:	ac 01       	movw	r20, r24
     1ca:	b9 01       	movw	r22, r18
     1cc:	ca 01       	movw	r24, r20
     1ce:	1f 91       	pop	r17
     1d0:	0f 91       	pop	r16
     1d2:	ff 90       	pop	r15
     1d4:	ef 90       	pop	r14
     1d6:	08 95       	ret

000001d8 <__udivdi3>:
     1d8:	ae e5       	ldi	r26, 0x5E	; 94
     1da:	b0 e0       	ldi	r27, 0x00	; 0
     1dc:	e2 ef       	ldi	r30, 0xF2	; 242
     1de:	f0 e0       	ldi	r31, 0x00	; 0
     1e0:	0c 94 8a 28 	jmp	0x5114	; 0x5114 <__prologue_saves__>
     1e4:	a8 e0       	ldi	r26, 0x08	; 8
     1e6:	4e 01       	movw	r8, r28
     1e8:	08 94       	sec
     1ea:	81 1c       	adc	r8, r1
     1ec:	91 1c       	adc	r9, r1
     1ee:	f4 01       	movw	r30, r8
     1f0:	6a 2e       	mov	r6, r26
     1f2:	11 92       	st	Z+, r1
     1f4:	6a 94       	dec	r6
     1f6:	e9 f7       	brne	.-6      	; 0x1f2 <__udivdi3+0x1a>
     1f8:	29 83       	std	Y+1, r18	; 0x01
     1fa:	3a 83       	std	Y+2, r19	; 0x02
     1fc:	4b 83       	std	Y+3, r20	; 0x03
     1fe:	5c 83       	std	Y+4, r21	; 0x04
     200:	6d 83       	std	Y+5, r22	; 0x05
     202:	7e 83       	std	Y+6, r23	; 0x06
     204:	8f 83       	std	Y+7, r24	; 0x07
     206:	98 87       	std	Y+8, r25	; 0x08
     208:	ce 01       	movw	r24, r28
     20a:	09 96       	adiw	r24, 0x09	; 9
     20c:	fc 01       	movw	r30, r24
     20e:	11 92       	st	Z+, r1
     210:	aa 95       	dec	r26
     212:	e9 f7       	brne	.-6      	; 0x20e <__udivdi3+0x36>
     214:	a9 86       	std	Y+9, r10	; 0x09
     216:	ba 86       	std	Y+10, r11	; 0x0a
     218:	cb 86       	std	Y+11, r12	; 0x0b
     21a:	dc 86       	std	Y+12, r13	; 0x0c
     21c:	ed 86       	std	Y+13, r14	; 0x0d
     21e:	fe 86       	std	Y+14, r15	; 0x0e
     220:	0f 87       	std	Y+15, r16	; 0x0f
     222:	18 8b       	std	Y+16, r17	; 0x10
     224:	29 84       	ldd	r2, Y+9	; 0x09
     226:	3a 84       	ldd	r3, Y+10	; 0x0a
     228:	4b 84       	ldd	r4, Y+11	; 0x0b
     22a:	5c 84       	ldd	r5, Y+12	; 0x0c
     22c:	ed 84       	ldd	r14, Y+13	; 0x0d
     22e:	fe 84       	ldd	r15, Y+14	; 0x0e
     230:	0f 85       	ldd	r16, Y+15	; 0x0f
     232:	18 89       	ldd	r17, Y+16	; 0x10
     234:	69 80       	ldd	r6, Y+1	; 0x01
     236:	7a 80       	ldd	r7, Y+2	; 0x02
     238:	8b 80       	ldd	r8, Y+3	; 0x03
     23a:	9c 80       	ldd	r9, Y+4	; 0x04
     23c:	6d a6       	std	Y+45, r6	; 0x2d
     23e:	7e a6       	std	Y+46, r7	; 0x2e
     240:	8f a6       	std	Y+47, r8	; 0x2f
     242:	98 aa       	std	Y+48, r9	; 0x30
     244:	6d 80       	ldd	r6, Y+5	; 0x05
     246:	7e 80       	ldd	r7, Y+6	; 0x06
     248:	8f 80       	ldd	r8, Y+7	; 0x07
     24a:	98 84       	ldd	r9, Y+8	; 0x08
     24c:	e1 14       	cp	r14, r1
     24e:	f1 04       	cpc	r15, r1
     250:	01 05       	cpc	r16, r1
     252:	11 05       	cpc	r17, r1
     254:	09 f0       	breq	.+2      	; 0x258 <__udivdi3+0x80>
     256:	b3 c3       	rjmp	.+1894   	; 0x9be <__stack+0x15f>
     258:	62 14       	cp	r6, r2
     25a:	73 04       	cpc	r7, r3
     25c:	84 04       	cpc	r8, r4
     25e:	95 04       	cpc	r9, r5
     260:	08 f0       	brcs	.+2      	; 0x264 <__udivdi3+0x8c>
     262:	3d c1       	rjmp	.+634    	; 0x4de <__udivdi3+0x306>
     264:	00 e0       	ldi	r16, 0x00	; 0
     266:	20 16       	cp	r2, r16
     268:	00 e0       	ldi	r16, 0x00	; 0
     26a:	30 06       	cpc	r3, r16
     26c:	01 e0       	ldi	r16, 0x01	; 1
     26e:	40 06       	cpc	r4, r16
     270:	00 e0       	ldi	r16, 0x00	; 0
     272:	50 06       	cpc	r5, r16
     274:	88 f4       	brcc	.+34     	; 0x298 <__udivdi3+0xc0>
     276:	1f ef       	ldi	r17, 0xFF	; 255
     278:	21 16       	cp	r2, r17
     27a:	31 04       	cpc	r3, r1
     27c:	41 04       	cpc	r4, r1
     27e:	51 04       	cpc	r5, r1
     280:	39 f0       	breq	.+14     	; 0x290 <__udivdi3+0xb8>
     282:	30 f0       	brcs	.+12     	; 0x290 <__udivdi3+0xb8>
     284:	48 e0       	ldi	r20, 0x08	; 8
     286:	e4 2e       	mov	r14, r20
     288:	f1 2c       	mov	r15, r1
     28a:	01 2d       	mov	r16, r1
     28c:	11 2d       	mov	r17, r1
     28e:	18 c0       	rjmp	.+48     	; 0x2c0 <__udivdi3+0xe8>
     290:	ee 24       	eor	r14, r14
     292:	ff 24       	eor	r15, r15
     294:	87 01       	movw	r16, r14
     296:	14 c0       	rjmp	.+40     	; 0x2c0 <__udivdi3+0xe8>
     298:	20 e0       	ldi	r18, 0x00	; 0
     29a:	22 16       	cp	r2, r18
     29c:	20 e0       	ldi	r18, 0x00	; 0
     29e:	32 06       	cpc	r3, r18
     2a0:	20 e0       	ldi	r18, 0x00	; 0
     2a2:	42 06       	cpc	r4, r18
     2a4:	21 e0       	ldi	r18, 0x01	; 1
     2a6:	52 06       	cpc	r5, r18
     2a8:	30 f0       	brcs	.+12     	; 0x2b6 <__udivdi3+0xde>
     2aa:	38 e1       	ldi	r19, 0x18	; 24
     2ac:	e3 2e       	mov	r14, r19
     2ae:	f1 2c       	mov	r15, r1
     2b0:	01 2d       	mov	r16, r1
     2b2:	11 2d       	mov	r17, r1
     2b4:	05 c0       	rjmp	.+10     	; 0x2c0 <__udivdi3+0xe8>
     2b6:	20 e1       	ldi	r18, 0x10	; 16
     2b8:	e2 2e       	mov	r14, r18
     2ba:	f1 2c       	mov	r15, r1
     2bc:	01 2d       	mov	r16, r1
     2be:	11 2d       	mov	r17, r1
     2c0:	d2 01       	movw	r26, r4
     2c2:	c1 01       	movw	r24, r2
     2c4:	0e 2c       	mov	r0, r14
     2c6:	04 c0       	rjmp	.+8      	; 0x2d0 <__udivdi3+0xf8>
     2c8:	b6 95       	lsr	r27
     2ca:	a7 95       	ror	r26
     2cc:	97 95       	ror	r25
     2ce:	87 95       	ror	r24
     2d0:	0a 94       	dec	r0
     2d2:	d2 f7       	brpl	.-12     	; 0x2c8 <__udivdi3+0xf0>
     2d4:	82 53       	subi	r24, 0x32	; 50
     2d6:	9f 4f       	sbci	r25, 0xFF	; 255
     2d8:	dc 01       	movw	r26, r24
     2da:	2c 91       	ld	r18, X
     2dc:	80 e2       	ldi	r24, 0x20	; 32
     2de:	90 e0       	ldi	r25, 0x00	; 0
     2e0:	a0 e0       	ldi	r26, 0x00	; 0
     2e2:	b0 e0       	ldi	r27, 0x00	; 0
     2e4:	8e 19       	sub	r24, r14
     2e6:	9f 09       	sbc	r25, r15
     2e8:	a0 0b       	sbc	r26, r16
     2ea:	b1 0b       	sbc	r27, r17
     2ec:	7c 01       	movw	r14, r24
     2ee:	8d 01       	movw	r16, r26
     2f0:	e2 1a       	sub	r14, r18
     2f2:	f1 08       	sbc	r15, r1
     2f4:	01 09       	sbc	r16, r1
     2f6:	11 09       	sbc	r17, r1
     2f8:	e1 14       	cp	r14, r1
     2fa:	f1 04       	cpc	r15, r1
     2fc:	01 05       	cpc	r16, r1
     2fe:	11 05       	cpc	r17, r1
     300:	a1 f1       	breq	.+104    	; 0x36a <__udivdi3+0x192>
     302:	0e 2c       	mov	r0, r14
     304:	04 c0       	rjmp	.+8      	; 0x30e <__udivdi3+0x136>
     306:	22 0c       	add	r2, r2
     308:	33 1c       	adc	r3, r3
     30a:	44 1c       	adc	r4, r4
     30c:	55 1c       	adc	r5, r5
     30e:	0a 94       	dec	r0
     310:	d2 f7       	brpl	.-12     	; 0x306 <__udivdi3+0x12e>
     312:	a4 01       	movw	r20, r8
     314:	93 01       	movw	r18, r6
     316:	0e 2c       	mov	r0, r14
     318:	04 c0       	rjmp	.+8      	; 0x322 <__udivdi3+0x14a>
     31a:	22 0f       	add	r18, r18
     31c:	33 1f       	adc	r19, r19
     31e:	44 1f       	adc	r20, r20
     320:	55 1f       	adc	r21, r21
     322:	0a 94       	dec	r0
     324:	d2 f7       	brpl	.-12     	; 0x31a <__udivdi3+0x142>
     326:	80 e2       	ldi	r24, 0x20	; 32
     328:	90 e0       	ldi	r25, 0x00	; 0
     32a:	8e 19       	sub	r24, r14
     32c:	9f 09       	sbc	r25, r15
     32e:	6d a4       	ldd	r6, Y+45	; 0x2d
     330:	7e a4       	ldd	r7, Y+46	; 0x2e
     332:	8f a4       	ldd	r8, Y+47	; 0x2f
     334:	98 a8       	ldd	r9, Y+48	; 0x30
     336:	04 c0       	rjmp	.+8      	; 0x340 <__udivdi3+0x168>
     338:	96 94       	lsr	r9
     33a:	87 94       	ror	r8
     33c:	77 94       	ror	r7
     33e:	67 94       	ror	r6
     340:	8a 95       	dec	r24
     342:	d2 f7       	brpl	.-12     	; 0x338 <__udivdi3+0x160>
     344:	62 2a       	or	r6, r18
     346:	73 2a       	or	r7, r19
     348:	84 2a       	or	r8, r20
     34a:	95 2a       	or	r9, r21
     34c:	ad a4       	ldd	r10, Y+45	; 0x2d
     34e:	be a4       	ldd	r11, Y+46	; 0x2e
     350:	cf a4       	ldd	r12, Y+47	; 0x2f
     352:	d8 a8       	ldd	r13, Y+48	; 0x30
     354:	04 c0       	rjmp	.+8      	; 0x35e <__udivdi3+0x186>
     356:	aa 0c       	add	r10, r10
     358:	bb 1c       	adc	r11, r11
     35a:	cc 1c       	adc	r12, r12
     35c:	dd 1c       	adc	r13, r13
     35e:	ea 94       	dec	r14
     360:	d2 f7       	brpl	.-12     	; 0x356 <__udivdi3+0x17e>
     362:	ad a6       	std	Y+45, r10	; 0x2d
     364:	be a6       	std	Y+46, r11	; 0x2e
     366:	cf a6       	std	Y+47, r12	; 0x2f
     368:	d8 aa       	std	Y+48, r13	; 0x30
     36a:	62 01       	movw	r12, r4
     36c:	ee 24       	eor	r14, r14
     36e:	ff 24       	eor	r15, r15
     370:	cd aa       	std	Y+53, r12	; 0x35
     372:	de aa       	std	Y+54, r13	; 0x36
     374:	ef aa       	std	Y+55, r14	; 0x37
     376:	f8 ae       	std	Y+56, r15	; 0x38
     378:	92 01       	movw	r18, r4
     37a:	81 01       	movw	r16, r2
     37c:	20 70       	andi	r18, 0x00	; 0
     37e:	30 70       	andi	r19, 0x00	; 0
     380:	09 af       	std	Y+57, r16	; 0x39
     382:	1a af       	std	Y+58, r17	; 0x3a
     384:	2b af       	std	Y+59, r18	; 0x3b
     386:	3c af       	std	Y+60, r19	; 0x3c
     388:	c4 01       	movw	r24, r8
     38a:	b3 01       	movw	r22, r6
     38c:	a7 01       	movw	r20, r14
     38e:	96 01       	movw	r18, r12
     390:	0e 94 68 28 	call	0x50d0	; 0x50d0 <__udivmodsi4>
     394:	7b 01       	movw	r14, r22
     396:	8c 01       	movw	r16, r24
     398:	c4 01       	movw	r24, r8
     39a:	b3 01       	movw	r22, r6
     39c:	2d a9       	ldd	r18, Y+53	; 0x35
     39e:	3e a9       	ldd	r19, Y+54	; 0x36
     3a0:	4f a9       	ldd	r20, Y+55	; 0x37
     3a2:	58 ad       	ldd	r21, Y+56	; 0x38
     3a4:	0e 94 68 28 	call	0x50d0	; 0x50d0 <__udivmodsi4>
     3a8:	c9 01       	movw	r24, r18
     3aa:	da 01       	movw	r26, r20
     3ac:	3c 01       	movw	r6, r24
     3ae:	4d 01       	movw	r8, r26
     3b0:	c4 01       	movw	r24, r8
     3b2:	b3 01       	movw	r22, r6
     3b4:	29 ad       	ldd	r18, Y+57	; 0x39
     3b6:	3a ad       	ldd	r19, Y+58	; 0x3a
     3b8:	4b ad       	ldd	r20, Y+59	; 0x3b
     3ba:	5c ad       	ldd	r21, Y+60	; 0x3c
     3bc:	0e 94 49 28 	call	0x5092	; 0x5092 <__mulsi3>
     3c0:	9b 01       	movw	r18, r22
     3c2:	ac 01       	movw	r20, r24
     3c4:	87 01       	movw	r16, r14
     3c6:	ff 24       	eor	r15, r15
     3c8:	ee 24       	eor	r14, r14
     3ca:	ad a4       	ldd	r10, Y+45	; 0x2d
     3cc:	be a4       	ldd	r11, Y+46	; 0x2e
     3ce:	cf a4       	ldd	r12, Y+47	; 0x2f
     3d0:	d8 a8       	ldd	r13, Y+48	; 0x30
     3d2:	c6 01       	movw	r24, r12
     3d4:	aa 27       	eor	r26, r26
     3d6:	bb 27       	eor	r27, r27
     3d8:	57 01       	movw	r10, r14
     3da:	68 01       	movw	r12, r16
     3dc:	a8 2a       	or	r10, r24
     3de:	b9 2a       	or	r11, r25
     3e0:	ca 2a       	or	r12, r26
     3e2:	db 2a       	or	r13, r27
     3e4:	a2 16       	cp	r10, r18
     3e6:	b3 06       	cpc	r11, r19
     3e8:	c4 06       	cpc	r12, r20
     3ea:	d5 06       	cpc	r13, r21
     3ec:	e0 f4       	brcc	.+56     	; 0x426 <__udivdi3+0x24e>
     3ee:	08 94       	sec
     3f0:	61 08       	sbc	r6, r1
     3f2:	71 08       	sbc	r7, r1
     3f4:	81 08       	sbc	r8, r1
     3f6:	91 08       	sbc	r9, r1
     3f8:	a2 0c       	add	r10, r2
     3fa:	b3 1c       	adc	r11, r3
     3fc:	c4 1c       	adc	r12, r4
     3fe:	d5 1c       	adc	r13, r5
     400:	a2 14       	cp	r10, r2
     402:	b3 04       	cpc	r11, r3
     404:	c4 04       	cpc	r12, r4
     406:	d5 04       	cpc	r13, r5
     408:	70 f0       	brcs	.+28     	; 0x426 <__udivdi3+0x24e>
     40a:	a2 16       	cp	r10, r18
     40c:	b3 06       	cpc	r11, r19
     40e:	c4 06       	cpc	r12, r20
     410:	d5 06       	cpc	r13, r21
     412:	48 f4       	brcc	.+18     	; 0x426 <__udivdi3+0x24e>
     414:	08 94       	sec
     416:	61 08       	sbc	r6, r1
     418:	71 08       	sbc	r7, r1
     41a:	81 08       	sbc	r8, r1
     41c:	91 08       	sbc	r9, r1
     41e:	a2 0c       	add	r10, r2
     420:	b3 1c       	adc	r11, r3
     422:	c4 1c       	adc	r12, r4
     424:	d5 1c       	adc	r13, r5
     426:	a2 1a       	sub	r10, r18
     428:	b3 0a       	sbc	r11, r19
     42a:	c4 0a       	sbc	r12, r20
     42c:	d5 0a       	sbc	r13, r21
     42e:	c6 01       	movw	r24, r12
     430:	b5 01       	movw	r22, r10
     432:	2d a9       	ldd	r18, Y+53	; 0x35
     434:	3e a9       	ldd	r19, Y+54	; 0x36
     436:	4f a9       	ldd	r20, Y+55	; 0x37
     438:	58 ad       	ldd	r21, Y+56	; 0x38
     43a:	0e 94 68 28 	call	0x50d0	; 0x50d0 <__udivmodsi4>
     43e:	7b 01       	movw	r14, r22
     440:	8c 01       	movw	r16, r24
     442:	c6 01       	movw	r24, r12
     444:	b5 01       	movw	r22, r10
     446:	2d a9       	ldd	r18, Y+53	; 0x35
     448:	3e a9       	ldd	r19, Y+54	; 0x36
     44a:	4f a9       	ldd	r20, Y+55	; 0x37
     44c:	58 ad       	ldd	r21, Y+56	; 0x38
     44e:	0e 94 68 28 	call	0x50d0	; 0x50d0 <__udivmodsi4>
     452:	c9 01       	movw	r24, r18
     454:	da 01       	movw	r26, r20
     456:	5c 01       	movw	r10, r24
     458:	6d 01       	movw	r12, r26
     45a:	c6 01       	movw	r24, r12
     45c:	b5 01       	movw	r22, r10
     45e:	29 ad       	ldd	r18, Y+57	; 0x39
     460:	3a ad       	ldd	r19, Y+58	; 0x3a
     462:	4b ad       	ldd	r20, Y+59	; 0x3b
     464:	5c ad       	ldd	r21, Y+60	; 0x3c
     466:	0e 94 49 28 	call	0x5092	; 0x5092 <__mulsi3>
     46a:	9b 01       	movw	r18, r22
     46c:	ac 01       	movw	r20, r24
     46e:	87 01       	movw	r16, r14
     470:	ff 24       	eor	r15, r15
     472:	ee 24       	eor	r14, r14
     474:	8d a5       	ldd	r24, Y+45	; 0x2d
     476:	9e a5       	ldd	r25, Y+46	; 0x2e
     478:	af a5       	ldd	r26, Y+47	; 0x2f
     47a:	b8 a9       	ldd	r27, Y+48	; 0x30
     47c:	a0 70       	andi	r26, 0x00	; 0
     47e:	b0 70       	andi	r27, 0x00	; 0
     480:	e8 2a       	or	r14, r24
     482:	f9 2a       	or	r15, r25
     484:	0a 2b       	or	r16, r26
     486:	1b 2b       	or	r17, r27
     488:	e2 16       	cp	r14, r18
     48a:	f3 06       	cpc	r15, r19
     48c:	04 07       	cpc	r16, r20
     48e:	15 07       	cpc	r17, r21
     490:	c0 f4       	brcc	.+48     	; 0x4c2 <__udivdi3+0x2ea>
     492:	08 94       	sec
     494:	a1 08       	sbc	r10, r1
     496:	b1 08       	sbc	r11, r1
     498:	c1 08       	sbc	r12, r1
     49a:	d1 08       	sbc	r13, r1
     49c:	e2 0c       	add	r14, r2
     49e:	f3 1c       	adc	r15, r3
     4a0:	04 1d       	adc	r16, r4
     4a2:	15 1d       	adc	r17, r5
     4a4:	e2 14       	cp	r14, r2
     4a6:	f3 04       	cpc	r15, r3
     4a8:	04 05       	cpc	r16, r4
     4aa:	15 05       	cpc	r17, r5
     4ac:	50 f0       	brcs	.+20     	; 0x4c2 <__udivdi3+0x2ea>
     4ae:	e2 16       	cp	r14, r18
     4b0:	f3 06       	cpc	r15, r19
     4b2:	04 07       	cpc	r16, r20
     4b4:	15 07       	cpc	r17, r21
     4b6:	28 f4       	brcc	.+10     	; 0x4c2 <__udivdi3+0x2ea>
     4b8:	08 94       	sec
     4ba:	a1 08       	sbc	r10, r1
     4bc:	b1 08       	sbc	r11, r1
     4be:	c1 08       	sbc	r12, r1
     4c0:	d1 08       	sbc	r13, r1
     4c2:	d3 01       	movw	r26, r6
     4c4:	99 27       	eor	r25, r25
     4c6:	88 27       	eor	r24, r24
     4c8:	86 01       	movw	r16, r12
     4ca:	75 01       	movw	r14, r10
     4cc:	e8 2a       	or	r14, r24
     4ce:	f9 2a       	or	r15, r25
     4d0:	0a 2b       	or	r16, r26
     4d2:	1b 2b       	or	r17, r27
     4d4:	e9 aa       	std	Y+49, r14	; 0x31
     4d6:	fa aa       	std	Y+50, r15	; 0x32
     4d8:	0b ab       	std	Y+51, r16	; 0x33
     4da:	1c ab       	std	Y+52, r17	; 0x34
     4dc:	cf c4       	rjmp	.+2462   	; 0xe7c <__stack+0x61d>
     4de:	21 14       	cp	r2, r1
     4e0:	31 04       	cpc	r3, r1
     4e2:	41 04       	cpc	r4, r1
     4e4:	51 04       	cpc	r5, r1
     4e6:	71 f4       	brne	.+28     	; 0x504 <__udivdi3+0x32c>
     4e8:	61 e0       	ldi	r22, 0x01	; 1
     4ea:	70 e0       	ldi	r23, 0x00	; 0
     4ec:	80 e0       	ldi	r24, 0x00	; 0
     4ee:	90 e0       	ldi	r25, 0x00	; 0
     4f0:	20 e0       	ldi	r18, 0x00	; 0
     4f2:	30 e0       	ldi	r19, 0x00	; 0
     4f4:	40 e0       	ldi	r20, 0x00	; 0
     4f6:	50 e0       	ldi	r21, 0x00	; 0
     4f8:	0e 94 68 28 	call	0x50d0	; 0x50d0 <__udivmodsi4>
     4fc:	c9 01       	movw	r24, r18
     4fe:	da 01       	movw	r26, r20
     500:	1c 01       	movw	r2, r24
     502:	2d 01       	movw	r4, r26
     504:	00 e0       	ldi	r16, 0x00	; 0
     506:	20 16       	cp	r2, r16
     508:	00 e0       	ldi	r16, 0x00	; 0
     50a:	30 06       	cpc	r3, r16
     50c:	01 e0       	ldi	r16, 0x01	; 1
     50e:	40 06       	cpc	r4, r16
     510:	00 e0       	ldi	r16, 0x00	; 0
     512:	50 06       	cpc	r5, r16
     514:	88 f4       	brcc	.+34     	; 0x538 <__udivdi3+0x360>
     516:	1f ef       	ldi	r17, 0xFF	; 255
     518:	21 16       	cp	r2, r17
     51a:	31 04       	cpc	r3, r1
     51c:	41 04       	cpc	r4, r1
     51e:	51 04       	cpc	r5, r1
     520:	31 f0       	breq	.+12     	; 0x52e <__udivdi3+0x356>
     522:	28 f0       	brcs	.+10     	; 0x52e <__udivdi3+0x356>
     524:	48 e0       	ldi	r20, 0x08	; 8
     526:	50 e0       	ldi	r21, 0x00	; 0
     528:	60 e0       	ldi	r22, 0x00	; 0
     52a:	70 e0       	ldi	r23, 0x00	; 0
     52c:	17 c0       	rjmp	.+46     	; 0x55c <__udivdi3+0x384>
     52e:	40 e0       	ldi	r20, 0x00	; 0
     530:	50 e0       	ldi	r21, 0x00	; 0
     532:	60 e0       	ldi	r22, 0x00	; 0
     534:	70 e0       	ldi	r23, 0x00	; 0
     536:	12 c0       	rjmp	.+36     	; 0x55c <__udivdi3+0x384>
     538:	20 e0       	ldi	r18, 0x00	; 0
     53a:	22 16       	cp	r2, r18
     53c:	20 e0       	ldi	r18, 0x00	; 0
     53e:	32 06       	cpc	r3, r18
     540:	20 e0       	ldi	r18, 0x00	; 0
     542:	42 06       	cpc	r4, r18
     544:	21 e0       	ldi	r18, 0x01	; 1
     546:	52 06       	cpc	r5, r18
     548:	28 f0       	brcs	.+10     	; 0x554 <__udivdi3+0x37c>
     54a:	48 e1       	ldi	r20, 0x18	; 24
     54c:	50 e0       	ldi	r21, 0x00	; 0
     54e:	60 e0       	ldi	r22, 0x00	; 0
     550:	70 e0       	ldi	r23, 0x00	; 0
     552:	04 c0       	rjmp	.+8      	; 0x55c <__udivdi3+0x384>
     554:	40 e1       	ldi	r20, 0x10	; 16
     556:	50 e0       	ldi	r21, 0x00	; 0
     558:	60 e0       	ldi	r22, 0x00	; 0
     55a:	70 e0       	ldi	r23, 0x00	; 0
     55c:	d2 01       	movw	r26, r4
     55e:	c1 01       	movw	r24, r2
     560:	04 2e       	mov	r0, r20
     562:	04 c0       	rjmp	.+8      	; 0x56c <__udivdi3+0x394>
     564:	b6 95       	lsr	r27
     566:	a7 95       	ror	r26
     568:	97 95       	ror	r25
     56a:	87 95       	ror	r24
     56c:	0a 94       	dec	r0
     56e:	d2 f7       	brpl	.-12     	; 0x564 <__udivdi3+0x38c>
     570:	82 53       	subi	r24, 0x32	; 50
     572:	9f 4f       	sbci	r25, 0xFF	; 255
     574:	dc 01       	movw	r26, r24
     576:	2c 91       	ld	r18, X
     578:	e0 e2       	ldi	r30, 0x20	; 32
     57a:	ee 2e       	mov	r14, r30
     57c:	f1 2c       	mov	r15, r1
     57e:	01 2d       	mov	r16, r1
     580:	11 2d       	mov	r17, r1
     582:	d8 01       	movw	r26, r16
     584:	c7 01       	movw	r24, r14
     586:	84 1b       	sub	r24, r20
     588:	95 0b       	sbc	r25, r21
     58a:	a6 0b       	sbc	r26, r22
     58c:	b7 0b       	sbc	r27, r23
     58e:	82 1b       	sub	r24, r18
     590:	91 09       	sbc	r25, r1
     592:	a1 09       	sbc	r26, r1
     594:	b1 09       	sbc	r27, r1
     596:	00 97       	sbiw	r24, 0x00	; 0
     598:	a1 05       	cpc	r26, r1
     59a:	b1 05       	cpc	r27, r1
     59c:	61 f4       	brne	.+24     	; 0x5b6 <__udivdi3+0x3de>
     59e:	64 01       	movw	r12, r8
     5a0:	53 01       	movw	r10, r6
     5a2:	a2 18       	sub	r10, r2
     5a4:	b3 08       	sbc	r11, r3
     5a6:	c4 08       	sbc	r12, r4
     5a8:	d5 08       	sbc	r13, r5
     5aa:	31 e0       	ldi	r19, 0x01	; 1
     5ac:	63 2e       	mov	r6, r19
     5ae:	71 2c       	mov	r7, r1
     5b0:	81 2c       	mov	r8, r1
     5b2:	91 2c       	mov	r9, r1
     5b4:	1e c1       	rjmp	.+572    	; 0x7f2 <__udivdi3+0x61a>
     5b6:	6f 96       	adiw	r28, 0x1f	; 31
     5b8:	8f af       	std	Y+63, r24	; 0x3f
     5ba:	6f 97       	sbiw	r28, 0x1f	; 31
     5bc:	08 2e       	mov	r0, r24
     5be:	04 c0       	rjmp	.+8      	; 0x5c8 <__udivdi3+0x3f0>
     5c0:	22 0c       	add	r2, r2
     5c2:	33 1c       	adc	r3, r3
     5c4:	44 1c       	adc	r4, r4
     5c6:	55 1c       	adc	r5, r5
     5c8:	0a 94       	dec	r0
     5ca:	d2 f7       	brpl	.-12     	; 0x5c0 <__udivdi3+0x3e8>
     5cc:	ee 2d       	mov	r30, r14
     5ce:	e8 1b       	sub	r30, r24
     5d0:	64 01       	movw	r12, r8
     5d2:	53 01       	movw	r10, r6
     5d4:	0e 2e       	mov	r0, r30
     5d6:	04 c0       	rjmp	.+8      	; 0x5e0 <__udivdi3+0x408>
     5d8:	d6 94       	lsr	r13
     5da:	c7 94       	ror	r12
     5dc:	b7 94       	ror	r11
     5de:	a7 94       	ror	r10
     5e0:	0a 94       	dec	r0
     5e2:	d2 f7       	brpl	.-12     	; 0x5d8 <__udivdi3+0x400>
     5e4:	a4 01       	movw	r20, r8
     5e6:	93 01       	movw	r18, r6
     5e8:	6f 96       	adiw	r28, 0x1f	; 31
     5ea:	0f ac       	ldd	r0, Y+63	; 0x3f
     5ec:	6f 97       	sbiw	r28, 0x1f	; 31
     5ee:	04 c0       	rjmp	.+8      	; 0x5f8 <__udivdi3+0x420>
     5f0:	22 0f       	add	r18, r18
     5f2:	33 1f       	adc	r19, r19
     5f4:	44 1f       	adc	r20, r20
     5f6:	55 1f       	adc	r21, r21
     5f8:	0a 94       	dec	r0
     5fa:	d2 f7       	brpl	.-12     	; 0x5f0 <__udivdi3+0x418>
     5fc:	6d a4       	ldd	r6, Y+45	; 0x2d
     5fe:	7e a4       	ldd	r7, Y+46	; 0x2e
     600:	8f a4       	ldd	r8, Y+47	; 0x2f
     602:	98 a8       	ldd	r9, Y+48	; 0x30
     604:	0e 2e       	mov	r0, r30
     606:	04 c0       	rjmp	.+8      	; 0x610 <__udivdi3+0x438>
     608:	96 94       	lsr	r9
     60a:	87 94       	ror	r8
     60c:	77 94       	ror	r7
     60e:	67 94       	ror	r6
     610:	0a 94       	dec	r0
     612:	d2 f7       	brpl	.-12     	; 0x608 <__udivdi3+0x430>
     614:	84 01       	movw	r16, r8
     616:	73 01       	movw	r14, r6
     618:	e2 2a       	or	r14, r18
     61a:	f3 2a       	or	r15, r19
     61c:	04 2b       	or	r16, r20
     61e:	15 2b       	or	r17, r21
     620:	e9 a6       	std	Y+41, r14	; 0x29
     622:	fa a6       	std	Y+42, r15	; 0x2a
     624:	0b a7       	std	Y+43, r16	; 0x2b
     626:	1c a7       	std	Y+44, r17	; 0x2c
     628:	32 01       	movw	r6, r4
     62a:	88 24       	eor	r8, r8
     62c:	99 24       	eor	r9, r9
     62e:	92 01       	movw	r18, r4
     630:	81 01       	movw	r16, r2
     632:	20 70       	andi	r18, 0x00	; 0
     634:	30 70       	andi	r19, 0x00	; 0
     636:	21 96       	adiw	r28, 0x01	; 1
     638:	0c af       	std	Y+60, r16	; 0x3c
     63a:	1d af       	std	Y+61, r17	; 0x3d
     63c:	2e af       	std	Y+62, r18	; 0x3e
     63e:	3f af       	std	Y+63, r19	; 0x3f
     640:	21 97       	sbiw	r28, 0x01	; 1
     642:	c6 01       	movw	r24, r12
     644:	b5 01       	movw	r22, r10
     646:	a4 01       	movw	r20, r8
     648:	93 01       	movw	r18, r6
     64a:	0e 94 68 28 	call	0x50d0	; 0x50d0 <__udivmodsi4>
     64e:	7b 01       	movw	r14, r22
     650:	8c 01       	movw	r16, r24
     652:	c6 01       	movw	r24, r12
     654:	b5 01       	movw	r22, r10
     656:	a4 01       	movw	r20, r8
     658:	93 01       	movw	r18, r6
     65a:	0e 94 68 28 	call	0x50d0	; 0x50d0 <__udivmodsi4>
     65e:	c9 01       	movw	r24, r18
     660:	da 01       	movw	r26, r20
     662:	25 96       	adiw	r28, 0x05	; 5
     664:	8c af       	std	Y+60, r24	; 0x3c
     666:	9d af       	std	Y+61, r25	; 0x3d
     668:	ae af       	std	Y+62, r26	; 0x3e
     66a:	bf af       	std	Y+63, r27	; 0x3f
     66c:	25 97       	sbiw	r28, 0x05	; 5
     66e:	bc 01       	movw	r22, r24
     670:	cd 01       	movw	r24, r26
     672:	21 96       	adiw	r28, 0x01	; 1
     674:	2c ad       	ldd	r18, Y+60	; 0x3c
     676:	3d ad       	ldd	r19, Y+61	; 0x3d
     678:	4e ad       	ldd	r20, Y+62	; 0x3e
     67a:	5f ad       	ldd	r21, Y+63	; 0x3f
     67c:	21 97       	sbiw	r28, 0x01	; 1
     67e:	0e 94 49 28 	call	0x5092	; 0x5092 <__mulsi3>
     682:	9b 01       	movw	r18, r22
     684:	ac 01       	movw	r20, r24
     686:	87 01       	movw	r16, r14
     688:	ff 24       	eor	r15, r15
     68a:	ee 24       	eor	r14, r14
     68c:	a9 a4       	ldd	r10, Y+41	; 0x29
     68e:	ba a4       	ldd	r11, Y+42	; 0x2a
     690:	cb a4       	ldd	r12, Y+43	; 0x2b
     692:	dc a4       	ldd	r13, Y+44	; 0x2c
     694:	c6 01       	movw	r24, r12
     696:	aa 27       	eor	r26, r26
     698:	bb 27       	eor	r27, r27
     69a:	5c 01       	movw	r10, r24
     69c:	6d 01       	movw	r12, r26
     69e:	ae 28       	or	r10, r14
     6a0:	bf 28       	or	r11, r15
     6a2:	c0 2a       	or	r12, r16
     6a4:	d1 2a       	or	r13, r17
     6a6:	a2 16       	cp	r10, r18
     6a8:	b3 06       	cpc	r11, r19
     6aa:	c4 06       	cpc	r12, r20
     6ac:	d5 06       	cpc	r13, r21
     6ae:	60 f5       	brcc	.+88     	; 0x708 <__udivdi3+0x530>
     6b0:	25 96       	adiw	r28, 0x05	; 5
     6b2:	6c ad       	ldd	r22, Y+60	; 0x3c
     6b4:	7d ad       	ldd	r23, Y+61	; 0x3d
     6b6:	8e ad       	ldd	r24, Y+62	; 0x3e
     6b8:	9f ad       	ldd	r25, Y+63	; 0x3f
     6ba:	25 97       	sbiw	r28, 0x05	; 5
     6bc:	61 50       	subi	r22, 0x01	; 1
     6be:	70 40       	sbci	r23, 0x00	; 0
     6c0:	80 40       	sbci	r24, 0x00	; 0
     6c2:	90 40       	sbci	r25, 0x00	; 0
     6c4:	25 96       	adiw	r28, 0x05	; 5
     6c6:	6c af       	std	Y+60, r22	; 0x3c
     6c8:	7d af       	std	Y+61, r23	; 0x3d
     6ca:	8e af       	std	Y+62, r24	; 0x3e
     6cc:	9f af       	std	Y+63, r25	; 0x3f
     6ce:	25 97       	sbiw	r28, 0x05	; 5
     6d0:	a2 0c       	add	r10, r2
     6d2:	b3 1c       	adc	r11, r3
     6d4:	c4 1c       	adc	r12, r4
     6d6:	d5 1c       	adc	r13, r5
     6d8:	a2 14       	cp	r10, r2
     6da:	b3 04       	cpc	r11, r3
     6dc:	c4 04       	cpc	r12, r4
     6de:	d5 04       	cpc	r13, r5
     6e0:	98 f0       	brcs	.+38     	; 0x708 <__udivdi3+0x530>
     6e2:	a2 16       	cp	r10, r18
     6e4:	b3 06       	cpc	r11, r19
     6e6:	c4 06       	cpc	r12, r20
     6e8:	d5 06       	cpc	r13, r21
     6ea:	70 f4       	brcc	.+28     	; 0x708 <__udivdi3+0x530>
     6ec:	61 50       	subi	r22, 0x01	; 1
     6ee:	70 40       	sbci	r23, 0x00	; 0
     6f0:	80 40       	sbci	r24, 0x00	; 0
     6f2:	90 40       	sbci	r25, 0x00	; 0
     6f4:	25 96       	adiw	r28, 0x05	; 5
     6f6:	6c af       	std	Y+60, r22	; 0x3c
     6f8:	7d af       	std	Y+61, r23	; 0x3d
     6fa:	8e af       	std	Y+62, r24	; 0x3e
     6fc:	9f af       	std	Y+63, r25	; 0x3f
     6fe:	25 97       	sbiw	r28, 0x05	; 5
     700:	a2 0c       	add	r10, r2
     702:	b3 1c       	adc	r11, r3
     704:	c4 1c       	adc	r12, r4
     706:	d5 1c       	adc	r13, r5
     708:	a2 1a       	sub	r10, r18
     70a:	b3 0a       	sbc	r11, r19
     70c:	c4 0a       	sbc	r12, r20
     70e:	d5 0a       	sbc	r13, r21
     710:	c6 01       	movw	r24, r12
     712:	b5 01       	movw	r22, r10
     714:	a4 01       	movw	r20, r8
     716:	93 01       	movw	r18, r6
     718:	0e 94 68 28 	call	0x50d0	; 0x50d0 <__udivmodsi4>
     71c:	7b 01       	movw	r14, r22
     71e:	8c 01       	movw	r16, r24
     720:	c6 01       	movw	r24, r12
     722:	b5 01       	movw	r22, r10
     724:	a4 01       	movw	r20, r8
     726:	93 01       	movw	r18, r6
     728:	0e 94 68 28 	call	0x50d0	; 0x50d0 <__udivmodsi4>
     72c:	c9 01       	movw	r24, r18
     72e:	da 01       	movw	r26, r20
     730:	3c 01       	movw	r6, r24
     732:	4d 01       	movw	r8, r26
     734:	c4 01       	movw	r24, r8
     736:	b3 01       	movw	r22, r6
     738:	21 96       	adiw	r28, 0x01	; 1
     73a:	2c ad       	ldd	r18, Y+60	; 0x3c
     73c:	3d ad       	ldd	r19, Y+61	; 0x3d
     73e:	4e ad       	ldd	r20, Y+62	; 0x3e
     740:	5f ad       	ldd	r21, Y+63	; 0x3f
     742:	21 97       	sbiw	r28, 0x01	; 1
     744:	0e 94 49 28 	call	0x5092	; 0x5092 <__mulsi3>
     748:	9b 01       	movw	r18, r22
     74a:	ac 01       	movw	r20, r24
     74c:	87 01       	movw	r16, r14
     74e:	ff 24       	eor	r15, r15
     750:	ee 24       	eor	r14, r14
     752:	89 a5       	ldd	r24, Y+41	; 0x29
     754:	9a a5       	ldd	r25, Y+42	; 0x2a
     756:	ab a5       	ldd	r26, Y+43	; 0x2b
     758:	bc a5       	ldd	r27, Y+44	; 0x2c
     75a:	a0 70       	andi	r26, 0x00	; 0
     75c:	b0 70       	andi	r27, 0x00	; 0
     75e:	57 01       	movw	r10, r14
     760:	68 01       	movw	r12, r16
     762:	a8 2a       	or	r10, r24
     764:	b9 2a       	or	r11, r25
     766:	ca 2a       	or	r12, r26
     768:	db 2a       	or	r13, r27
     76a:	a2 16       	cp	r10, r18
     76c:	b3 06       	cpc	r11, r19
     76e:	c4 06       	cpc	r12, r20
     770:	d5 06       	cpc	r13, r21
     772:	e0 f4       	brcc	.+56     	; 0x7ac <__udivdi3+0x5d4>
     774:	08 94       	sec
     776:	61 08       	sbc	r6, r1
     778:	71 08       	sbc	r7, r1
     77a:	81 08       	sbc	r8, r1
     77c:	91 08       	sbc	r9, r1
     77e:	a2 0c       	add	r10, r2
     780:	b3 1c       	adc	r11, r3
     782:	c4 1c       	adc	r12, r4
     784:	d5 1c       	adc	r13, r5
     786:	a2 14       	cp	r10, r2
     788:	b3 04       	cpc	r11, r3
     78a:	c4 04       	cpc	r12, r4
     78c:	d5 04       	cpc	r13, r5
     78e:	70 f0       	brcs	.+28     	; 0x7ac <__udivdi3+0x5d4>
     790:	a2 16       	cp	r10, r18
     792:	b3 06       	cpc	r11, r19
     794:	c4 06       	cpc	r12, r20
     796:	d5 06       	cpc	r13, r21
     798:	48 f4       	brcc	.+18     	; 0x7ac <__udivdi3+0x5d4>
     79a:	08 94       	sec
     79c:	61 08       	sbc	r6, r1
     79e:	71 08       	sbc	r7, r1
     7a0:	81 08       	sbc	r8, r1
     7a2:	91 08       	sbc	r9, r1
     7a4:	a2 0c       	add	r10, r2
     7a6:	b3 1c       	adc	r11, r3
     7a8:	c4 1c       	adc	r12, r4
     7aa:	d5 1c       	adc	r13, r5
     7ac:	8d a5       	ldd	r24, Y+45	; 0x2d
     7ae:	9e a5       	ldd	r25, Y+46	; 0x2e
     7b0:	af a5       	ldd	r26, Y+47	; 0x2f
     7b2:	b8 a9       	ldd	r27, Y+48	; 0x30
     7b4:	6f 96       	adiw	r28, 0x1f	; 31
     7b6:	0f ac       	ldd	r0, Y+63	; 0x3f
     7b8:	6f 97       	sbiw	r28, 0x1f	; 31
     7ba:	04 c0       	rjmp	.+8      	; 0x7c4 <__udivdi3+0x5ec>
     7bc:	88 0f       	add	r24, r24
     7be:	99 1f       	adc	r25, r25
     7c0:	aa 1f       	adc	r26, r26
     7c2:	bb 1f       	adc	r27, r27
     7c4:	0a 94       	dec	r0
     7c6:	d2 f7       	brpl	.-12     	; 0x7bc <__udivdi3+0x5e4>
     7c8:	8d a7       	std	Y+45, r24	; 0x2d
     7ca:	9e a7       	std	Y+46, r25	; 0x2e
     7cc:	af a7       	std	Y+47, r26	; 0x2f
     7ce:	b8 ab       	std	Y+48, r27	; 0x30
     7d0:	a2 1a       	sub	r10, r18
     7d2:	b3 0a       	sbc	r11, r19
     7d4:	c4 0a       	sbc	r12, r20
     7d6:	d5 0a       	sbc	r13, r21
     7d8:	25 96       	adiw	r28, 0x05	; 5
     7da:	ec ac       	ldd	r14, Y+60	; 0x3c
     7dc:	fd ac       	ldd	r15, Y+61	; 0x3d
     7de:	0e ad       	ldd	r16, Y+62	; 0x3e
     7e0:	1f ad       	ldd	r17, Y+63	; 0x3f
     7e2:	25 97       	sbiw	r28, 0x05	; 5
     7e4:	d7 01       	movw	r26, r14
     7e6:	99 27       	eor	r25, r25
     7e8:	88 27       	eor	r24, r24
     7ea:	68 2a       	or	r6, r24
     7ec:	79 2a       	or	r7, r25
     7ee:	8a 2a       	or	r8, r26
     7f0:	9b 2a       	or	r9, r27
     7f2:	82 01       	movw	r16, r4
     7f4:	22 27       	eor	r18, r18
     7f6:	33 27       	eor	r19, r19
     7f8:	29 96       	adiw	r28, 0x09	; 9
     7fa:	0c af       	std	Y+60, r16	; 0x3c
     7fc:	1d af       	std	Y+61, r17	; 0x3d
     7fe:	2e af       	std	Y+62, r18	; 0x3e
     800:	3f af       	std	Y+63, r19	; 0x3f
     802:	29 97       	sbiw	r28, 0x09	; 9
     804:	a2 01       	movw	r20, r4
     806:	91 01       	movw	r18, r2
     808:	40 70       	andi	r20, 0x00	; 0
     80a:	50 70       	andi	r21, 0x00	; 0
     80c:	2d 96       	adiw	r28, 0x0d	; 13
     80e:	2c af       	std	Y+60, r18	; 0x3c
     810:	3d af       	std	Y+61, r19	; 0x3d
     812:	4e af       	std	Y+62, r20	; 0x3e
     814:	5f af       	std	Y+63, r21	; 0x3f
     816:	2d 97       	sbiw	r28, 0x0d	; 13
     818:	c6 01       	movw	r24, r12
     81a:	b5 01       	movw	r22, r10
     81c:	29 96       	adiw	r28, 0x09	; 9
     81e:	2c ad       	ldd	r18, Y+60	; 0x3c
     820:	3d ad       	ldd	r19, Y+61	; 0x3d
     822:	4e ad       	ldd	r20, Y+62	; 0x3e
     824:	5f ad       	ldd	r21, Y+63	; 0x3f
     826:	29 97       	sbiw	r28, 0x09	; 9
     828:	0e 94 68 28 	call	0x50d0	; 0x50d0 <__udivmodsi4>
     82c:	7b 01       	movw	r14, r22
     82e:	8c 01       	movw	r16, r24
     830:	c6 01       	movw	r24, r12
     832:	b5 01       	movw	r22, r10
     834:	29 96       	adiw	r28, 0x09	; 9
     836:	2c ad       	ldd	r18, Y+60	; 0x3c
     838:	3d ad       	ldd	r19, Y+61	; 0x3d
     83a:	4e ad       	ldd	r20, Y+62	; 0x3e
     83c:	5f ad       	ldd	r21, Y+63	; 0x3f
     83e:	29 97       	sbiw	r28, 0x09	; 9
     840:	0e 94 68 28 	call	0x50d0	; 0x50d0 <__udivmodsi4>
     844:	c9 01       	movw	r24, r18
     846:	da 01       	movw	r26, r20
     848:	61 96       	adiw	r28, 0x11	; 17
     84a:	8c af       	std	Y+60, r24	; 0x3c
     84c:	9d af       	std	Y+61, r25	; 0x3d
     84e:	ae af       	std	Y+62, r26	; 0x3e
     850:	bf af       	std	Y+63, r27	; 0x3f
     852:	61 97       	sbiw	r28, 0x11	; 17
     854:	bc 01       	movw	r22, r24
     856:	cd 01       	movw	r24, r26
     858:	2d 96       	adiw	r28, 0x0d	; 13
     85a:	2c ad       	ldd	r18, Y+60	; 0x3c
     85c:	3d ad       	ldd	r19, Y+61	; 0x3d
     85e:	4e ad       	ldd	r20, Y+62	; 0x3e
     860:	5f ad       	ldd	r21, Y+63	; 0x3f
     862:	2d 97       	sbiw	r28, 0x0d	; 13
     864:	0e 94 49 28 	call	0x5092	; 0x5092 <__mulsi3>
     868:	9b 01       	movw	r18, r22
     86a:	ac 01       	movw	r20, r24
     86c:	87 01       	movw	r16, r14
     86e:	ff 24       	eor	r15, r15
     870:	ee 24       	eor	r14, r14
     872:	ad a4       	ldd	r10, Y+45	; 0x2d
     874:	be a4       	ldd	r11, Y+46	; 0x2e
     876:	cf a4       	ldd	r12, Y+47	; 0x2f
     878:	d8 a8       	ldd	r13, Y+48	; 0x30
     87a:	c6 01       	movw	r24, r12
     87c:	aa 27       	eor	r26, r26
     87e:	bb 27       	eor	r27, r27
     880:	57 01       	movw	r10, r14
     882:	68 01       	movw	r12, r16
     884:	a8 2a       	or	r10, r24
     886:	b9 2a       	or	r11, r25
     888:	ca 2a       	or	r12, r26
     88a:	db 2a       	or	r13, r27
     88c:	a2 16       	cp	r10, r18
     88e:	b3 06       	cpc	r11, r19
     890:	c4 06       	cpc	r12, r20
     892:	d5 06       	cpc	r13, r21
     894:	60 f5       	brcc	.+88     	; 0x8ee <__stack+0x8f>
     896:	61 96       	adiw	r28, 0x11	; 17
     898:	6c ad       	ldd	r22, Y+60	; 0x3c
     89a:	7d ad       	ldd	r23, Y+61	; 0x3d
     89c:	8e ad       	ldd	r24, Y+62	; 0x3e
     89e:	9f ad       	ldd	r25, Y+63	; 0x3f
     8a0:	61 97       	sbiw	r28, 0x11	; 17
     8a2:	61 50       	subi	r22, 0x01	; 1
     8a4:	70 40       	sbci	r23, 0x00	; 0
     8a6:	80 40       	sbci	r24, 0x00	; 0
     8a8:	90 40       	sbci	r25, 0x00	; 0
     8aa:	61 96       	adiw	r28, 0x11	; 17
     8ac:	6c af       	std	Y+60, r22	; 0x3c
     8ae:	7d af       	std	Y+61, r23	; 0x3d
     8b0:	8e af       	std	Y+62, r24	; 0x3e
     8b2:	9f af       	std	Y+63, r25	; 0x3f
     8b4:	61 97       	sbiw	r28, 0x11	; 17
     8b6:	a2 0c       	add	r10, r2
     8b8:	b3 1c       	adc	r11, r3
     8ba:	c4 1c       	adc	r12, r4
     8bc:	d5 1c       	adc	r13, r5
     8be:	a2 14       	cp	r10, r2
     8c0:	b3 04       	cpc	r11, r3
     8c2:	c4 04       	cpc	r12, r4
     8c4:	d5 04       	cpc	r13, r5
     8c6:	98 f0       	brcs	.+38     	; 0x8ee <__stack+0x8f>
     8c8:	a2 16       	cp	r10, r18
     8ca:	b3 06       	cpc	r11, r19
     8cc:	c4 06       	cpc	r12, r20
     8ce:	d5 06       	cpc	r13, r21
     8d0:	70 f4       	brcc	.+28     	; 0x8ee <__stack+0x8f>
     8d2:	61 50       	subi	r22, 0x01	; 1
     8d4:	70 40       	sbci	r23, 0x00	; 0
     8d6:	80 40       	sbci	r24, 0x00	; 0
     8d8:	90 40       	sbci	r25, 0x00	; 0
     8da:	61 96       	adiw	r28, 0x11	; 17
     8dc:	6c af       	std	Y+60, r22	; 0x3c
     8de:	7d af       	std	Y+61, r23	; 0x3d
     8e0:	8e af       	std	Y+62, r24	; 0x3e
     8e2:	9f af       	std	Y+63, r25	; 0x3f
     8e4:	61 97       	sbiw	r28, 0x11	; 17
     8e6:	a2 0c       	add	r10, r2
     8e8:	b3 1c       	adc	r11, r3
     8ea:	c4 1c       	adc	r12, r4
     8ec:	d5 1c       	adc	r13, r5
     8ee:	a2 1a       	sub	r10, r18
     8f0:	b3 0a       	sbc	r11, r19
     8f2:	c4 0a       	sbc	r12, r20
     8f4:	d5 0a       	sbc	r13, r21
     8f6:	c6 01       	movw	r24, r12
     8f8:	b5 01       	movw	r22, r10
     8fa:	29 96       	adiw	r28, 0x09	; 9
     8fc:	2c ad       	ldd	r18, Y+60	; 0x3c
     8fe:	3d ad       	ldd	r19, Y+61	; 0x3d
     900:	4e ad       	ldd	r20, Y+62	; 0x3e
     902:	5f ad       	ldd	r21, Y+63	; 0x3f
     904:	29 97       	sbiw	r28, 0x09	; 9
     906:	0e 94 68 28 	call	0x50d0	; 0x50d0 <__udivmodsi4>
     90a:	7b 01       	movw	r14, r22
     90c:	8c 01       	movw	r16, r24
     90e:	c6 01       	movw	r24, r12
     910:	b5 01       	movw	r22, r10
     912:	29 96       	adiw	r28, 0x09	; 9
     914:	2c ad       	ldd	r18, Y+60	; 0x3c
     916:	3d ad       	ldd	r19, Y+61	; 0x3d
     918:	4e ad       	ldd	r20, Y+62	; 0x3e
     91a:	5f ad       	ldd	r21, Y+63	; 0x3f
     91c:	29 97       	sbiw	r28, 0x09	; 9
     91e:	0e 94 68 28 	call	0x50d0	; 0x50d0 <__udivmodsi4>
     922:	c9 01       	movw	r24, r18
     924:	da 01       	movw	r26, r20
     926:	5c 01       	movw	r10, r24
     928:	6d 01       	movw	r12, r26
     92a:	c6 01       	movw	r24, r12
     92c:	b5 01       	movw	r22, r10
     92e:	2d 96       	adiw	r28, 0x0d	; 13
     930:	2c ad       	ldd	r18, Y+60	; 0x3c
     932:	3d ad       	ldd	r19, Y+61	; 0x3d
     934:	4e ad       	ldd	r20, Y+62	; 0x3e
     936:	5f ad       	ldd	r21, Y+63	; 0x3f
     938:	2d 97       	sbiw	r28, 0x0d	; 13
     93a:	0e 94 49 28 	call	0x5092	; 0x5092 <__mulsi3>
     93e:	9b 01       	movw	r18, r22
     940:	ac 01       	movw	r20, r24
     942:	87 01       	movw	r16, r14
     944:	ff 24       	eor	r15, r15
     946:	ee 24       	eor	r14, r14
     948:	8d a5       	ldd	r24, Y+45	; 0x2d
     94a:	9e a5       	ldd	r25, Y+46	; 0x2e
     94c:	af a5       	ldd	r26, Y+47	; 0x2f
     94e:	b8 a9       	ldd	r27, Y+48	; 0x30
     950:	a0 70       	andi	r26, 0x00	; 0
     952:	b0 70       	andi	r27, 0x00	; 0
     954:	e8 2a       	or	r14, r24
     956:	f9 2a       	or	r15, r25
     958:	0a 2b       	or	r16, r26
     95a:	1b 2b       	or	r17, r27
     95c:	e2 16       	cp	r14, r18
     95e:	f3 06       	cpc	r15, r19
     960:	04 07       	cpc	r16, r20
     962:	15 07       	cpc	r17, r21
     964:	c0 f4       	brcc	.+48     	; 0x996 <__stack+0x137>
     966:	08 94       	sec
     968:	a1 08       	sbc	r10, r1
     96a:	b1 08       	sbc	r11, r1
     96c:	c1 08       	sbc	r12, r1
     96e:	d1 08       	sbc	r13, r1
     970:	e2 0c       	add	r14, r2
     972:	f3 1c       	adc	r15, r3
     974:	04 1d       	adc	r16, r4
     976:	15 1d       	adc	r17, r5
     978:	e2 14       	cp	r14, r2
     97a:	f3 04       	cpc	r15, r3
     97c:	04 05       	cpc	r16, r4
     97e:	15 05       	cpc	r17, r5
     980:	50 f0       	brcs	.+20     	; 0x996 <__stack+0x137>
     982:	e2 16       	cp	r14, r18
     984:	f3 06       	cpc	r15, r19
     986:	04 07       	cpc	r16, r20
     988:	15 07       	cpc	r17, r21
     98a:	28 f4       	brcc	.+10     	; 0x996 <__stack+0x137>
     98c:	08 94       	sec
     98e:	a1 08       	sbc	r10, r1
     990:	b1 08       	sbc	r11, r1
     992:	c1 08       	sbc	r12, r1
     994:	d1 08       	sbc	r13, r1
     996:	61 96       	adiw	r28, 0x11	; 17
     998:	ec ac       	ldd	r14, Y+60	; 0x3c
     99a:	fd ac       	ldd	r15, Y+61	; 0x3d
     99c:	0e ad       	ldd	r16, Y+62	; 0x3e
     99e:	1f ad       	ldd	r17, Y+63	; 0x3f
     9a0:	61 97       	sbiw	r28, 0x11	; 17
     9a2:	d7 01       	movw	r26, r14
     9a4:	99 27       	eor	r25, r25
     9a6:	88 27       	eor	r24, r24
     9a8:	96 01       	movw	r18, r12
     9aa:	85 01       	movw	r16, r10
     9ac:	08 2b       	or	r16, r24
     9ae:	19 2b       	or	r17, r25
     9b0:	2a 2b       	or	r18, r26
     9b2:	3b 2b       	or	r19, r27
     9b4:	09 ab       	std	Y+49, r16	; 0x31
     9b6:	1a ab       	std	Y+50, r17	; 0x32
     9b8:	2b ab       	std	Y+51, r18	; 0x33
     9ba:	3c ab       	std	Y+52, r19	; 0x34
     9bc:	62 c2       	rjmp	.+1220   	; 0xe82 <__stack+0x623>
     9be:	6e 14       	cp	r6, r14
     9c0:	7f 04       	cpc	r7, r15
     9c2:	80 06       	cpc	r8, r16
     9c4:	91 06       	cpc	r9, r17
     9c6:	08 f4       	brcc	.+2      	; 0x9ca <__stack+0x16b>
     9c8:	51 c2       	rjmp	.+1186   	; 0xe6c <__stack+0x60d>
     9ca:	20 e0       	ldi	r18, 0x00	; 0
     9cc:	e2 16       	cp	r14, r18
     9ce:	20 e0       	ldi	r18, 0x00	; 0
     9d0:	f2 06       	cpc	r15, r18
     9d2:	21 e0       	ldi	r18, 0x01	; 1
     9d4:	02 07       	cpc	r16, r18
     9d6:	20 e0       	ldi	r18, 0x00	; 0
     9d8:	12 07       	cpc	r17, r18
     9da:	88 f4       	brcc	.+34     	; 0x9fe <__stack+0x19f>
     9dc:	3f ef       	ldi	r19, 0xFF	; 255
     9de:	e3 16       	cp	r14, r19
     9e0:	f1 04       	cpc	r15, r1
     9e2:	01 05       	cpc	r16, r1
     9e4:	11 05       	cpc	r17, r1
     9e6:	31 f0       	breq	.+12     	; 0x9f4 <__stack+0x195>
     9e8:	28 f0       	brcs	.+10     	; 0x9f4 <__stack+0x195>
     9ea:	48 e0       	ldi	r20, 0x08	; 8
     9ec:	50 e0       	ldi	r21, 0x00	; 0
     9ee:	60 e0       	ldi	r22, 0x00	; 0
     9f0:	70 e0       	ldi	r23, 0x00	; 0
     9f2:	17 c0       	rjmp	.+46     	; 0xa22 <__stack+0x1c3>
     9f4:	40 e0       	ldi	r20, 0x00	; 0
     9f6:	50 e0       	ldi	r21, 0x00	; 0
     9f8:	60 e0       	ldi	r22, 0x00	; 0
     9fa:	70 e0       	ldi	r23, 0x00	; 0
     9fc:	12 c0       	rjmp	.+36     	; 0xa22 <__stack+0x1c3>
     9fe:	40 e0       	ldi	r20, 0x00	; 0
     a00:	e4 16       	cp	r14, r20
     a02:	40 e0       	ldi	r20, 0x00	; 0
     a04:	f4 06       	cpc	r15, r20
     a06:	40 e0       	ldi	r20, 0x00	; 0
     a08:	04 07       	cpc	r16, r20
     a0a:	41 e0       	ldi	r20, 0x01	; 1
     a0c:	14 07       	cpc	r17, r20
     a0e:	28 f0       	brcs	.+10     	; 0xa1a <__stack+0x1bb>
     a10:	48 e1       	ldi	r20, 0x18	; 24
     a12:	50 e0       	ldi	r21, 0x00	; 0
     a14:	60 e0       	ldi	r22, 0x00	; 0
     a16:	70 e0       	ldi	r23, 0x00	; 0
     a18:	04 c0       	rjmp	.+8      	; 0xa22 <__stack+0x1c3>
     a1a:	40 e1       	ldi	r20, 0x10	; 16
     a1c:	50 e0       	ldi	r21, 0x00	; 0
     a1e:	60 e0       	ldi	r22, 0x00	; 0
     a20:	70 e0       	ldi	r23, 0x00	; 0
     a22:	d8 01       	movw	r26, r16
     a24:	c7 01       	movw	r24, r14
     a26:	04 2e       	mov	r0, r20
     a28:	04 c0       	rjmp	.+8      	; 0xa32 <__stack+0x1d3>
     a2a:	b6 95       	lsr	r27
     a2c:	a7 95       	ror	r26
     a2e:	97 95       	ror	r25
     a30:	87 95       	ror	r24
     a32:	0a 94       	dec	r0
     a34:	d2 f7       	brpl	.-12     	; 0xa2a <__stack+0x1cb>
     a36:	82 53       	subi	r24, 0x32	; 50
     a38:	9f 4f       	sbci	r25, 0xFF	; 255
     a3a:	dc 01       	movw	r26, r24
     a3c:	2c 91       	ld	r18, X
     a3e:	30 e2       	ldi	r19, 0x20	; 32
     a40:	a3 2e       	mov	r10, r19
     a42:	b1 2c       	mov	r11, r1
     a44:	c1 2c       	mov	r12, r1
     a46:	d1 2c       	mov	r13, r1
     a48:	d6 01       	movw	r26, r12
     a4a:	c5 01       	movw	r24, r10
     a4c:	84 1b       	sub	r24, r20
     a4e:	95 0b       	sbc	r25, r21
     a50:	a6 0b       	sbc	r26, r22
     a52:	b7 0b       	sbc	r27, r23
     a54:	82 1b       	sub	r24, r18
     a56:	91 09       	sbc	r25, r1
     a58:	a1 09       	sbc	r26, r1
     a5a:	b1 09       	sbc	r27, r1
     a5c:	00 97       	sbiw	r24, 0x00	; 0
     a5e:	a1 05       	cpc	r26, r1
     a60:	b1 05       	cpc	r27, r1
     a62:	89 f4       	brne	.+34     	; 0xa86 <__stack+0x227>
     a64:	e6 14       	cp	r14, r6
     a66:	f7 04       	cpc	r15, r7
     a68:	08 05       	cpc	r16, r8
     a6a:	19 05       	cpc	r17, r9
     a6c:	08 f4       	brcc	.+2      	; 0xa70 <__stack+0x211>
     a6e:	f2 c1       	rjmp	.+996    	; 0xe54 <__stack+0x5f5>
     a70:	6d a4       	ldd	r6, Y+45	; 0x2d
     a72:	7e a4       	ldd	r7, Y+46	; 0x2e
     a74:	8f a4       	ldd	r8, Y+47	; 0x2f
     a76:	98 a8       	ldd	r9, Y+48	; 0x30
     a78:	62 14       	cp	r6, r2
     a7a:	73 04       	cpc	r7, r3
     a7c:	84 04       	cpc	r8, r4
     a7e:	95 04       	cpc	r9, r5
     a80:	08 f0       	brcs	.+2      	; 0xa84 <__stack+0x225>
     a82:	e8 c1       	rjmp	.+976    	; 0xe54 <__stack+0x5f5>
     a84:	f3 c1       	rjmp	.+998    	; 0xe6c <__stack+0x60d>
     a86:	6e 96       	adiw	r28, 0x1e	; 30
     a88:	8f af       	std	Y+63, r24	; 0x3f
     a8a:	6e 97       	sbiw	r28, 0x1e	; 30
     a8c:	08 2e       	mov	r0, r24
     a8e:	04 c0       	rjmp	.+8      	; 0xa98 <__stack+0x239>
     a90:	ee 0c       	add	r14, r14
     a92:	ff 1c       	adc	r15, r15
     a94:	00 1f       	adc	r16, r16
     a96:	11 1f       	adc	r17, r17
     a98:	0a 94       	dec	r0
     a9a:	d2 f7       	brpl	.-12     	; 0xa90 <__stack+0x231>
     a9c:	6a 2d       	mov	r22, r10
     a9e:	68 1b       	sub	r22, r24
     aa0:	d2 01       	movw	r26, r4
     aa2:	c1 01       	movw	r24, r2
     aa4:	06 2e       	mov	r0, r22
     aa6:	04 c0       	rjmp	.+8      	; 0xab0 <__stack+0x251>
     aa8:	b6 95       	lsr	r27
     aaa:	a7 95       	ror	r26
     aac:	97 95       	ror	r25
     aae:	87 95       	ror	r24
     ab0:	0a 94       	dec	r0
     ab2:	d2 f7       	brpl	.-12     	; 0xaa8 <__stack+0x249>
     ab4:	5c 01       	movw	r10, r24
     ab6:	6d 01       	movw	r12, r26
     ab8:	ae 28       	or	r10, r14
     aba:	bf 28       	or	r11, r15
     abc:	c0 2a       	or	r12, r16
     abe:	d1 2a       	or	r13, r17
     ac0:	ad a2       	std	Y+37, r10	; 0x25
     ac2:	be a2       	std	Y+38, r11	; 0x26
     ac4:	cf a2       	std	Y+39, r12	; 0x27
     ac6:	d8 a6       	std	Y+40, r13	; 0x28
     ac8:	72 01       	movw	r14, r4
     aca:	61 01       	movw	r12, r2
     acc:	6e 96       	adiw	r28, 0x1e	; 30
     ace:	0f ac       	ldd	r0, Y+63	; 0x3f
     ad0:	6e 97       	sbiw	r28, 0x1e	; 30
     ad2:	04 c0       	rjmp	.+8      	; 0xadc <__stack+0x27d>
     ad4:	cc 0c       	add	r12, r12
     ad6:	dd 1c       	adc	r13, r13
     ad8:	ee 1c       	adc	r14, r14
     ada:	ff 1c       	adc	r15, r15
     adc:	0a 94       	dec	r0
     ade:	d2 f7       	brpl	.-12     	; 0xad4 <__stack+0x275>
     ae0:	c9 a2       	std	Y+33, r12	; 0x21
     ae2:	da a2       	std	Y+34, r13	; 0x22
     ae4:	eb a2       	std	Y+35, r14	; 0x23
     ae6:	fc a2       	std	Y+36, r15	; 0x24
     ae8:	64 01       	movw	r12, r8
     aea:	53 01       	movw	r10, r6
     aec:	06 2e       	mov	r0, r22
     aee:	04 c0       	rjmp	.+8      	; 0xaf8 <__stack+0x299>
     af0:	d6 94       	lsr	r13
     af2:	c7 94       	ror	r12
     af4:	b7 94       	ror	r11
     af6:	a7 94       	ror	r10
     af8:	0a 94       	dec	r0
     afa:	d2 f7       	brpl	.-12     	; 0xaf0 <__stack+0x291>
     afc:	d4 01       	movw	r26, r8
     afe:	c3 01       	movw	r24, r6
     b00:	6e 96       	adiw	r28, 0x1e	; 30
     b02:	0f ac       	ldd	r0, Y+63	; 0x3f
     b04:	6e 97       	sbiw	r28, 0x1e	; 30
     b06:	04 c0       	rjmp	.+8      	; 0xb10 <__stack+0x2b1>
     b08:	88 0f       	add	r24, r24
     b0a:	99 1f       	adc	r25, r25
     b0c:	aa 1f       	adc	r26, r26
     b0e:	bb 1f       	adc	r27, r27
     b10:	0a 94       	dec	r0
     b12:	d2 f7       	brpl	.-12     	; 0xb08 <__stack+0x2a9>
     b14:	ed a4       	ldd	r14, Y+45	; 0x2d
     b16:	fe a4       	ldd	r15, Y+46	; 0x2e
     b18:	0f a5       	ldd	r16, Y+47	; 0x2f
     b1a:	18 a9       	ldd	r17, Y+48	; 0x30
     b1c:	04 c0       	rjmp	.+8      	; 0xb26 <__stack+0x2c7>
     b1e:	16 95       	lsr	r17
     b20:	07 95       	ror	r16
     b22:	f7 94       	ror	r15
     b24:	e7 94       	ror	r14
     b26:	6a 95       	dec	r22
     b28:	d2 f7       	brpl	.-12     	; 0xb1e <__stack+0x2bf>
     b2a:	37 01       	movw	r6, r14
     b2c:	48 01       	movw	r8, r16
     b2e:	68 2a       	or	r6, r24
     b30:	79 2a       	or	r7, r25
     b32:	8a 2a       	or	r8, r26
     b34:	9b 2a       	or	r9, r27
     b36:	6d 8e       	std	Y+29, r6	; 0x1d
     b38:	7e 8e       	std	Y+30, r7	; 0x1e
     b3a:	8f 8e       	std	Y+31, r8	; 0x1f
     b3c:	98 a2       	std	Y+32, r9	; 0x20
     b3e:	ed a0       	ldd	r14, Y+37	; 0x25
     b40:	fe a0       	ldd	r15, Y+38	; 0x26
     b42:	0f a1       	ldd	r16, Y+39	; 0x27
     b44:	18 a5       	ldd	r17, Y+40	; 0x28
     b46:	38 01       	movw	r6, r16
     b48:	88 24       	eor	r8, r8
     b4a:	99 24       	eor	r9, r9
     b4c:	98 01       	movw	r18, r16
     b4e:	87 01       	movw	r16, r14
     b50:	20 70       	andi	r18, 0x00	; 0
     b52:	30 70       	andi	r19, 0x00	; 0
     b54:	65 96       	adiw	r28, 0x15	; 21
     b56:	0c af       	std	Y+60, r16	; 0x3c
     b58:	1d af       	std	Y+61, r17	; 0x3d
     b5a:	2e af       	std	Y+62, r18	; 0x3e
     b5c:	3f af       	std	Y+63, r19	; 0x3f
     b5e:	65 97       	sbiw	r28, 0x15	; 21
     b60:	c6 01       	movw	r24, r12
     b62:	b5 01       	movw	r22, r10
     b64:	a4 01       	movw	r20, r8
     b66:	93 01       	movw	r18, r6
     b68:	0e 94 68 28 	call	0x50d0	; 0x50d0 <__udivmodsi4>
     b6c:	7b 01       	movw	r14, r22
     b6e:	8c 01       	movw	r16, r24
     b70:	c6 01       	movw	r24, r12
     b72:	b5 01       	movw	r22, r10
     b74:	a4 01       	movw	r20, r8
     b76:	93 01       	movw	r18, r6
     b78:	0e 94 68 28 	call	0x50d0	; 0x50d0 <__udivmodsi4>
     b7c:	c9 01       	movw	r24, r18
     b7e:	da 01       	movw	r26, r20
     b80:	1c 01       	movw	r2, r24
     b82:	2d 01       	movw	r4, r26
     b84:	c2 01       	movw	r24, r4
     b86:	b1 01       	movw	r22, r2
     b88:	65 96       	adiw	r28, 0x15	; 21
     b8a:	2c ad       	ldd	r18, Y+60	; 0x3c
     b8c:	3d ad       	ldd	r19, Y+61	; 0x3d
     b8e:	4e ad       	ldd	r20, Y+62	; 0x3e
     b90:	5f ad       	ldd	r21, Y+63	; 0x3f
     b92:	65 97       	sbiw	r28, 0x15	; 21
     b94:	0e 94 49 28 	call	0x5092	; 0x5092 <__mulsi3>
     b98:	9b 01       	movw	r18, r22
     b9a:	ac 01       	movw	r20, r24
     b9c:	87 01       	movw	r16, r14
     b9e:	ff 24       	eor	r15, r15
     ba0:	ee 24       	eor	r14, r14
     ba2:	ad 8c       	ldd	r10, Y+29	; 0x1d
     ba4:	be 8c       	ldd	r11, Y+30	; 0x1e
     ba6:	cf 8c       	ldd	r12, Y+31	; 0x1f
     ba8:	d8 a0       	ldd	r13, Y+32	; 0x20
     baa:	c6 01       	movw	r24, r12
     bac:	aa 27       	eor	r26, r26
     bae:	bb 27       	eor	r27, r27
     bb0:	57 01       	movw	r10, r14
     bb2:	68 01       	movw	r12, r16
     bb4:	a8 2a       	or	r10, r24
     bb6:	b9 2a       	or	r11, r25
     bb8:	ca 2a       	or	r12, r26
     bba:	db 2a       	or	r13, r27
     bbc:	a2 16       	cp	r10, r18
     bbe:	b3 06       	cpc	r11, r19
     bc0:	c4 06       	cpc	r12, r20
     bc2:	d5 06       	cpc	r13, r21
     bc4:	00 f5       	brcc	.+64     	; 0xc06 <__stack+0x3a7>
     bc6:	08 94       	sec
     bc8:	21 08       	sbc	r2, r1
     bca:	31 08       	sbc	r3, r1
     bcc:	41 08       	sbc	r4, r1
     bce:	51 08       	sbc	r5, r1
     bd0:	ed a0       	ldd	r14, Y+37	; 0x25
     bd2:	fe a0       	ldd	r15, Y+38	; 0x26
     bd4:	0f a1       	ldd	r16, Y+39	; 0x27
     bd6:	18 a5       	ldd	r17, Y+40	; 0x28
     bd8:	ae 0c       	add	r10, r14
     bda:	bf 1c       	adc	r11, r15
     bdc:	c0 1e       	adc	r12, r16
     bde:	d1 1e       	adc	r13, r17
     be0:	ae 14       	cp	r10, r14
     be2:	bf 04       	cpc	r11, r15
     be4:	c0 06       	cpc	r12, r16
     be6:	d1 06       	cpc	r13, r17
     be8:	70 f0       	brcs	.+28     	; 0xc06 <__stack+0x3a7>
     bea:	a2 16       	cp	r10, r18
     bec:	b3 06       	cpc	r11, r19
     bee:	c4 06       	cpc	r12, r20
     bf0:	d5 06       	cpc	r13, r21
     bf2:	48 f4       	brcc	.+18     	; 0xc06 <__stack+0x3a7>
     bf4:	08 94       	sec
     bf6:	21 08       	sbc	r2, r1
     bf8:	31 08       	sbc	r3, r1
     bfa:	41 08       	sbc	r4, r1
     bfc:	51 08       	sbc	r5, r1
     bfe:	ae 0c       	add	r10, r14
     c00:	bf 1c       	adc	r11, r15
     c02:	c0 1e       	adc	r12, r16
     c04:	d1 1e       	adc	r13, r17
     c06:	a2 1a       	sub	r10, r18
     c08:	b3 0a       	sbc	r11, r19
     c0a:	c4 0a       	sbc	r12, r20
     c0c:	d5 0a       	sbc	r13, r21
     c0e:	c6 01       	movw	r24, r12
     c10:	b5 01       	movw	r22, r10
     c12:	a4 01       	movw	r20, r8
     c14:	93 01       	movw	r18, r6
     c16:	0e 94 68 28 	call	0x50d0	; 0x50d0 <__udivmodsi4>
     c1a:	7b 01       	movw	r14, r22
     c1c:	8c 01       	movw	r16, r24
     c1e:	c6 01       	movw	r24, r12
     c20:	b5 01       	movw	r22, r10
     c22:	a4 01       	movw	r20, r8
     c24:	93 01       	movw	r18, r6
     c26:	0e 94 68 28 	call	0x50d0	; 0x50d0 <__udivmodsi4>
     c2a:	c9 01       	movw	r24, r18
     c2c:	da 01       	movw	r26, r20
     c2e:	3c 01       	movw	r6, r24
     c30:	4d 01       	movw	r8, r26
     c32:	c4 01       	movw	r24, r8
     c34:	b3 01       	movw	r22, r6
     c36:	65 96       	adiw	r28, 0x15	; 21
     c38:	2c ad       	ldd	r18, Y+60	; 0x3c
     c3a:	3d ad       	ldd	r19, Y+61	; 0x3d
     c3c:	4e ad       	ldd	r20, Y+62	; 0x3e
     c3e:	5f ad       	ldd	r21, Y+63	; 0x3f
     c40:	65 97       	sbiw	r28, 0x15	; 21
     c42:	0e 94 49 28 	call	0x5092	; 0x5092 <__mulsi3>
     c46:	9b 01       	movw	r18, r22
     c48:	ac 01       	movw	r20, r24
     c4a:	87 01       	movw	r16, r14
     c4c:	ff 24       	eor	r15, r15
     c4e:	ee 24       	eor	r14, r14
     c50:	8d 8d       	ldd	r24, Y+29	; 0x1d
     c52:	9e 8d       	ldd	r25, Y+30	; 0x1e
     c54:	af 8d       	ldd	r26, Y+31	; 0x1f
     c56:	b8 a1       	ldd	r27, Y+32	; 0x20
     c58:	a0 70       	andi	r26, 0x00	; 0
     c5a:	b0 70       	andi	r27, 0x00	; 0
     c5c:	57 01       	movw	r10, r14
     c5e:	68 01       	movw	r12, r16
     c60:	a8 2a       	or	r10, r24
     c62:	b9 2a       	or	r11, r25
     c64:	ca 2a       	or	r12, r26
     c66:	db 2a       	or	r13, r27
     c68:	a2 16       	cp	r10, r18
     c6a:	b3 06       	cpc	r11, r19
     c6c:	c4 06       	cpc	r12, r20
     c6e:	d5 06       	cpc	r13, r21
     c70:	00 f5       	brcc	.+64     	; 0xcb2 <__stack+0x453>
     c72:	08 94       	sec
     c74:	61 08       	sbc	r6, r1
     c76:	71 08       	sbc	r7, r1
     c78:	81 08       	sbc	r8, r1
     c7a:	91 08       	sbc	r9, r1
     c7c:	6d a1       	ldd	r22, Y+37	; 0x25
     c7e:	7e a1       	ldd	r23, Y+38	; 0x26
     c80:	8f a1       	ldd	r24, Y+39	; 0x27
     c82:	98 a5       	ldd	r25, Y+40	; 0x28
     c84:	a6 0e       	add	r10, r22
     c86:	b7 1e       	adc	r11, r23
     c88:	c8 1e       	adc	r12, r24
     c8a:	d9 1e       	adc	r13, r25
     c8c:	a6 16       	cp	r10, r22
     c8e:	b7 06       	cpc	r11, r23
     c90:	c8 06       	cpc	r12, r24
     c92:	d9 06       	cpc	r13, r25
     c94:	70 f0       	brcs	.+28     	; 0xcb2 <__stack+0x453>
     c96:	a2 16       	cp	r10, r18
     c98:	b3 06       	cpc	r11, r19
     c9a:	c4 06       	cpc	r12, r20
     c9c:	d5 06       	cpc	r13, r21
     c9e:	48 f4       	brcc	.+18     	; 0xcb2 <__stack+0x453>
     ca0:	08 94       	sec
     ca2:	61 08       	sbc	r6, r1
     ca4:	71 08       	sbc	r7, r1
     ca6:	81 08       	sbc	r8, r1
     ca8:	91 08       	sbc	r9, r1
     caa:	a6 0e       	add	r10, r22
     cac:	b7 1e       	adc	r11, r23
     cae:	c8 1e       	adc	r12, r24
     cb0:	d9 1e       	adc	r13, r25
     cb2:	d6 01       	movw	r26, r12
     cb4:	c5 01       	movw	r24, r10
     cb6:	82 1b       	sub	r24, r18
     cb8:	93 0b       	sbc	r25, r19
     cba:	a4 0b       	sbc	r26, r20
     cbc:	b5 0b       	sbc	r27, r21
     cbe:	89 8f       	std	Y+25, r24	; 0x19
     cc0:	9a 8f       	std	Y+26, r25	; 0x1a
     cc2:	ab 8f       	std	Y+27, r26	; 0x1b
     cc4:	bc 8f       	std	Y+28, r27	; 0x1c
     cc6:	d1 01       	movw	r26, r2
     cc8:	99 27       	eor	r25, r25
     cca:	88 27       	eor	r24, r24
     ccc:	64 01       	movw	r12, r8
     cce:	53 01       	movw	r10, r6
     cd0:	a8 2a       	or	r10, r24
     cd2:	b9 2a       	or	r11, r25
     cd4:	ca 2a       	or	r12, r26
     cd6:	db 2a       	or	r13, r27
     cd8:	a9 aa       	std	Y+49, r10	; 0x31
     cda:	ba aa       	std	Y+50, r11	; 0x32
     cdc:	cb aa       	std	Y+51, r12	; 0x33
     cde:	dc aa       	std	Y+52, r13	; 0x34
     ce0:	86 01       	movw	r16, r12
     ce2:	75 01       	movw	r14, r10
     ce4:	2f ef       	ldi	r18, 0xFF	; 255
     ce6:	3f ef       	ldi	r19, 0xFF	; 255
     ce8:	40 e0       	ldi	r20, 0x00	; 0
     cea:	50 e0       	ldi	r21, 0x00	; 0
     cec:	e2 22       	and	r14, r18
     cee:	f3 22       	and	r15, r19
     cf0:	04 23       	and	r16, r20
     cf2:	15 23       	and	r17, r21
     cf4:	a6 01       	movw	r20, r12
     cf6:	66 27       	eor	r22, r22
     cf8:	77 27       	eor	r23, r23
     cfa:	6d 96       	adiw	r28, 0x1d	; 29
     cfc:	4c af       	std	Y+60, r20	; 0x3c
     cfe:	5d af       	std	Y+61, r21	; 0x3d
     d00:	6e af       	std	Y+62, r22	; 0x3e
     d02:	7f af       	std	Y+63, r23	; 0x3f
     d04:	6d 97       	sbiw	r28, 0x1d	; 29
     d06:	a9 a0       	ldd	r10, Y+33	; 0x21
     d08:	ba a0       	ldd	r11, Y+34	; 0x22
     d0a:	cb a0       	ldd	r12, Y+35	; 0x23
     d0c:	dc a0       	ldd	r13, Y+36	; 0x24
     d0e:	6f ef       	ldi	r22, 0xFF	; 255
     d10:	7f ef       	ldi	r23, 0xFF	; 255
     d12:	80 e0       	ldi	r24, 0x00	; 0
     d14:	90 e0       	ldi	r25, 0x00	; 0
     d16:	a6 22       	and	r10, r22
     d18:	b7 22       	and	r11, r23
     d1a:	c8 22       	and	r12, r24
     d1c:	d9 22       	and	r13, r25
     d1e:	89 a1       	ldd	r24, Y+33	; 0x21
     d20:	9a a1       	ldd	r25, Y+34	; 0x22
     d22:	ab a1       	ldd	r26, Y+35	; 0x23
     d24:	bc a1       	ldd	r27, Y+36	; 0x24
     d26:	1d 01       	movw	r2, r26
     d28:	44 24       	eor	r4, r4
     d2a:	55 24       	eor	r5, r5
     d2c:	c8 01       	movw	r24, r16
     d2e:	b7 01       	movw	r22, r14
     d30:	a6 01       	movw	r20, r12
     d32:	95 01       	movw	r18, r10
     d34:	0e 94 49 28 	call	0x5092	; 0x5092 <__mulsi3>
     d38:	69 96       	adiw	r28, 0x19	; 25
     d3a:	6c af       	std	Y+60, r22	; 0x3c
     d3c:	7d af       	std	Y+61, r23	; 0x3d
     d3e:	8e af       	std	Y+62, r24	; 0x3e
     d40:	9f af       	std	Y+63, r25	; 0x3f
     d42:	69 97       	sbiw	r28, 0x19	; 25
     d44:	c8 01       	movw	r24, r16
     d46:	b7 01       	movw	r22, r14
     d48:	a2 01       	movw	r20, r4
     d4a:	91 01       	movw	r18, r2
     d4c:	0e 94 49 28 	call	0x5092	; 0x5092 <__mulsi3>
     d50:	3b 01       	movw	r6, r22
     d52:	4c 01       	movw	r8, r24
     d54:	6d 96       	adiw	r28, 0x1d	; 29
     d56:	6c ad       	ldd	r22, Y+60	; 0x3c
     d58:	7d ad       	ldd	r23, Y+61	; 0x3d
     d5a:	8e ad       	ldd	r24, Y+62	; 0x3e
     d5c:	9f ad       	ldd	r25, Y+63	; 0x3f
     d5e:	6d 97       	sbiw	r28, 0x1d	; 29
     d60:	a6 01       	movw	r20, r12
     d62:	95 01       	movw	r18, r10
     d64:	0e 94 49 28 	call	0x5092	; 0x5092 <__mulsi3>
     d68:	7b 01       	movw	r14, r22
     d6a:	8c 01       	movw	r16, r24
     d6c:	6d 96       	adiw	r28, 0x1d	; 29
     d6e:	6c ad       	ldd	r22, Y+60	; 0x3c
     d70:	7d ad       	ldd	r23, Y+61	; 0x3d
     d72:	8e ad       	ldd	r24, Y+62	; 0x3e
     d74:	9f ad       	ldd	r25, Y+63	; 0x3f
     d76:	6d 97       	sbiw	r28, 0x1d	; 29
     d78:	a2 01       	movw	r20, r4
     d7a:	91 01       	movw	r18, r2
     d7c:	0e 94 49 28 	call	0x5092	; 0x5092 <__mulsi3>
     d80:	5b 01       	movw	r10, r22
     d82:	6c 01       	movw	r12, r24
     d84:	a8 01       	movw	r20, r16
     d86:	97 01       	movw	r18, r14
     d88:	26 0d       	add	r18, r6
     d8a:	37 1d       	adc	r19, r7
     d8c:	48 1d       	adc	r20, r8
     d8e:	59 1d       	adc	r21, r9
     d90:	69 96       	adiw	r28, 0x19	; 25
     d92:	6c ac       	ldd	r6, Y+60	; 0x3c
     d94:	7d ac       	ldd	r7, Y+61	; 0x3d
     d96:	8e ac       	ldd	r8, Y+62	; 0x3e
     d98:	9f ac       	ldd	r9, Y+63	; 0x3f
     d9a:	69 97       	sbiw	r28, 0x19	; 25
     d9c:	c4 01       	movw	r24, r8
     d9e:	aa 27       	eor	r26, r26
     da0:	bb 27       	eor	r27, r27
     da2:	28 0f       	add	r18, r24
     da4:	39 1f       	adc	r19, r25
     da6:	4a 1f       	adc	r20, r26
     da8:	5b 1f       	adc	r21, r27
     daa:	2e 15       	cp	r18, r14
     dac:	3f 05       	cpc	r19, r15
     dae:	40 07       	cpc	r20, r16
     db0:	51 07       	cpc	r21, r17
     db2:	48 f4       	brcc	.+18     	; 0xdc6 <__stack+0x567>
     db4:	e1 2c       	mov	r14, r1
     db6:	f1 2c       	mov	r15, r1
     db8:	61 e0       	ldi	r22, 0x01	; 1
     dba:	06 2f       	mov	r16, r22
     dbc:	11 2d       	mov	r17, r1
     dbe:	ae 0c       	add	r10, r14
     dc0:	bf 1c       	adc	r11, r15
     dc2:	c0 1e       	adc	r12, r16
     dc4:	d1 1e       	adc	r13, r17
     dc6:	ca 01       	movw	r24, r20
     dc8:	aa 27       	eor	r26, r26
     dca:	bb 27       	eor	r27, r27
     dcc:	bc 01       	movw	r22, r24
     dce:	cd 01       	movw	r24, r26
     dd0:	6a 0d       	add	r22, r10
     dd2:	7b 1d       	adc	r23, r11
     dd4:	8c 1d       	adc	r24, r12
     dd6:	9d 1d       	adc	r25, r13
     dd8:	69 8c       	ldd	r6, Y+25	; 0x19
     dda:	7a 8c       	ldd	r7, Y+26	; 0x1a
     ddc:	8b 8c       	ldd	r8, Y+27	; 0x1b
     dde:	9c 8c       	ldd	r9, Y+28	; 0x1c
     de0:	66 16       	cp	r6, r22
     de2:	77 06       	cpc	r7, r23
     de4:	88 06       	cpc	r8, r24
     de6:	99 06       	cpc	r9, r25
     de8:	40 f1       	brcs	.+80     	; 0xe3a <__stack+0x5db>
     dea:	66 15       	cp	r22, r6
     dec:	77 05       	cpc	r23, r7
     dee:	88 05       	cpc	r24, r8
     df0:	99 05       	cpc	r25, r9
     df2:	09 f0       	breq	.+2      	; 0xdf6 <__stack+0x597>
     df4:	43 c0       	rjmp	.+134    	; 0xe7c <__stack+0x61d>
     df6:	d9 01       	movw	r26, r18
     df8:	99 27       	eor	r25, r25
     dfa:	88 27       	eor	r24, r24
     dfc:	69 96       	adiw	r28, 0x19	; 25
     dfe:	2c ad       	ldd	r18, Y+60	; 0x3c
     e00:	3d ad       	ldd	r19, Y+61	; 0x3d
     e02:	4e ad       	ldd	r20, Y+62	; 0x3e
     e04:	5f ad       	ldd	r21, Y+63	; 0x3f
     e06:	69 97       	sbiw	r28, 0x19	; 25
     e08:	40 70       	andi	r20, 0x00	; 0
     e0a:	50 70       	andi	r21, 0x00	; 0
     e0c:	82 0f       	add	r24, r18
     e0e:	93 1f       	adc	r25, r19
     e10:	a4 1f       	adc	r26, r20
     e12:	b5 1f       	adc	r27, r21
     e14:	2d a5       	ldd	r18, Y+45	; 0x2d
     e16:	3e a5       	ldd	r19, Y+46	; 0x2e
     e18:	4f a5       	ldd	r20, Y+47	; 0x2f
     e1a:	58 a9       	ldd	r21, Y+48	; 0x30
     e1c:	6e 96       	adiw	r28, 0x1e	; 30
     e1e:	0f ac       	ldd	r0, Y+63	; 0x3f
     e20:	6e 97       	sbiw	r28, 0x1e	; 30
     e22:	04 c0       	rjmp	.+8      	; 0xe2c <__stack+0x5cd>
     e24:	22 0f       	add	r18, r18
     e26:	33 1f       	adc	r19, r19
     e28:	44 1f       	adc	r20, r20
     e2a:	55 1f       	adc	r21, r21
     e2c:	0a 94       	dec	r0
     e2e:	d2 f7       	brpl	.-12     	; 0xe24 <__stack+0x5c5>
     e30:	28 17       	cp	r18, r24
     e32:	39 07       	cpc	r19, r25
     e34:	4a 07       	cpc	r20, r26
     e36:	5b 07       	cpc	r21, r27
     e38:	08 f5       	brcc	.+66     	; 0xe7c <__stack+0x61d>
     e3a:	09 a9       	ldd	r16, Y+49	; 0x31
     e3c:	1a a9       	ldd	r17, Y+50	; 0x32
     e3e:	2b a9       	ldd	r18, Y+51	; 0x33
     e40:	3c a9       	ldd	r19, Y+52	; 0x34
     e42:	01 50       	subi	r16, 0x01	; 1
     e44:	10 40       	sbci	r17, 0x00	; 0
     e46:	20 40       	sbci	r18, 0x00	; 0
     e48:	30 40       	sbci	r19, 0x00	; 0
     e4a:	09 ab       	std	Y+49, r16	; 0x31
     e4c:	1a ab       	std	Y+50, r17	; 0x32
     e4e:	2b ab       	std	Y+51, r18	; 0x33
     e50:	3c ab       	std	Y+52, r19	; 0x34
     e52:	14 c0       	rjmp	.+40     	; 0xe7c <__stack+0x61d>
     e54:	66 24       	eor	r6, r6
     e56:	77 24       	eor	r7, r7
     e58:	43 01       	movw	r8, r6
     e5a:	21 e0       	ldi	r18, 0x01	; 1
     e5c:	30 e0       	ldi	r19, 0x00	; 0
     e5e:	40 e0       	ldi	r20, 0x00	; 0
     e60:	50 e0       	ldi	r21, 0x00	; 0
     e62:	29 ab       	std	Y+49, r18	; 0x31
     e64:	3a ab       	std	Y+50, r19	; 0x32
     e66:	4b ab       	std	Y+51, r20	; 0x33
     e68:	5c ab       	std	Y+52, r21	; 0x34
     e6a:	0b c0       	rjmp	.+22     	; 0xe82 <__stack+0x623>
     e6c:	66 24       	eor	r6, r6
     e6e:	77 24       	eor	r7, r7
     e70:	43 01       	movw	r8, r6
     e72:	19 aa       	std	Y+49, r1	; 0x31
     e74:	1a aa       	std	Y+50, r1	; 0x32
     e76:	1b aa       	std	Y+51, r1	; 0x33
     e78:	1c aa       	std	Y+52, r1	; 0x34
     e7a:	03 c0       	rjmp	.+6      	; 0xe82 <__stack+0x623>
     e7c:	66 24       	eor	r6, r6
     e7e:	77 24       	eor	r7, r7
     e80:	43 01       	movw	r8, r6
     e82:	fe 01       	movw	r30, r28
     e84:	71 96       	adiw	r30, 0x11	; 17
     e86:	88 e0       	ldi	r24, 0x08	; 8
     e88:	df 01       	movw	r26, r30
     e8a:	1d 92       	st	X+, r1
     e8c:	8a 95       	dec	r24
     e8e:	e9 f7       	brne	.-6      	; 0xe8a <__stack+0x62b>
     e90:	a9 a8       	ldd	r10, Y+49	; 0x31
     e92:	ba a8       	ldd	r11, Y+50	; 0x32
     e94:	cb a8       	ldd	r12, Y+51	; 0x33
     e96:	dc a8       	ldd	r13, Y+52	; 0x34
     e98:	a9 8a       	std	Y+17, r10	; 0x11
     e9a:	ba 8a       	std	Y+18, r11	; 0x12
     e9c:	cb 8a       	std	Y+19, r12	; 0x13
     e9e:	dc 8a       	std	Y+20, r13	; 0x14
     ea0:	6d 8a       	std	Y+21, r6	; 0x15
     ea2:	7e 8a       	std	Y+22, r7	; 0x16
     ea4:	8f 8a       	std	Y+23, r8	; 0x17
     ea6:	98 8e       	std	Y+24, r9	; 0x18
     ea8:	29 a9       	ldd	r18, Y+49	; 0x31
     eaa:	3a 89       	ldd	r19, Y+18	; 0x12
     eac:	4b 89       	ldd	r20, Y+19	; 0x13
     eae:	5c 89       	ldd	r21, Y+20	; 0x14
     eb0:	66 2d       	mov	r22, r6
     eb2:	7e 89       	ldd	r23, Y+22	; 0x16
     eb4:	8f 89       	ldd	r24, Y+23	; 0x17
     eb6:	98 8d       	ldd	r25, Y+24	; 0x18
     eb8:	c2 5a       	subi	r28, 0xA2	; 162
     eba:	df 4f       	sbci	r29, 0xFF	; 255
     ebc:	e2 e1       	ldi	r30, 0x12	; 18
     ebe:	0c 94 a6 28 	jmp	0x514c	; 0x514c <__epilogue_restores__>

00000ec2 <__umoddi3>:
     ec2:	ab e5       	ldi	r26, 0x5B	; 91
     ec4:	b0 e0       	ldi	r27, 0x00	; 0
     ec6:	e7 e6       	ldi	r30, 0x67	; 103
     ec8:	f7 e0       	ldi	r31, 0x07	; 7
     eca:	0c 94 8a 28 	jmp	0x5114	; 0x5114 <__prologue_saves__>
     ece:	a8 e0       	ldi	r26, 0x08	; 8
     ed0:	4e 01       	movw	r8, r28
     ed2:	08 94       	sec
     ed4:	81 1c       	adc	r8, r1
     ed6:	91 1c       	adc	r9, r1
     ed8:	f4 01       	movw	r30, r8
     eda:	6a 2e       	mov	r6, r26
     edc:	11 92       	st	Z+, r1
     ede:	6a 94       	dec	r6
     ee0:	e9 f7       	brne	.-6      	; 0xedc <__umoddi3+0x1a>
     ee2:	29 83       	std	Y+1, r18	; 0x01
     ee4:	3a 83       	std	Y+2, r19	; 0x02
     ee6:	4b 83       	std	Y+3, r20	; 0x03
     ee8:	5c 83       	std	Y+4, r21	; 0x04
     eea:	6d 83       	std	Y+5, r22	; 0x05
     eec:	7e 83       	std	Y+6, r23	; 0x06
     eee:	8f 83       	std	Y+7, r24	; 0x07
     ef0:	98 87       	std	Y+8, r25	; 0x08
     ef2:	ce 01       	movw	r24, r28
     ef4:	09 96       	adiw	r24, 0x09	; 9
     ef6:	fc 01       	movw	r30, r24
     ef8:	11 92       	st	Z+, r1
     efa:	aa 95       	dec	r26
     efc:	e9 f7       	brne	.-6      	; 0xef8 <__umoddi3+0x36>
     efe:	a9 86       	std	Y+9, r10	; 0x09
     f00:	ba 86       	std	Y+10, r11	; 0x0a
     f02:	cb 86       	std	Y+11, r12	; 0x0b
     f04:	dc 86       	std	Y+12, r13	; 0x0c
     f06:	ed 86       	std	Y+13, r14	; 0x0d
     f08:	fe 86       	std	Y+14, r15	; 0x0e
     f0a:	0f 87       	std	Y+15, r16	; 0x0f
     f0c:	18 8b       	std	Y+16, r17	; 0x10
     f0e:	29 84       	ldd	r2, Y+9	; 0x09
     f10:	3a 84       	ldd	r3, Y+10	; 0x0a
     f12:	4b 84       	ldd	r4, Y+11	; 0x0b
     f14:	5c 84       	ldd	r5, Y+12	; 0x0c
     f16:	ad 84       	ldd	r10, Y+13	; 0x0d
     f18:	be 84       	ldd	r11, Y+14	; 0x0e
     f1a:	cf 84       	ldd	r12, Y+15	; 0x0f
     f1c:	d8 88       	ldd	r13, Y+16	; 0x10
     f1e:	29 81       	ldd	r18, Y+1	; 0x01
     f20:	3a 81       	ldd	r19, Y+2	; 0x02
     f22:	4b 81       	ldd	r20, Y+3	; 0x03
     f24:	5c 81       	ldd	r21, Y+4	; 0x04
     f26:	69 96       	adiw	r28, 0x19	; 25
     f28:	2f af       	std	Y+63, r18	; 0x3f
     f2a:	69 97       	sbiw	r28, 0x19	; 25
     f2c:	6a 96       	adiw	r28, 0x1a	; 26
     f2e:	3f af       	std	Y+63, r19	; 0x3f
     f30:	6a 97       	sbiw	r28, 0x1a	; 26
     f32:	6b 96       	adiw	r28, 0x1b	; 27
     f34:	4f af       	std	Y+63, r20	; 0x3f
     f36:	6b 97       	sbiw	r28, 0x1b	; 27
     f38:	6c 96       	adiw	r28, 0x1c	; 28
     f3a:	5f af       	std	Y+63, r21	; 0x3f
     f3c:	6c 97       	sbiw	r28, 0x1c	; 28
     f3e:	6c 96       	adiw	r28, 0x1c	; 28
     f40:	6c ac       	ldd	r6, Y+60	; 0x3c
     f42:	7d ac       	ldd	r7, Y+61	; 0x3d
     f44:	8e ac       	ldd	r8, Y+62	; 0x3e
     f46:	9f ac       	ldd	r9, Y+63	; 0x3f
     f48:	6c 97       	sbiw	r28, 0x1c	; 28
     f4a:	69 aa       	std	Y+49, r6	; 0x31
     f4c:	7a aa       	std	Y+50, r7	; 0x32
     f4e:	8b aa       	std	Y+51, r8	; 0x33
     f50:	9c aa       	std	Y+52, r9	; 0x34
     f52:	6d 81       	ldd	r22, Y+5	; 0x05
     f54:	7e 81       	ldd	r23, Y+6	; 0x06
     f56:	8f 81       	ldd	r24, Y+7	; 0x07
     f58:	98 85       	ldd	r25, Y+8	; 0x08
     f5a:	3b 01       	movw	r6, r22
     f5c:	4c 01       	movw	r8, r24
     f5e:	6d aa       	std	Y+53, r6	; 0x35
     f60:	7e aa       	std	Y+54, r7	; 0x36
     f62:	8f aa       	std	Y+55, r8	; 0x37
     f64:	98 ae       	std	Y+56, r9	; 0x38
     f66:	a1 14       	cp	r10, r1
     f68:	b1 04       	cpc	r11, r1
     f6a:	c1 04       	cpc	r12, r1
     f6c:	d1 04       	cpc	r13, r1
     f6e:	09 f0       	breq	.+2      	; 0xf72 <__umoddi3+0xb0>
     f70:	04 c3       	rjmp	.+1544   	; 0x157a <__umoddi3+0x6b8>
     f72:	62 14       	cp	r6, r2
     f74:	73 04       	cpc	r7, r3
     f76:	84 04       	cpc	r8, r4
     f78:	95 04       	cpc	r9, r5
     f7a:	08 f0       	brcs	.+2      	; 0xf7e <__umoddi3+0xbc>
     f7c:	00 c1       	rjmp	.+512    	; 0x117e <__umoddi3+0x2bc>
     f7e:	00 e0       	ldi	r16, 0x00	; 0
     f80:	20 16       	cp	r2, r16
     f82:	00 e0       	ldi	r16, 0x00	; 0
     f84:	30 06       	cpc	r3, r16
     f86:	01 e0       	ldi	r16, 0x01	; 1
     f88:	40 06       	cpc	r4, r16
     f8a:	00 e0       	ldi	r16, 0x00	; 0
     f8c:	50 06       	cpc	r5, r16
     f8e:	88 f4       	brcc	.+34     	; 0xfb2 <__umoddi3+0xf0>
     f90:	1f ef       	ldi	r17, 0xFF	; 255
     f92:	21 16       	cp	r2, r17
     f94:	31 04       	cpc	r3, r1
     f96:	41 04       	cpc	r4, r1
     f98:	51 04       	cpc	r5, r1
     f9a:	39 f0       	breq	.+14     	; 0xfaa <__umoddi3+0xe8>
     f9c:	30 f0       	brcs	.+12     	; 0xfaa <__umoddi3+0xe8>
     f9e:	88 e0       	ldi	r24, 0x08	; 8
     fa0:	e8 2e       	mov	r14, r24
     fa2:	f1 2c       	mov	r15, r1
     fa4:	01 2d       	mov	r16, r1
     fa6:	11 2d       	mov	r17, r1
     fa8:	18 c0       	rjmp	.+48     	; 0xfda <__umoddi3+0x118>
     faa:	ee 24       	eor	r14, r14
     fac:	ff 24       	eor	r15, r15
     fae:	87 01       	movw	r16, r14
     fb0:	14 c0       	rjmp	.+40     	; 0xfda <__umoddi3+0x118>
     fb2:	40 e0       	ldi	r20, 0x00	; 0
     fb4:	24 16       	cp	r2, r20
     fb6:	40 e0       	ldi	r20, 0x00	; 0
     fb8:	34 06       	cpc	r3, r20
     fba:	40 e0       	ldi	r20, 0x00	; 0
     fbc:	44 06       	cpc	r4, r20
     fbe:	41 e0       	ldi	r20, 0x01	; 1
     fc0:	54 06       	cpc	r5, r20
     fc2:	30 f0       	brcs	.+12     	; 0xfd0 <__umoddi3+0x10e>
     fc4:	b8 e1       	ldi	r27, 0x18	; 24
     fc6:	eb 2e       	mov	r14, r27
     fc8:	f1 2c       	mov	r15, r1
     fca:	01 2d       	mov	r16, r1
     fcc:	11 2d       	mov	r17, r1
     fce:	05 c0       	rjmp	.+10     	; 0xfda <__umoddi3+0x118>
     fd0:	a0 e1       	ldi	r26, 0x10	; 16
     fd2:	ea 2e       	mov	r14, r26
     fd4:	f1 2c       	mov	r15, r1
     fd6:	01 2d       	mov	r16, r1
     fd8:	11 2d       	mov	r17, r1
     fda:	d2 01       	movw	r26, r4
     fdc:	c1 01       	movw	r24, r2
     fde:	0e 2c       	mov	r0, r14
     fe0:	04 c0       	rjmp	.+8      	; 0xfea <__umoddi3+0x128>
     fe2:	b6 95       	lsr	r27
     fe4:	a7 95       	ror	r26
     fe6:	97 95       	ror	r25
     fe8:	87 95       	ror	r24
     fea:	0a 94       	dec	r0
     fec:	d2 f7       	brpl	.-12     	; 0xfe2 <__umoddi3+0x120>
     fee:	82 53       	subi	r24, 0x32	; 50
     ff0:	9f 4f       	sbci	r25, 0xFF	; 255
     ff2:	dc 01       	movw	r26, r24
     ff4:	2c 91       	ld	r18, X
     ff6:	80 e2       	ldi	r24, 0x20	; 32
     ff8:	90 e0       	ldi	r25, 0x00	; 0
     ffa:	a0 e0       	ldi	r26, 0x00	; 0
     ffc:	b0 e0       	ldi	r27, 0x00	; 0
     ffe:	8e 19       	sub	r24, r14
    1000:	9f 09       	sbc	r25, r15
    1002:	a0 0b       	sbc	r26, r16
    1004:	b1 0b       	sbc	r27, r17
    1006:	5c 01       	movw	r10, r24
    1008:	6d 01       	movw	r12, r26
    100a:	a2 1a       	sub	r10, r18
    100c:	b1 08       	sbc	r11, r1
    100e:	c1 08       	sbc	r12, r1
    1010:	d1 08       	sbc	r13, r1
    1012:	a9 ae       	std	Y+57, r10	; 0x39
    1014:	ba ae       	std	Y+58, r11	; 0x3a
    1016:	cb ae       	std	Y+59, r12	; 0x3b
    1018:	dc ae       	std	Y+60, r13	; 0x3c
    101a:	a1 14       	cp	r10, r1
    101c:	b1 04       	cpc	r11, r1
    101e:	c1 04       	cpc	r12, r1
    1020:	d1 04       	cpc	r13, r1
    1022:	09 f4       	brne	.+2      	; 0x1026 <__umoddi3+0x164>
    1024:	3f c0       	rjmp	.+126    	; 0x10a4 <__umoddi3+0x1e2>
    1026:	69 ad       	ldd	r22, Y+57	; 0x39
    1028:	06 2e       	mov	r0, r22
    102a:	04 c0       	rjmp	.+8      	; 0x1034 <__umoddi3+0x172>
    102c:	22 0c       	add	r2, r2
    102e:	33 1c       	adc	r3, r3
    1030:	44 1c       	adc	r4, r4
    1032:	55 1c       	adc	r5, r5
    1034:	0a 94       	dec	r0
    1036:	d2 f7       	brpl	.-12     	; 0x102c <__umoddi3+0x16a>
    1038:	a4 01       	movw	r20, r8
    103a:	93 01       	movw	r18, r6
    103c:	06 2e       	mov	r0, r22
    103e:	04 c0       	rjmp	.+8      	; 0x1048 <__umoddi3+0x186>
    1040:	22 0f       	add	r18, r18
    1042:	33 1f       	adc	r19, r19
    1044:	44 1f       	adc	r20, r20
    1046:	55 1f       	adc	r21, r21
    1048:	0a 94       	dec	r0
    104a:	d2 f7       	brpl	.-12     	; 0x1040 <__umoddi3+0x17e>
    104c:	80 e2       	ldi	r24, 0x20	; 32
    104e:	90 e0       	ldi	r25, 0x00	; 0
    1050:	8a 19       	sub	r24, r10
    1052:	9b 09       	sbc	r25, r11
    1054:	6c 96       	adiw	r28, 0x1c	; 28
    1056:	cc ac       	ldd	r12, Y+60	; 0x3c
    1058:	dd ac       	ldd	r13, Y+61	; 0x3d
    105a:	ee ac       	ldd	r14, Y+62	; 0x3e
    105c:	ff ac       	ldd	r15, Y+63	; 0x3f
    105e:	6c 97       	sbiw	r28, 0x1c	; 28
    1060:	04 c0       	rjmp	.+8      	; 0x106a <__umoddi3+0x1a8>
    1062:	f6 94       	lsr	r15
    1064:	e7 94       	ror	r14
    1066:	d7 94       	ror	r13
    1068:	c7 94       	ror	r12
    106a:	8a 95       	dec	r24
    106c:	d2 f7       	brpl	.-12     	; 0x1062 <__umoddi3+0x1a0>
    106e:	87 01       	movw	r16, r14
    1070:	76 01       	movw	r14, r12
    1072:	e2 2a       	or	r14, r18
    1074:	f3 2a       	or	r15, r19
    1076:	04 2b       	or	r16, r20
    1078:	15 2b       	or	r17, r21
    107a:	ed aa       	std	Y+53, r14	; 0x35
    107c:	fe aa       	std	Y+54, r15	; 0x36
    107e:	0f ab       	std	Y+55, r16	; 0x37
    1080:	18 af       	std	Y+56, r17	; 0x38
    1082:	6c 96       	adiw	r28, 0x1c	; 28
    1084:	8c ad       	ldd	r24, Y+60	; 0x3c
    1086:	9d ad       	ldd	r25, Y+61	; 0x3d
    1088:	ae ad       	ldd	r26, Y+62	; 0x3e
    108a:	bf ad       	ldd	r27, Y+63	; 0x3f
    108c:	6c 97       	sbiw	r28, 0x1c	; 28
    108e:	04 c0       	rjmp	.+8      	; 0x1098 <__umoddi3+0x1d6>
    1090:	88 0f       	add	r24, r24
    1092:	99 1f       	adc	r25, r25
    1094:	aa 1f       	adc	r26, r26
    1096:	bb 1f       	adc	r27, r27
    1098:	6a 95       	dec	r22
    109a:	d2 f7       	brpl	.-12     	; 0x1090 <__umoddi3+0x1ce>
    109c:	89 ab       	std	Y+49, r24	; 0x31
    109e:	9a ab       	std	Y+50, r25	; 0x32
    10a0:	ab ab       	std	Y+51, r26	; 0x33
    10a2:	bc ab       	std	Y+52, r27	; 0x34
    10a4:	32 01       	movw	r6, r4
    10a6:	88 24       	eor	r8, r8
    10a8:	99 24       	eor	r9, r9
    10aa:	b2 01       	movw	r22, r4
    10ac:	a1 01       	movw	r20, r2
    10ae:	60 70       	andi	r22, 0x00	; 0
    10b0:	70 70       	andi	r23, 0x00	; 0
    10b2:	21 96       	adiw	r28, 0x01	; 1
    10b4:	4c af       	std	Y+60, r20	; 0x3c
    10b6:	5d af       	std	Y+61, r21	; 0x3d
    10b8:	6e af       	std	Y+62, r22	; 0x3e
    10ba:	7f af       	std	Y+63, r23	; 0x3f
    10bc:	21 97       	sbiw	r28, 0x01	; 1
    10be:	6d a9       	ldd	r22, Y+53	; 0x35
    10c0:	7e a9       	ldd	r23, Y+54	; 0x36
    10c2:	8f a9       	ldd	r24, Y+55	; 0x37
    10c4:	98 ad       	ldd	r25, Y+56	; 0x38
    10c6:	a4 01       	movw	r20, r8
    10c8:	93 01       	movw	r18, r6
    10ca:	0e 94 68 28 	call	0x50d0	; 0x50d0 <__udivmodsi4>
    10ce:	7b 01       	movw	r14, r22
    10d0:	8c 01       	movw	r16, r24
    10d2:	6d a9       	ldd	r22, Y+53	; 0x35
    10d4:	7e a9       	ldd	r23, Y+54	; 0x36
    10d6:	8f a9       	ldd	r24, Y+55	; 0x37
    10d8:	98 ad       	ldd	r25, Y+56	; 0x38
    10da:	a4 01       	movw	r20, r8
    10dc:	93 01       	movw	r18, r6
    10de:	0e 94 68 28 	call	0x50d0	; 0x50d0 <__udivmodsi4>
    10e2:	ca 01       	movw	r24, r20
    10e4:	b9 01       	movw	r22, r18
    10e6:	21 96       	adiw	r28, 0x01	; 1
    10e8:	2c ad       	ldd	r18, Y+60	; 0x3c
    10ea:	3d ad       	ldd	r19, Y+61	; 0x3d
    10ec:	4e ad       	ldd	r20, Y+62	; 0x3e
    10ee:	5f ad       	ldd	r21, Y+63	; 0x3f
    10f0:	21 97       	sbiw	r28, 0x01	; 1
    10f2:	0e 94 49 28 	call	0x5092	; 0x5092 <__mulsi3>
    10f6:	9b 01       	movw	r18, r22
    10f8:	ac 01       	movw	r20, r24
    10fa:	87 01       	movw	r16, r14
    10fc:	ff 24       	eor	r15, r15
    10fe:	ee 24       	eor	r14, r14
    1100:	a9 a8       	ldd	r10, Y+49	; 0x31
    1102:	ba a8       	ldd	r11, Y+50	; 0x32
    1104:	cb a8       	ldd	r12, Y+51	; 0x33
    1106:	dc a8       	ldd	r13, Y+52	; 0x34
    1108:	c6 01       	movw	r24, r12
    110a:	aa 27       	eor	r26, r26
    110c:	bb 27       	eor	r27, r27
    110e:	57 01       	movw	r10, r14
    1110:	68 01       	movw	r12, r16
    1112:	a8 2a       	or	r10, r24
    1114:	b9 2a       	or	r11, r25
    1116:	ca 2a       	or	r12, r26
    1118:	db 2a       	or	r13, r27
    111a:	a2 16       	cp	r10, r18
    111c:	b3 06       	cpc	r11, r19
    111e:	c4 06       	cpc	r12, r20
    1120:	d5 06       	cpc	r13, r21
    1122:	90 f4       	brcc	.+36     	; 0x1148 <__umoddi3+0x286>
    1124:	a2 0c       	add	r10, r2
    1126:	b3 1c       	adc	r11, r3
    1128:	c4 1c       	adc	r12, r4
    112a:	d5 1c       	adc	r13, r5
    112c:	a2 14       	cp	r10, r2
    112e:	b3 04       	cpc	r11, r3
    1130:	c4 04       	cpc	r12, r4
    1132:	d5 04       	cpc	r13, r5
    1134:	48 f0       	brcs	.+18     	; 0x1148 <__umoddi3+0x286>
    1136:	a2 16       	cp	r10, r18
    1138:	b3 06       	cpc	r11, r19
    113a:	c4 06       	cpc	r12, r20
    113c:	d5 06       	cpc	r13, r21
    113e:	20 f4       	brcc	.+8      	; 0x1148 <__umoddi3+0x286>
    1140:	a2 0c       	add	r10, r2
    1142:	b3 1c       	adc	r11, r3
    1144:	c4 1c       	adc	r12, r4
    1146:	d5 1c       	adc	r13, r5
    1148:	a2 1a       	sub	r10, r18
    114a:	b3 0a       	sbc	r11, r19
    114c:	c4 0a       	sbc	r12, r20
    114e:	d5 0a       	sbc	r13, r21
    1150:	c6 01       	movw	r24, r12
    1152:	b5 01       	movw	r22, r10
    1154:	a4 01       	movw	r20, r8
    1156:	93 01       	movw	r18, r6
    1158:	0e 94 68 28 	call	0x50d0	; 0x50d0 <__udivmodsi4>
    115c:	7b 01       	movw	r14, r22
    115e:	8c 01       	movw	r16, r24
    1160:	c6 01       	movw	r24, r12
    1162:	b5 01       	movw	r22, r10
    1164:	a4 01       	movw	r20, r8
    1166:	93 01       	movw	r18, r6
    1168:	0e 94 68 28 	call	0x50d0	; 0x50d0 <__udivmodsi4>
    116c:	ca 01       	movw	r24, r20
    116e:	b9 01       	movw	r22, r18
    1170:	21 96       	adiw	r28, 0x01	; 1
    1172:	2c ad       	ldd	r18, Y+60	; 0x3c
    1174:	3d ad       	ldd	r19, Y+61	; 0x3d
    1176:	4e ad       	ldd	r20, Y+62	; 0x3e
    1178:	5f ad       	ldd	r21, Y+63	; 0x3f
    117a:	21 97       	sbiw	r28, 0x01	; 1
    117c:	ba c1       	rjmp	.+884    	; 0x14f2 <__umoddi3+0x630>
    117e:	21 14       	cp	r2, r1
    1180:	31 04       	cpc	r3, r1
    1182:	41 04       	cpc	r4, r1
    1184:	51 04       	cpc	r5, r1
    1186:	71 f4       	brne	.+28     	; 0x11a4 <__umoddi3+0x2e2>
    1188:	61 e0       	ldi	r22, 0x01	; 1
    118a:	70 e0       	ldi	r23, 0x00	; 0
    118c:	80 e0       	ldi	r24, 0x00	; 0
    118e:	90 e0       	ldi	r25, 0x00	; 0
    1190:	20 e0       	ldi	r18, 0x00	; 0
    1192:	30 e0       	ldi	r19, 0x00	; 0
    1194:	40 e0       	ldi	r20, 0x00	; 0
    1196:	50 e0       	ldi	r21, 0x00	; 0
    1198:	0e 94 68 28 	call	0x50d0	; 0x50d0 <__udivmodsi4>
    119c:	c9 01       	movw	r24, r18
    119e:	da 01       	movw	r26, r20
    11a0:	1c 01       	movw	r2, r24
    11a2:	2d 01       	movw	r4, r26
    11a4:	00 e0       	ldi	r16, 0x00	; 0
    11a6:	20 16       	cp	r2, r16
    11a8:	00 e0       	ldi	r16, 0x00	; 0
    11aa:	30 06       	cpc	r3, r16
    11ac:	01 e0       	ldi	r16, 0x01	; 1
    11ae:	40 06       	cpc	r4, r16
    11b0:	00 e0       	ldi	r16, 0x00	; 0
    11b2:	50 06       	cpc	r5, r16
    11b4:	88 f4       	brcc	.+34     	; 0x11d8 <__umoddi3+0x316>
    11b6:	1f ef       	ldi	r17, 0xFF	; 255
    11b8:	21 16       	cp	r2, r17
    11ba:	31 04       	cpc	r3, r1
    11bc:	41 04       	cpc	r4, r1
    11be:	51 04       	cpc	r5, r1
    11c0:	39 f0       	breq	.+14     	; 0x11d0 <__umoddi3+0x30e>
    11c2:	30 f0       	brcs	.+12     	; 0x11d0 <__umoddi3+0x30e>
    11c4:	68 e0       	ldi	r22, 0x08	; 8
    11c6:	e6 2e       	mov	r14, r22
    11c8:	f1 2c       	mov	r15, r1
    11ca:	01 2d       	mov	r16, r1
    11cc:	11 2d       	mov	r17, r1
    11ce:	18 c0       	rjmp	.+48     	; 0x1200 <__umoddi3+0x33e>
    11d0:	ee 24       	eor	r14, r14
    11d2:	ff 24       	eor	r15, r15
    11d4:	87 01       	movw	r16, r14
    11d6:	14 c0       	rjmp	.+40     	; 0x1200 <__umoddi3+0x33e>
    11d8:	40 e0       	ldi	r20, 0x00	; 0
    11da:	24 16       	cp	r2, r20
    11dc:	40 e0       	ldi	r20, 0x00	; 0
    11de:	34 06       	cpc	r3, r20
    11e0:	40 e0       	ldi	r20, 0x00	; 0
    11e2:	44 06       	cpc	r4, r20
    11e4:	41 e0       	ldi	r20, 0x01	; 1
    11e6:	54 06       	cpc	r5, r20
    11e8:	30 f0       	brcs	.+12     	; 0x11f6 <__umoddi3+0x334>
    11ea:	58 e1       	ldi	r21, 0x18	; 24
    11ec:	e5 2e       	mov	r14, r21
    11ee:	f1 2c       	mov	r15, r1
    11f0:	01 2d       	mov	r16, r1
    11f2:	11 2d       	mov	r17, r1
    11f4:	05 c0       	rjmp	.+10     	; 0x1200 <__umoddi3+0x33e>
    11f6:	40 e1       	ldi	r20, 0x10	; 16
    11f8:	e4 2e       	mov	r14, r20
    11fa:	f1 2c       	mov	r15, r1
    11fc:	01 2d       	mov	r16, r1
    11fe:	11 2d       	mov	r17, r1
    1200:	d2 01       	movw	r26, r4
    1202:	c1 01       	movw	r24, r2
    1204:	0e 2c       	mov	r0, r14
    1206:	04 c0       	rjmp	.+8      	; 0x1210 <__umoddi3+0x34e>
    1208:	b6 95       	lsr	r27
    120a:	a7 95       	ror	r26
    120c:	97 95       	ror	r25
    120e:	87 95       	ror	r24
    1210:	0a 94       	dec	r0
    1212:	d2 f7       	brpl	.-12     	; 0x1208 <__umoddi3+0x346>
    1214:	82 53       	subi	r24, 0x32	; 50
    1216:	9f 4f       	sbci	r25, 0xFF	; 255
    1218:	dc 01       	movw	r26, r24
    121a:	2c 91       	ld	r18, X
    121c:	30 e2       	ldi	r19, 0x20	; 32
    121e:	a3 2e       	mov	r10, r19
    1220:	b1 2c       	mov	r11, r1
    1222:	c1 2c       	mov	r12, r1
    1224:	d1 2c       	mov	r13, r1
    1226:	d6 01       	movw	r26, r12
    1228:	c5 01       	movw	r24, r10
    122a:	8e 19       	sub	r24, r14
    122c:	9f 09       	sbc	r25, r15
    122e:	a0 0b       	sbc	r26, r16
    1230:	b1 0b       	sbc	r27, r17
    1232:	7c 01       	movw	r14, r24
    1234:	8d 01       	movw	r16, r26
    1236:	e2 1a       	sub	r14, r18
    1238:	f1 08       	sbc	r15, r1
    123a:	01 09       	sbc	r16, r1
    123c:	11 09       	sbc	r17, r1
    123e:	e9 ae       	std	Y+57, r14	; 0x39
    1240:	fa ae       	std	Y+58, r15	; 0x3a
    1242:	0b af       	std	Y+59, r16	; 0x3b
    1244:	1c af       	std	Y+60, r17	; 0x3c
    1246:	e1 14       	cp	r14, r1
    1248:	f1 04       	cpc	r15, r1
    124a:	01 05       	cpc	r16, r1
    124c:	11 05       	cpc	r17, r1
    124e:	39 f4       	brne	.+14     	; 0x125e <__umoddi3+0x39c>
    1250:	64 01       	movw	r12, r8
    1252:	53 01       	movw	r10, r6
    1254:	a2 18       	sub	r10, r2
    1256:	b3 08       	sbc	r11, r3
    1258:	c4 08       	sbc	r12, r4
    125a:	d5 08       	sbc	r13, r5
    125c:	e2 c0       	rjmp	.+452    	; 0x1422 <__umoddi3+0x560>
    125e:	f9 ac       	ldd	r15, Y+57	; 0x39
    1260:	68 96       	adiw	r28, 0x18	; 24
    1262:	ff ae       	std	Y+63, r15	; 0x3f
    1264:	68 97       	sbiw	r28, 0x18	; 24
    1266:	0f 2c       	mov	r0, r15
    1268:	04 c0       	rjmp	.+8      	; 0x1272 <__umoddi3+0x3b0>
    126a:	22 0c       	add	r2, r2
    126c:	33 1c       	adc	r3, r3
    126e:	44 1c       	adc	r4, r4
    1270:	55 1c       	adc	r5, r5
    1272:	0a 94       	dec	r0
    1274:	d2 f7       	brpl	.-12     	; 0x126a <__umoddi3+0x3a8>
    1276:	8a 2d       	mov	r24, r10
    1278:	8f 19       	sub	r24, r15
    127a:	64 01       	movw	r12, r8
    127c:	53 01       	movw	r10, r6
    127e:	08 2e       	mov	r0, r24
    1280:	04 c0       	rjmp	.+8      	; 0x128a <__umoddi3+0x3c8>
    1282:	d6 94       	lsr	r13
    1284:	c7 94       	ror	r12
    1286:	b7 94       	ror	r11
    1288:	a7 94       	ror	r10
    128a:	0a 94       	dec	r0
    128c:	d2 f7       	brpl	.-12     	; 0x1282 <__umoddi3+0x3c0>
    128e:	a4 01       	movw	r20, r8
    1290:	93 01       	movw	r18, r6
    1292:	04 c0       	rjmp	.+8      	; 0x129c <__umoddi3+0x3da>
    1294:	22 0f       	add	r18, r18
    1296:	33 1f       	adc	r19, r19
    1298:	44 1f       	adc	r20, r20
    129a:	55 1f       	adc	r21, r21
    129c:	fa 94       	dec	r15
    129e:	d2 f7       	brpl	.-12     	; 0x1294 <__umoddi3+0x3d2>
    12a0:	6c 96       	adiw	r28, 0x1c	; 28
    12a2:	6c ac       	ldd	r6, Y+60	; 0x3c
    12a4:	7d ac       	ldd	r7, Y+61	; 0x3d
    12a6:	8e ac       	ldd	r8, Y+62	; 0x3e
    12a8:	9f ac       	ldd	r9, Y+63	; 0x3f
    12aa:	6c 97       	sbiw	r28, 0x1c	; 28
    12ac:	04 c0       	rjmp	.+8      	; 0x12b6 <__umoddi3+0x3f4>
    12ae:	96 94       	lsr	r9
    12b0:	87 94       	ror	r8
    12b2:	77 94       	ror	r7
    12b4:	67 94       	ror	r6
    12b6:	8a 95       	dec	r24
    12b8:	d2 f7       	brpl	.-12     	; 0x12ae <__umoddi3+0x3ec>
    12ba:	84 01       	movw	r16, r8
    12bc:	73 01       	movw	r14, r6
    12be:	e2 2a       	or	r14, r18
    12c0:	f3 2a       	or	r15, r19
    12c2:	04 2b       	or	r16, r20
    12c4:	15 2b       	or	r17, r21
    12c6:	ed a6       	std	Y+45, r14	; 0x2d
    12c8:	fe a6       	std	Y+46, r15	; 0x2e
    12ca:	0f a7       	std	Y+47, r16	; 0x2f
    12cc:	18 ab       	std	Y+48, r17	; 0x30
    12ce:	32 01       	movw	r6, r4
    12d0:	88 24       	eor	r8, r8
    12d2:	99 24       	eor	r9, r9
    12d4:	b2 01       	movw	r22, r4
    12d6:	a1 01       	movw	r20, r2
    12d8:	60 70       	andi	r22, 0x00	; 0
    12da:	70 70       	andi	r23, 0x00	; 0
    12dc:	25 96       	adiw	r28, 0x05	; 5
    12de:	4c af       	std	Y+60, r20	; 0x3c
    12e0:	5d af       	std	Y+61, r21	; 0x3d
    12e2:	6e af       	std	Y+62, r22	; 0x3e
    12e4:	7f af       	std	Y+63, r23	; 0x3f
    12e6:	25 97       	sbiw	r28, 0x05	; 5
    12e8:	c6 01       	movw	r24, r12
    12ea:	b5 01       	movw	r22, r10
    12ec:	a4 01       	movw	r20, r8
    12ee:	93 01       	movw	r18, r6
    12f0:	0e 94 68 28 	call	0x50d0	; 0x50d0 <__udivmodsi4>
    12f4:	7b 01       	movw	r14, r22
    12f6:	8c 01       	movw	r16, r24
    12f8:	c6 01       	movw	r24, r12
    12fa:	b5 01       	movw	r22, r10
    12fc:	a4 01       	movw	r20, r8
    12fe:	93 01       	movw	r18, r6
    1300:	0e 94 68 28 	call	0x50d0	; 0x50d0 <__udivmodsi4>
    1304:	ca 01       	movw	r24, r20
    1306:	b9 01       	movw	r22, r18
    1308:	25 96       	adiw	r28, 0x05	; 5
    130a:	2c ad       	ldd	r18, Y+60	; 0x3c
    130c:	3d ad       	ldd	r19, Y+61	; 0x3d
    130e:	4e ad       	ldd	r20, Y+62	; 0x3e
    1310:	5f ad       	ldd	r21, Y+63	; 0x3f
    1312:	25 97       	sbiw	r28, 0x05	; 5
    1314:	0e 94 49 28 	call	0x5092	; 0x5092 <__mulsi3>
    1318:	9b 01       	movw	r18, r22
    131a:	ac 01       	movw	r20, r24
    131c:	87 01       	movw	r16, r14
    131e:	ff 24       	eor	r15, r15
    1320:	ee 24       	eor	r14, r14
    1322:	ad a4       	ldd	r10, Y+45	; 0x2d
    1324:	be a4       	ldd	r11, Y+46	; 0x2e
    1326:	cf a4       	ldd	r12, Y+47	; 0x2f
    1328:	d8 a8       	ldd	r13, Y+48	; 0x30
    132a:	c6 01       	movw	r24, r12
    132c:	aa 27       	eor	r26, r26
    132e:	bb 27       	eor	r27, r27
    1330:	5c 01       	movw	r10, r24
    1332:	6d 01       	movw	r12, r26
    1334:	ae 28       	or	r10, r14
    1336:	bf 28       	or	r11, r15
    1338:	c0 2a       	or	r12, r16
    133a:	d1 2a       	or	r13, r17
    133c:	a2 16       	cp	r10, r18
    133e:	b3 06       	cpc	r11, r19
    1340:	c4 06       	cpc	r12, r20
    1342:	d5 06       	cpc	r13, r21
    1344:	90 f4       	brcc	.+36     	; 0x136a <__umoddi3+0x4a8>
    1346:	a2 0c       	add	r10, r2
    1348:	b3 1c       	adc	r11, r3
    134a:	c4 1c       	adc	r12, r4
    134c:	d5 1c       	adc	r13, r5
    134e:	a2 14       	cp	r10, r2
    1350:	b3 04       	cpc	r11, r3
    1352:	c4 04       	cpc	r12, r4
    1354:	d5 04       	cpc	r13, r5
    1356:	48 f0       	brcs	.+18     	; 0x136a <__umoddi3+0x4a8>
    1358:	a2 16       	cp	r10, r18
    135a:	b3 06       	cpc	r11, r19
    135c:	c4 06       	cpc	r12, r20
    135e:	d5 06       	cpc	r13, r21
    1360:	20 f4       	brcc	.+8      	; 0x136a <__umoddi3+0x4a8>
    1362:	a2 0c       	add	r10, r2
    1364:	b3 1c       	adc	r11, r3
    1366:	c4 1c       	adc	r12, r4
    1368:	d5 1c       	adc	r13, r5
    136a:	a2 1a       	sub	r10, r18
    136c:	b3 0a       	sbc	r11, r19
    136e:	c4 0a       	sbc	r12, r20
    1370:	d5 0a       	sbc	r13, r21
    1372:	c6 01       	movw	r24, r12
    1374:	b5 01       	movw	r22, r10
    1376:	a4 01       	movw	r20, r8
    1378:	93 01       	movw	r18, r6
    137a:	0e 94 68 28 	call	0x50d0	; 0x50d0 <__udivmodsi4>
    137e:	7b 01       	movw	r14, r22
    1380:	8c 01       	movw	r16, r24
    1382:	c6 01       	movw	r24, r12
    1384:	b5 01       	movw	r22, r10
    1386:	a4 01       	movw	r20, r8
    1388:	93 01       	movw	r18, r6
    138a:	0e 94 68 28 	call	0x50d0	; 0x50d0 <__udivmodsi4>
    138e:	ca 01       	movw	r24, r20
    1390:	b9 01       	movw	r22, r18
    1392:	25 96       	adiw	r28, 0x05	; 5
    1394:	2c ad       	ldd	r18, Y+60	; 0x3c
    1396:	3d ad       	ldd	r19, Y+61	; 0x3d
    1398:	4e ad       	ldd	r20, Y+62	; 0x3e
    139a:	5f ad       	ldd	r21, Y+63	; 0x3f
    139c:	25 97       	sbiw	r28, 0x05	; 5
    139e:	0e 94 49 28 	call	0x5092	; 0x5092 <__mulsi3>
    13a2:	9b 01       	movw	r18, r22
    13a4:	ac 01       	movw	r20, r24
    13a6:	87 01       	movw	r16, r14
    13a8:	ff 24       	eor	r15, r15
    13aa:	ee 24       	eor	r14, r14
    13ac:	8d a5       	ldd	r24, Y+45	; 0x2d
    13ae:	9e a5       	ldd	r25, Y+46	; 0x2e
    13b0:	af a5       	ldd	r26, Y+47	; 0x2f
    13b2:	b8 a9       	ldd	r27, Y+48	; 0x30
    13b4:	a0 70       	andi	r26, 0x00	; 0
    13b6:	b0 70       	andi	r27, 0x00	; 0
    13b8:	57 01       	movw	r10, r14
    13ba:	68 01       	movw	r12, r16
    13bc:	a8 2a       	or	r10, r24
    13be:	b9 2a       	or	r11, r25
    13c0:	ca 2a       	or	r12, r26
    13c2:	db 2a       	or	r13, r27
    13c4:	a2 16       	cp	r10, r18
    13c6:	b3 06       	cpc	r11, r19
    13c8:	c4 06       	cpc	r12, r20
    13ca:	d5 06       	cpc	r13, r21
    13cc:	90 f4       	brcc	.+36     	; 0x13f2 <__umoddi3+0x530>
    13ce:	a2 0c       	add	r10, r2
    13d0:	b3 1c       	adc	r11, r3
    13d2:	c4 1c       	adc	r12, r4
    13d4:	d5 1c       	adc	r13, r5
    13d6:	a2 14       	cp	r10, r2
    13d8:	b3 04       	cpc	r11, r3
    13da:	c4 04       	cpc	r12, r4
    13dc:	d5 04       	cpc	r13, r5
    13de:	48 f0       	brcs	.+18     	; 0x13f2 <__umoddi3+0x530>
    13e0:	a2 16       	cp	r10, r18
    13e2:	b3 06       	cpc	r11, r19
    13e4:	c4 06       	cpc	r12, r20
    13e6:	d5 06       	cpc	r13, r21
    13e8:	20 f4       	brcc	.+8      	; 0x13f2 <__umoddi3+0x530>
    13ea:	a2 0c       	add	r10, r2
    13ec:	b3 1c       	adc	r11, r3
    13ee:	c4 1c       	adc	r12, r4
    13f0:	d5 1c       	adc	r13, r5
    13f2:	6c 96       	adiw	r28, 0x1c	; 28
    13f4:	ec ac       	ldd	r14, Y+60	; 0x3c
    13f6:	fd ac       	ldd	r15, Y+61	; 0x3d
    13f8:	0e ad       	ldd	r16, Y+62	; 0x3e
    13fa:	1f ad       	ldd	r17, Y+63	; 0x3f
    13fc:	6c 97       	sbiw	r28, 0x1c	; 28
    13fe:	68 96       	adiw	r28, 0x18	; 24
    1400:	0f ac       	ldd	r0, Y+63	; 0x3f
    1402:	68 97       	sbiw	r28, 0x18	; 24
    1404:	04 c0       	rjmp	.+8      	; 0x140e <__umoddi3+0x54c>
    1406:	ee 0c       	add	r14, r14
    1408:	ff 1c       	adc	r15, r15
    140a:	00 1f       	adc	r16, r16
    140c:	11 1f       	adc	r17, r17
    140e:	0a 94       	dec	r0
    1410:	d2 f7       	brpl	.-12     	; 0x1406 <__umoddi3+0x544>
    1412:	e9 aa       	std	Y+49, r14	; 0x31
    1414:	fa aa       	std	Y+50, r15	; 0x32
    1416:	0b ab       	std	Y+51, r16	; 0x33
    1418:	1c ab       	std	Y+52, r17	; 0x34
    141a:	a2 1a       	sub	r10, r18
    141c:	b3 0a       	sbc	r11, r19
    141e:	c4 0a       	sbc	r12, r20
    1420:	d5 0a       	sbc	r13, r21
    1422:	32 01       	movw	r6, r4
    1424:	88 24       	eor	r8, r8
    1426:	99 24       	eor	r9, r9
    1428:	b2 01       	movw	r22, r4
    142a:	a1 01       	movw	r20, r2
    142c:	60 70       	andi	r22, 0x00	; 0
    142e:	70 70       	andi	r23, 0x00	; 0
    1430:	29 96       	adiw	r28, 0x09	; 9
    1432:	4c af       	std	Y+60, r20	; 0x3c
    1434:	5d af       	std	Y+61, r21	; 0x3d
    1436:	6e af       	std	Y+62, r22	; 0x3e
    1438:	7f af       	std	Y+63, r23	; 0x3f
    143a:	29 97       	sbiw	r28, 0x09	; 9
    143c:	c6 01       	movw	r24, r12
    143e:	b5 01       	movw	r22, r10
    1440:	a4 01       	movw	r20, r8
    1442:	93 01       	movw	r18, r6
    1444:	0e 94 68 28 	call	0x50d0	; 0x50d0 <__udivmodsi4>
    1448:	7b 01       	movw	r14, r22
    144a:	8c 01       	movw	r16, r24
    144c:	c6 01       	movw	r24, r12
    144e:	b5 01       	movw	r22, r10
    1450:	a4 01       	movw	r20, r8
    1452:	93 01       	movw	r18, r6
    1454:	0e 94 68 28 	call	0x50d0	; 0x50d0 <__udivmodsi4>
    1458:	ca 01       	movw	r24, r20
    145a:	b9 01       	movw	r22, r18
    145c:	29 96       	adiw	r28, 0x09	; 9
    145e:	2c ad       	ldd	r18, Y+60	; 0x3c
    1460:	3d ad       	ldd	r19, Y+61	; 0x3d
    1462:	4e ad       	ldd	r20, Y+62	; 0x3e
    1464:	5f ad       	ldd	r21, Y+63	; 0x3f
    1466:	29 97       	sbiw	r28, 0x09	; 9
    1468:	0e 94 49 28 	call	0x5092	; 0x5092 <__mulsi3>
    146c:	9b 01       	movw	r18, r22
    146e:	ac 01       	movw	r20, r24
    1470:	87 01       	movw	r16, r14
    1472:	ff 24       	eor	r15, r15
    1474:	ee 24       	eor	r14, r14
    1476:	a9 a8       	ldd	r10, Y+49	; 0x31
    1478:	ba a8       	ldd	r11, Y+50	; 0x32
    147a:	cb a8       	ldd	r12, Y+51	; 0x33
    147c:	dc a8       	ldd	r13, Y+52	; 0x34
    147e:	c6 01       	movw	r24, r12
    1480:	aa 27       	eor	r26, r26
    1482:	bb 27       	eor	r27, r27
    1484:	57 01       	movw	r10, r14
    1486:	68 01       	movw	r12, r16
    1488:	a8 2a       	or	r10, r24
    148a:	b9 2a       	or	r11, r25
    148c:	ca 2a       	or	r12, r26
    148e:	db 2a       	or	r13, r27
    1490:	a2 16       	cp	r10, r18
    1492:	b3 06       	cpc	r11, r19
    1494:	c4 06       	cpc	r12, r20
    1496:	d5 06       	cpc	r13, r21
    1498:	90 f4       	brcc	.+36     	; 0x14be <__umoddi3+0x5fc>
    149a:	a2 0c       	add	r10, r2
    149c:	b3 1c       	adc	r11, r3
    149e:	c4 1c       	adc	r12, r4
    14a0:	d5 1c       	adc	r13, r5
    14a2:	a2 14       	cp	r10, r2
    14a4:	b3 04       	cpc	r11, r3
    14a6:	c4 04       	cpc	r12, r4
    14a8:	d5 04       	cpc	r13, r5
    14aa:	48 f0       	brcs	.+18     	; 0x14be <__umoddi3+0x5fc>
    14ac:	a2 16       	cp	r10, r18
    14ae:	b3 06       	cpc	r11, r19
    14b0:	c4 06       	cpc	r12, r20
    14b2:	d5 06       	cpc	r13, r21
    14b4:	20 f4       	brcc	.+8      	; 0x14be <__umoddi3+0x5fc>
    14b6:	a2 0c       	add	r10, r2
    14b8:	b3 1c       	adc	r11, r3
    14ba:	c4 1c       	adc	r12, r4
    14bc:	d5 1c       	adc	r13, r5
    14be:	a2 1a       	sub	r10, r18
    14c0:	b3 0a       	sbc	r11, r19
    14c2:	c4 0a       	sbc	r12, r20
    14c4:	d5 0a       	sbc	r13, r21
    14c6:	c6 01       	movw	r24, r12
    14c8:	b5 01       	movw	r22, r10
    14ca:	a4 01       	movw	r20, r8
    14cc:	93 01       	movw	r18, r6
    14ce:	0e 94 68 28 	call	0x50d0	; 0x50d0 <__udivmodsi4>
    14d2:	7b 01       	movw	r14, r22
    14d4:	8c 01       	movw	r16, r24
    14d6:	c6 01       	movw	r24, r12
    14d8:	b5 01       	movw	r22, r10
    14da:	a4 01       	movw	r20, r8
    14dc:	93 01       	movw	r18, r6
    14de:	0e 94 68 28 	call	0x50d0	; 0x50d0 <__udivmodsi4>
    14e2:	ca 01       	movw	r24, r20
    14e4:	b9 01       	movw	r22, r18
    14e6:	29 96       	adiw	r28, 0x09	; 9
    14e8:	2c ad       	ldd	r18, Y+60	; 0x3c
    14ea:	3d ad       	ldd	r19, Y+61	; 0x3d
    14ec:	4e ad       	ldd	r20, Y+62	; 0x3e
    14ee:	5f ad       	ldd	r21, Y+63	; 0x3f
    14f0:	29 97       	sbiw	r28, 0x09	; 9
    14f2:	0e 94 49 28 	call	0x5092	; 0x5092 <__mulsi3>
    14f6:	9b 01       	movw	r18, r22
    14f8:	ac 01       	movw	r20, r24
    14fa:	87 01       	movw	r16, r14
    14fc:	ff 24       	eor	r15, r15
    14fe:	ee 24       	eor	r14, r14
    1500:	89 a9       	ldd	r24, Y+49	; 0x31
    1502:	9a a9       	ldd	r25, Y+50	; 0x32
    1504:	ab a9       	ldd	r26, Y+51	; 0x33
    1506:	bc a9       	ldd	r27, Y+52	; 0x34
    1508:	a0 70       	andi	r26, 0x00	; 0
    150a:	b0 70       	andi	r27, 0x00	; 0
    150c:	e8 2a       	or	r14, r24
    150e:	f9 2a       	or	r15, r25
    1510:	0a 2b       	or	r16, r26
    1512:	1b 2b       	or	r17, r27
    1514:	e2 16       	cp	r14, r18
    1516:	f3 06       	cpc	r15, r19
    1518:	04 07       	cpc	r16, r20
    151a:	15 07       	cpc	r17, r21
    151c:	90 f4       	brcc	.+36     	; 0x1542 <__umoddi3+0x680>
    151e:	e2 0c       	add	r14, r2
    1520:	f3 1c       	adc	r15, r3
    1522:	04 1d       	adc	r16, r4
    1524:	15 1d       	adc	r17, r5
    1526:	e2 14       	cp	r14, r2
    1528:	f3 04       	cpc	r15, r3
    152a:	04 05       	cpc	r16, r4
    152c:	15 05       	cpc	r17, r5
    152e:	48 f0       	brcs	.+18     	; 0x1542 <__umoddi3+0x680>
    1530:	e2 16       	cp	r14, r18
    1532:	f3 06       	cpc	r15, r19
    1534:	04 07       	cpc	r16, r20
    1536:	15 07       	cpc	r17, r21
    1538:	20 f4       	brcc	.+8      	; 0x1542 <__umoddi3+0x680>
    153a:	e2 0c       	add	r14, r2
    153c:	f3 1c       	adc	r15, r3
    153e:	04 1d       	adc	r16, r4
    1540:	15 1d       	adc	r17, r5
    1542:	e2 1a       	sub	r14, r18
    1544:	f3 0a       	sbc	r15, r19
    1546:	04 0b       	sbc	r16, r20
    1548:	15 0b       	sbc	r17, r21
    154a:	d8 01       	movw	r26, r16
    154c:	c7 01       	movw	r24, r14
    154e:	09 ac       	ldd	r0, Y+57	; 0x39
    1550:	04 c0       	rjmp	.+8      	; 0x155a <__umoddi3+0x698>
    1552:	b6 95       	lsr	r27
    1554:	a7 95       	ror	r26
    1556:	97 95       	ror	r25
    1558:	87 95       	ror	r24
    155a:	0a 94       	dec	r0
    155c:	d2 f7       	brpl	.-12     	; 0x1552 <__umoddi3+0x690>
    155e:	89 8b       	std	Y+17, r24	; 0x11
    1560:	9a 8b       	std	Y+18, r25	; 0x12
    1562:	ab 8b       	std	Y+19, r26	; 0x13
    1564:	bc 8b       	std	Y+20, r27	; 0x14
    1566:	1d 8a       	std	Y+21, r1	; 0x15
    1568:	1e 8a       	std	Y+22, r1	; 0x16
    156a:	1f 8a       	std	Y+23, r1	; 0x17
    156c:	18 8e       	std	Y+24, r1	; 0x18
    156e:	28 2f       	mov	r18, r24
    1570:	3a 89       	ldd	r19, Y+18	; 0x12
    1572:	4b 89       	ldd	r20, Y+19	; 0x13
    1574:	5c 89       	ldd	r21, Y+20	; 0x14
    1576:	6d 89       	ldd	r22, Y+21	; 0x15
    1578:	0c c3       	rjmp	.+1560   	; 0x1b92 <__umoddi3+0xcd0>
    157a:	6a 14       	cp	r6, r10
    157c:	7b 04       	cpc	r7, r11
    157e:	8c 04       	cpc	r8, r12
    1580:	9d 04       	cpc	r9, r13
    1582:	08 f4       	brcc	.+2      	; 0x1586 <__umoddi3+0x6c4>
    1584:	09 c3       	rjmp	.+1554   	; 0x1b98 <__umoddi3+0xcd6>
    1586:	00 e0       	ldi	r16, 0x00	; 0
    1588:	a0 16       	cp	r10, r16
    158a:	00 e0       	ldi	r16, 0x00	; 0
    158c:	b0 06       	cpc	r11, r16
    158e:	01 e0       	ldi	r16, 0x01	; 1
    1590:	c0 06       	cpc	r12, r16
    1592:	00 e0       	ldi	r16, 0x00	; 0
    1594:	d0 06       	cpc	r13, r16
    1596:	88 f4       	brcc	.+34     	; 0x15ba <__umoddi3+0x6f8>
    1598:	1f ef       	ldi	r17, 0xFF	; 255
    159a:	a1 16       	cp	r10, r17
    159c:	b1 04       	cpc	r11, r1
    159e:	c1 04       	cpc	r12, r1
    15a0:	d1 04       	cpc	r13, r1
    15a2:	39 f0       	breq	.+14     	; 0x15b2 <__umoddi3+0x6f0>
    15a4:	30 f0       	brcs	.+12     	; 0x15b2 <__umoddi3+0x6f0>
    15a6:	28 e0       	ldi	r18, 0x08	; 8
    15a8:	e2 2e       	mov	r14, r18
    15aa:	f1 2c       	mov	r15, r1
    15ac:	01 2d       	mov	r16, r1
    15ae:	11 2d       	mov	r17, r1
    15b0:	18 c0       	rjmp	.+48     	; 0x15e2 <__umoddi3+0x720>
    15b2:	ee 24       	eor	r14, r14
    15b4:	ff 24       	eor	r15, r15
    15b6:	87 01       	movw	r16, r14
    15b8:	14 c0       	rjmp	.+40     	; 0x15e2 <__umoddi3+0x720>
    15ba:	40 e0       	ldi	r20, 0x00	; 0
    15bc:	a4 16       	cp	r10, r20
    15be:	40 e0       	ldi	r20, 0x00	; 0
    15c0:	b4 06       	cpc	r11, r20
    15c2:	40 e0       	ldi	r20, 0x00	; 0
    15c4:	c4 06       	cpc	r12, r20
    15c6:	41 e0       	ldi	r20, 0x01	; 1
    15c8:	d4 06       	cpc	r13, r20
    15ca:	30 f0       	brcs	.+12     	; 0x15d8 <__umoddi3+0x716>
    15cc:	98 e1       	ldi	r25, 0x18	; 24
    15ce:	e9 2e       	mov	r14, r25
    15d0:	f1 2c       	mov	r15, r1
    15d2:	01 2d       	mov	r16, r1
    15d4:	11 2d       	mov	r17, r1
    15d6:	05 c0       	rjmp	.+10     	; 0x15e2 <__umoddi3+0x720>
    15d8:	80 e1       	ldi	r24, 0x10	; 16
    15da:	e8 2e       	mov	r14, r24
    15dc:	f1 2c       	mov	r15, r1
    15de:	01 2d       	mov	r16, r1
    15e0:	11 2d       	mov	r17, r1
    15e2:	d6 01       	movw	r26, r12
    15e4:	c5 01       	movw	r24, r10
    15e6:	0e 2c       	mov	r0, r14
    15e8:	04 c0       	rjmp	.+8      	; 0x15f2 <__umoddi3+0x730>
    15ea:	b6 95       	lsr	r27
    15ec:	a7 95       	ror	r26
    15ee:	97 95       	ror	r25
    15f0:	87 95       	ror	r24
    15f2:	0a 94       	dec	r0
    15f4:	d2 f7       	brpl	.-12     	; 0x15ea <__umoddi3+0x728>
    15f6:	82 53       	subi	r24, 0x32	; 50
    15f8:	9f 4f       	sbci	r25, 0xFF	; 255
    15fa:	dc 01       	movw	r26, r24
    15fc:	2c 91       	ld	r18, X
    15fe:	80 e2       	ldi	r24, 0x20	; 32
    1600:	90 e0       	ldi	r25, 0x00	; 0
    1602:	a0 e0       	ldi	r26, 0x00	; 0
    1604:	b0 e0       	ldi	r27, 0x00	; 0
    1606:	8e 19       	sub	r24, r14
    1608:	9f 09       	sbc	r25, r15
    160a:	a0 0b       	sbc	r26, r16
    160c:	b1 0b       	sbc	r27, r17
    160e:	82 1b       	sub	r24, r18
    1610:	91 09       	sbc	r25, r1
    1612:	a1 09       	sbc	r26, r1
    1614:	b1 09       	sbc	r27, r1
    1616:	00 97       	sbiw	r24, 0x00	; 0
    1618:	a1 05       	cpc	r26, r1
    161a:	b1 05       	cpc	r27, r1
    161c:	09 f0       	breq	.+2      	; 0x1620 <__umoddi3+0x75e>
    161e:	4f c0       	rjmp	.+158    	; 0x16be <__umoddi3+0x7fc>
    1620:	a6 14       	cp	r10, r6
    1622:	b7 04       	cpc	r11, r7
    1624:	c8 04       	cpc	r12, r8
    1626:	d9 04       	cpc	r13, r9
    1628:	58 f0       	brcs	.+22     	; 0x1640 <__umoddi3+0x77e>
    162a:	6c 96       	adiw	r28, 0x1c	; 28
    162c:	ec ac       	ldd	r14, Y+60	; 0x3c
    162e:	fd ac       	ldd	r15, Y+61	; 0x3d
    1630:	0e ad       	ldd	r16, Y+62	; 0x3e
    1632:	1f ad       	ldd	r17, Y+63	; 0x3f
    1634:	6c 97       	sbiw	r28, 0x1c	; 28
    1636:	e2 14       	cp	r14, r2
    1638:	f3 04       	cpc	r15, r3
    163a:	04 05       	cpc	r16, r4
    163c:	15 05       	cpc	r17, r5
    163e:	68 f1       	brcs	.+90     	; 0x169a <__umoddi3+0x7d8>
    1640:	6c 96       	adiw	r28, 0x1c	; 28
    1642:	ec ac       	ldd	r14, Y+60	; 0x3c
    1644:	fd ac       	ldd	r15, Y+61	; 0x3d
    1646:	0e ad       	ldd	r16, Y+62	; 0x3e
    1648:	1f ad       	ldd	r17, Y+63	; 0x3f
    164a:	6c 97       	sbiw	r28, 0x1c	; 28
    164c:	e2 18       	sub	r14, r2
    164e:	f3 08       	sbc	r15, r3
    1650:	04 09       	sbc	r16, r4
    1652:	15 09       	sbc	r17, r5
    1654:	a4 01       	movw	r20, r8
    1656:	93 01       	movw	r18, r6
    1658:	2a 19       	sub	r18, r10
    165a:	3b 09       	sbc	r19, r11
    165c:	4c 09       	sbc	r20, r12
    165e:	5d 09       	sbc	r21, r13
    1660:	aa 24       	eor	r10, r10
    1662:	bb 24       	eor	r11, r11
    1664:	65 01       	movw	r12, r10
    1666:	6c 96       	adiw	r28, 0x1c	; 28
    1668:	6c ad       	ldd	r22, Y+60	; 0x3c
    166a:	7d ad       	ldd	r23, Y+61	; 0x3d
    166c:	8e ad       	ldd	r24, Y+62	; 0x3e
    166e:	9f ad       	ldd	r25, Y+63	; 0x3f
    1670:	6c 97       	sbiw	r28, 0x1c	; 28
    1672:	6e 15       	cp	r22, r14
    1674:	7f 05       	cpc	r23, r15
    1676:	80 07       	cpc	r24, r16
    1678:	91 07       	cpc	r25, r17
    167a:	28 f4       	brcc	.+10     	; 0x1686 <__umoddi3+0x7c4>
    167c:	b1 e0       	ldi	r27, 0x01	; 1
    167e:	ab 2e       	mov	r10, r27
    1680:	b1 2c       	mov	r11, r1
    1682:	c1 2c       	mov	r12, r1
    1684:	d1 2c       	mov	r13, r1
    1686:	da 01       	movw	r26, r20
    1688:	c9 01       	movw	r24, r18
    168a:	8a 19       	sub	r24, r10
    168c:	9b 09       	sbc	r25, r11
    168e:	ac 09       	sbc	r26, r12
    1690:	bd 09       	sbc	r27, r13
    1692:	8d ab       	std	Y+53, r24	; 0x35
    1694:	9e ab       	std	Y+54, r25	; 0x36
    1696:	af ab       	std	Y+55, r26	; 0x37
    1698:	b8 af       	std	Y+56, r27	; 0x38
    169a:	e9 8a       	std	Y+17, r14	; 0x11
    169c:	fa 8a       	std	Y+18, r15	; 0x12
    169e:	0b 8b       	std	Y+19, r16	; 0x13
    16a0:	1c 8b       	std	Y+20, r17	; 0x14
    16a2:	6d a8       	ldd	r6, Y+53	; 0x35
    16a4:	7e a8       	ldd	r7, Y+54	; 0x36
    16a6:	8f a8       	ldd	r8, Y+55	; 0x37
    16a8:	98 ac       	ldd	r9, Y+56	; 0x38
    16aa:	6d 8a       	std	Y+21, r6	; 0x15
    16ac:	7e 8a       	std	Y+22, r7	; 0x16
    16ae:	8f 8a       	std	Y+23, r8	; 0x17
    16b0:	98 8e       	std	Y+24, r9	; 0x18
    16b2:	2e 2d       	mov	r18, r14
    16b4:	3a 89       	ldd	r19, Y+18	; 0x12
    16b6:	4b 89       	ldd	r20, Y+19	; 0x13
    16b8:	5c 89       	ldd	r21, Y+20	; 0x14
    16ba:	6d a9       	ldd	r22, Y+53	; 0x35
    16bc:	6a c2       	rjmp	.+1236   	; 0x1b92 <__umoddi3+0xcd0>
    16be:	67 96       	adiw	r28, 0x17	; 23
    16c0:	8f af       	std	Y+63, r24	; 0x3f
    16c2:	67 97       	sbiw	r28, 0x17	; 23
    16c4:	a6 01       	movw	r20, r12
    16c6:	95 01       	movw	r18, r10
    16c8:	08 2e       	mov	r0, r24
    16ca:	04 c0       	rjmp	.+8      	; 0x16d4 <__umoddi3+0x812>
    16cc:	22 0f       	add	r18, r18
    16ce:	33 1f       	adc	r19, r19
    16d0:	44 1f       	adc	r20, r20
    16d2:	55 1f       	adc	r21, r21
    16d4:	0a 94       	dec	r0
    16d6:	d2 f7       	brpl	.-12     	; 0x16cc <__umoddi3+0x80a>
    16d8:	a0 e2       	ldi	r26, 0x20	; 32
    16da:	aa 2e       	mov	r10, r26
    16dc:	a8 1a       	sub	r10, r24
    16de:	66 96       	adiw	r28, 0x16	; 22
    16e0:	af ae       	std	Y+63, r10	; 0x3f
    16e2:	66 97       	sbiw	r28, 0x16	; 22
    16e4:	d2 01       	movw	r26, r4
    16e6:	c1 01       	movw	r24, r2
    16e8:	04 c0       	rjmp	.+8      	; 0x16f2 <__umoddi3+0x830>
    16ea:	b6 95       	lsr	r27
    16ec:	a7 95       	ror	r26
    16ee:	97 95       	ror	r25
    16f0:	87 95       	ror	r24
    16f2:	aa 94       	dec	r10
    16f4:	d2 f7       	brpl	.-12     	; 0x16ea <__umoddi3+0x828>
    16f6:	6c 01       	movw	r12, r24
    16f8:	7d 01       	movw	r14, r26
    16fa:	c2 2a       	or	r12, r18
    16fc:	d3 2a       	or	r13, r19
    16fe:	e4 2a       	or	r14, r20
    1700:	f5 2a       	or	r15, r21
    1702:	c9 a6       	std	Y+41, r12	; 0x29
    1704:	da a6       	std	Y+42, r13	; 0x2a
    1706:	eb a6       	std	Y+43, r14	; 0x2b
    1708:	fc a6       	std	Y+44, r15	; 0x2c
    170a:	82 01       	movw	r16, r4
    170c:	71 01       	movw	r14, r2
    170e:	67 96       	adiw	r28, 0x17	; 23
    1710:	0f ac       	ldd	r0, Y+63	; 0x3f
    1712:	67 97       	sbiw	r28, 0x17	; 23
    1714:	04 c0       	rjmp	.+8      	; 0x171e <__umoddi3+0x85c>
    1716:	ee 0c       	add	r14, r14
    1718:	ff 1c       	adc	r15, r15
    171a:	00 1f       	adc	r16, r16
    171c:	11 1f       	adc	r17, r17
    171e:	0a 94       	dec	r0
    1720:	d2 f7       	brpl	.-12     	; 0x1716 <__umoddi3+0x854>
    1722:	ed a2       	std	Y+37, r14	; 0x25
    1724:	fe a2       	std	Y+38, r15	; 0x26
    1726:	0f a3       	std	Y+39, r16	; 0x27
    1728:	18 a7       	std	Y+40, r17	; 0x28
    172a:	64 01       	movw	r12, r8
    172c:	53 01       	movw	r10, r6
    172e:	66 96       	adiw	r28, 0x16	; 22
    1730:	0f ac       	ldd	r0, Y+63	; 0x3f
    1732:	66 97       	sbiw	r28, 0x16	; 22
    1734:	04 c0       	rjmp	.+8      	; 0x173e <__umoddi3+0x87c>
    1736:	d6 94       	lsr	r13
    1738:	c7 94       	ror	r12
    173a:	b7 94       	ror	r11
    173c:	a7 94       	ror	r10
    173e:	0a 94       	dec	r0
    1740:	d2 f7       	brpl	.-12     	; 0x1736 <__umoddi3+0x874>
    1742:	a4 01       	movw	r20, r8
    1744:	93 01       	movw	r18, r6
    1746:	67 96       	adiw	r28, 0x17	; 23
    1748:	0f ac       	ldd	r0, Y+63	; 0x3f
    174a:	67 97       	sbiw	r28, 0x17	; 23
    174c:	04 c0       	rjmp	.+8      	; 0x1756 <__umoddi3+0x894>
    174e:	22 0f       	add	r18, r18
    1750:	33 1f       	adc	r19, r19
    1752:	44 1f       	adc	r20, r20
    1754:	55 1f       	adc	r21, r21
    1756:	0a 94       	dec	r0
    1758:	d2 f7       	brpl	.-12     	; 0x174e <__umoddi3+0x88c>
    175a:	6c 96       	adiw	r28, 0x1c	; 28
    175c:	8c ad       	ldd	r24, Y+60	; 0x3c
    175e:	9d ad       	ldd	r25, Y+61	; 0x3d
    1760:	ae ad       	ldd	r26, Y+62	; 0x3e
    1762:	bf ad       	ldd	r27, Y+63	; 0x3f
    1764:	6c 97       	sbiw	r28, 0x1c	; 28
    1766:	66 96       	adiw	r28, 0x16	; 22
    1768:	0f ac       	ldd	r0, Y+63	; 0x3f
    176a:	66 97       	sbiw	r28, 0x16	; 22
    176c:	04 c0       	rjmp	.+8      	; 0x1776 <__umoddi3+0x8b4>
    176e:	b6 95       	lsr	r27
    1770:	a7 95       	ror	r26
    1772:	97 95       	ror	r25
    1774:	87 95       	ror	r24
    1776:	0a 94       	dec	r0
    1778:	d2 f7       	brpl	.-12     	; 0x176e <__umoddi3+0x8ac>
    177a:	3c 01       	movw	r6, r24
    177c:	4d 01       	movw	r8, r26
    177e:	62 2a       	or	r6, r18
    1780:	73 2a       	or	r7, r19
    1782:	84 2a       	or	r8, r20
    1784:	95 2a       	or	r9, r21
    1786:	69 a2       	std	Y+33, r6	; 0x21
    1788:	7a a2       	std	Y+34, r7	; 0x22
    178a:	8b a2       	std	Y+35, r8	; 0x23
    178c:	9c a2       	std	Y+36, r9	; 0x24
    178e:	6c 96       	adiw	r28, 0x1c	; 28
    1790:	ec ac       	ldd	r14, Y+60	; 0x3c
    1792:	fd ac       	ldd	r15, Y+61	; 0x3d
    1794:	0e ad       	ldd	r16, Y+62	; 0x3e
    1796:	1f ad       	ldd	r17, Y+63	; 0x3f
    1798:	6c 97       	sbiw	r28, 0x1c	; 28
    179a:	67 96       	adiw	r28, 0x17	; 23
    179c:	0f ac       	ldd	r0, Y+63	; 0x3f
    179e:	67 97       	sbiw	r28, 0x17	; 23
    17a0:	04 c0       	rjmp	.+8      	; 0x17aa <__umoddi3+0x8e8>
    17a2:	ee 0c       	add	r14, r14
    17a4:	ff 1c       	adc	r15, r15
    17a6:	00 1f       	adc	r16, r16
    17a8:	11 1f       	adc	r17, r17
    17aa:	0a 94       	dec	r0
    17ac:	d2 f7       	brpl	.-12     	; 0x17a2 <__umoddi3+0x8e0>
    17ae:	ed 8e       	std	Y+29, r14	; 0x1d
    17b0:	fe 8e       	std	Y+30, r15	; 0x1e
    17b2:	0f 8f       	std	Y+31, r16	; 0x1f
    17b4:	18 a3       	std	Y+32, r17	; 0x20
    17b6:	49 a5       	ldd	r20, Y+41	; 0x29
    17b8:	5a a5       	ldd	r21, Y+42	; 0x2a
    17ba:	6b a5       	ldd	r22, Y+43	; 0x2b
    17bc:	7c a5       	ldd	r23, Y+44	; 0x2c
    17be:	3b 01       	movw	r6, r22
    17c0:	88 24       	eor	r8, r8
    17c2:	99 24       	eor	r9, r9
    17c4:	60 70       	andi	r22, 0x00	; 0
    17c6:	70 70       	andi	r23, 0x00	; 0
    17c8:	2d 96       	adiw	r28, 0x0d	; 13
    17ca:	4c af       	std	Y+60, r20	; 0x3c
    17cc:	5d af       	std	Y+61, r21	; 0x3d
    17ce:	6e af       	std	Y+62, r22	; 0x3e
    17d0:	7f af       	std	Y+63, r23	; 0x3f
    17d2:	2d 97       	sbiw	r28, 0x0d	; 13
    17d4:	c6 01       	movw	r24, r12
    17d6:	b5 01       	movw	r22, r10
    17d8:	a4 01       	movw	r20, r8
    17da:	93 01       	movw	r18, r6
    17dc:	0e 94 68 28 	call	0x50d0	; 0x50d0 <__udivmodsi4>
    17e0:	7b 01       	movw	r14, r22
    17e2:	8c 01       	movw	r16, r24
    17e4:	c6 01       	movw	r24, r12
    17e6:	b5 01       	movw	r22, r10
    17e8:	a4 01       	movw	r20, r8
    17ea:	93 01       	movw	r18, r6
    17ec:	0e 94 68 28 	call	0x50d0	; 0x50d0 <__udivmodsi4>
    17f0:	c9 01       	movw	r24, r18
    17f2:	da 01       	movw	r26, r20
    17f4:	1c 01       	movw	r2, r24
    17f6:	2d 01       	movw	r4, r26
    17f8:	c2 01       	movw	r24, r4
    17fa:	b1 01       	movw	r22, r2
    17fc:	2d 96       	adiw	r28, 0x0d	; 13
    17fe:	2c ad       	ldd	r18, Y+60	; 0x3c
    1800:	3d ad       	ldd	r19, Y+61	; 0x3d
    1802:	4e ad       	ldd	r20, Y+62	; 0x3e
    1804:	5f ad       	ldd	r21, Y+63	; 0x3f
    1806:	2d 97       	sbiw	r28, 0x0d	; 13
    1808:	0e 94 49 28 	call	0x5092	; 0x5092 <__mulsi3>
    180c:	9b 01       	movw	r18, r22
    180e:	ac 01       	movw	r20, r24
    1810:	87 01       	movw	r16, r14
    1812:	ff 24       	eor	r15, r15
    1814:	ee 24       	eor	r14, r14
    1816:	a9 a0       	ldd	r10, Y+33	; 0x21
    1818:	ba a0       	ldd	r11, Y+34	; 0x22
    181a:	cb a0       	ldd	r12, Y+35	; 0x23
    181c:	dc a0       	ldd	r13, Y+36	; 0x24
    181e:	c6 01       	movw	r24, r12
    1820:	aa 27       	eor	r26, r26
    1822:	bb 27       	eor	r27, r27
    1824:	57 01       	movw	r10, r14
    1826:	68 01       	movw	r12, r16
    1828:	a8 2a       	or	r10, r24
    182a:	b9 2a       	or	r11, r25
    182c:	ca 2a       	or	r12, r26
    182e:	db 2a       	or	r13, r27
    1830:	a2 16       	cp	r10, r18
    1832:	b3 06       	cpc	r11, r19
    1834:	c4 06       	cpc	r12, r20
    1836:	d5 06       	cpc	r13, r21
    1838:	00 f5       	brcc	.+64     	; 0x187a <__umoddi3+0x9b8>
    183a:	08 94       	sec
    183c:	21 08       	sbc	r2, r1
    183e:	31 08       	sbc	r3, r1
    1840:	41 08       	sbc	r4, r1
    1842:	51 08       	sbc	r5, r1
    1844:	e9 a4       	ldd	r14, Y+41	; 0x29
    1846:	fa a4       	ldd	r15, Y+42	; 0x2a
    1848:	0b a5       	ldd	r16, Y+43	; 0x2b
    184a:	1c a5       	ldd	r17, Y+44	; 0x2c
    184c:	ae 0c       	add	r10, r14
    184e:	bf 1c       	adc	r11, r15
    1850:	c0 1e       	adc	r12, r16
    1852:	d1 1e       	adc	r13, r17
    1854:	ae 14       	cp	r10, r14
    1856:	bf 04       	cpc	r11, r15
    1858:	c0 06       	cpc	r12, r16
    185a:	d1 06       	cpc	r13, r17
    185c:	70 f0       	brcs	.+28     	; 0x187a <__umoddi3+0x9b8>
    185e:	a2 16       	cp	r10, r18
    1860:	b3 06       	cpc	r11, r19
    1862:	c4 06       	cpc	r12, r20
    1864:	d5 06       	cpc	r13, r21
    1866:	48 f4       	brcc	.+18     	; 0x187a <__umoddi3+0x9b8>
    1868:	08 94       	sec
    186a:	21 08       	sbc	r2, r1
    186c:	31 08       	sbc	r3, r1
    186e:	41 08       	sbc	r4, r1
    1870:	51 08       	sbc	r5, r1
    1872:	ae 0c       	add	r10, r14
    1874:	bf 1c       	adc	r11, r15
    1876:	c0 1e       	adc	r12, r16
    1878:	d1 1e       	adc	r13, r17
    187a:	a2 1a       	sub	r10, r18
    187c:	b3 0a       	sbc	r11, r19
    187e:	c4 0a       	sbc	r12, r20
    1880:	d5 0a       	sbc	r13, r21
    1882:	c6 01       	movw	r24, r12
    1884:	b5 01       	movw	r22, r10
    1886:	a4 01       	movw	r20, r8
    1888:	93 01       	movw	r18, r6
    188a:	0e 94 68 28 	call	0x50d0	; 0x50d0 <__udivmodsi4>
    188e:	7b 01       	movw	r14, r22
    1890:	8c 01       	movw	r16, r24
    1892:	c6 01       	movw	r24, r12
    1894:	b5 01       	movw	r22, r10
    1896:	a4 01       	movw	r20, r8
    1898:	93 01       	movw	r18, r6
    189a:	0e 94 68 28 	call	0x50d0	; 0x50d0 <__udivmodsi4>
    189e:	c9 01       	movw	r24, r18
    18a0:	da 01       	movw	r26, r20
    18a2:	3c 01       	movw	r6, r24
    18a4:	4d 01       	movw	r8, r26
    18a6:	c4 01       	movw	r24, r8
    18a8:	b3 01       	movw	r22, r6
    18aa:	2d 96       	adiw	r28, 0x0d	; 13
    18ac:	2c ad       	ldd	r18, Y+60	; 0x3c
    18ae:	3d ad       	ldd	r19, Y+61	; 0x3d
    18b0:	4e ad       	ldd	r20, Y+62	; 0x3e
    18b2:	5f ad       	ldd	r21, Y+63	; 0x3f
    18b4:	2d 97       	sbiw	r28, 0x0d	; 13
    18b6:	0e 94 49 28 	call	0x5092	; 0x5092 <__mulsi3>
    18ba:	9b 01       	movw	r18, r22
    18bc:	ac 01       	movw	r20, r24
    18be:	87 01       	movw	r16, r14
    18c0:	ff 24       	eor	r15, r15
    18c2:	ee 24       	eor	r14, r14
    18c4:	89 a1       	ldd	r24, Y+33	; 0x21
    18c6:	9a a1       	ldd	r25, Y+34	; 0x22
    18c8:	ab a1       	ldd	r26, Y+35	; 0x23
    18ca:	bc a1       	ldd	r27, Y+36	; 0x24
    18cc:	a0 70       	andi	r26, 0x00	; 0
    18ce:	b0 70       	andi	r27, 0x00	; 0
    18d0:	57 01       	movw	r10, r14
    18d2:	68 01       	movw	r12, r16
    18d4:	a8 2a       	or	r10, r24
    18d6:	b9 2a       	or	r11, r25
    18d8:	ca 2a       	or	r12, r26
    18da:	db 2a       	or	r13, r27
    18dc:	a2 16       	cp	r10, r18
    18de:	b3 06       	cpc	r11, r19
    18e0:	c4 06       	cpc	r12, r20
    18e2:	d5 06       	cpc	r13, r21
    18e4:	00 f5       	brcc	.+64     	; 0x1926 <__umoddi3+0xa64>
    18e6:	08 94       	sec
    18e8:	61 08       	sbc	r6, r1
    18ea:	71 08       	sbc	r7, r1
    18ec:	81 08       	sbc	r8, r1
    18ee:	91 08       	sbc	r9, r1
    18f0:	69 a5       	ldd	r22, Y+41	; 0x29
    18f2:	7a a5       	ldd	r23, Y+42	; 0x2a
    18f4:	8b a5       	ldd	r24, Y+43	; 0x2b
    18f6:	9c a5       	ldd	r25, Y+44	; 0x2c
    18f8:	a6 0e       	add	r10, r22
    18fa:	b7 1e       	adc	r11, r23
    18fc:	c8 1e       	adc	r12, r24
    18fe:	d9 1e       	adc	r13, r25
    1900:	a6 16       	cp	r10, r22
    1902:	b7 06       	cpc	r11, r23
    1904:	c8 06       	cpc	r12, r24
    1906:	d9 06       	cpc	r13, r25
    1908:	70 f0       	brcs	.+28     	; 0x1926 <__umoddi3+0xa64>
    190a:	a2 16       	cp	r10, r18
    190c:	b3 06       	cpc	r11, r19
    190e:	c4 06       	cpc	r12, r20
    1910:	d5 06       	cpc	r13, r21
    1912:	48 f4       	brcc	.+18     	; 0x1926 <__umoddi3+0xa64>
    1914:	08 94       	sec
    1916:	61 08       	sbc	r6, r1
    1918:	71 08       	sbc	r7, r1
    191a:	81 08       	sbc	r8, r1
    191c:	91 08       	sbc	r9, r1
    191e:	a6 0e       	add	r10, r22
    1920:	b7 1e       	adc	r11, r23
    1922:	c8 1e       	adc	r12, r24
    1924:	d9 1e       	adc	r13, r25
    1926:	d6 01       	movw	r26, r12
    1928:	c5 01       	movw	r24, r10
    192a:	82 1b       	sub	r24, r18
    192c:	93 0b       	sbc	r25, r19
    192e:	a4 0b       	sbc	r26, r20
    1930:	b5 0b       	sbc	r27, r21
    1932:	89 8f       	std	Y+25, r24	; 0x19
    1934:	9a 8f       	std	Y+26, r25	; 0x1a
    1936:	ab 8f       	std	Y+27, r26	; 0x1b
    1938:	bc 8f       	std	Y+28, r27	; 0x1c
    193a:	d1 01       	movw	r26, r2
    193c:	99 27       	eor	r25, r25
    193e:	88 27       	eor	r24, r24
    1940:	84 01       	movw	r16, r8
    1942:	73 01       	movw	r14, r6
    1944:	e8 2a       	or	r14, r24
    1946:	f9 2a       	or	r15, r25
    1948:	0a 2b       	or	r16, r26
    194a:	1b 2b       	or	r17, r27
    194c:	4f ef       	ldi	r20, 0xFF	; 255
    194e:	a4 2e       	mov	r10, r20
    1950:	4f ef       	ldi	r20, 0xFF	; 255
    1952:	b4 2e       	mov	r11, r20
    1954:	c1 2c       	mov	r12, r1
    1956:	d1 2c       	mov	r13, r1
    1958:	ae 20       	and	r10, r14
    195a:	bf 20       	and	r11, r15
    195c:	c0 22       	and	r12, r16
    195e:	d1 22       	and	r13, r17
    1960:	78 01       	movw	r14, r16
    1962:	00 27       	eor	r16, r16
    1964:	11 27       	eor	r17, r17
    1966:	6d a0       	ldd	r6, Y+37	; 0x25
    1968:	7e a0       	ldd	r7, Y+38	; 0x26
    196a:	8f a0       	ldd	r8, Y+39	; 0x27
    196c:	98 a4       	ldd	r9, Y+40	; 0x28
    196e:	4f ef       	ldi	r20, 0xFF	; 255
    1970:	5f ef       	ldi	r21, 0xFF	; 255
    1972:	60 e0       	ldi	r22, 0x00	; 0
    1974:	70 e0       	ldi	r23, 0x00	; 0
    1976:	64 22       	and	r6, r20
    1978:	75 22       	and	r7, r21
    197a:	86 22       	and	r8, r22
    197c:	97 22       	and	r9, r23
    197e:	8d a1       	ldd	r24, Y+37	; 0x25
    1980:	9e a1       	ldd	r25, Y+38	; 0x26
    1982:	af a1       	ldd	r26, Y+39	; 0x27
    1984:	b8 a5       	ldd	r27, Y+40	; 0x28
    1986:	bd 01       	movw	r22, r26
    1988:	88 27       	eor	r24, r24
    198a:	99 27       	eor	r25, r25
    198c:	65 96       	adiw	r28, 0x15	; 21
    198e:	6c af       	std	Y+60, r22	; 0x3c
    1990:	7d af       	std	Y+61, r23	; 0x3d
    1992:	8e af       	std	Y+62, r24	; 0x3e
    1994:	9f af       	std	Y+63, r25	; 0x3f
    1996:	65 97       	sbiw	r28, 0x15	; 21
    1998:	c6 01       	movw	r24, r12
    199a:	b5 01       	movw	r22, r10
    199c:	a4 01       	movw	r20, r8
    199e:	93 01       	movw	r18, r6
    19a0:	0e 94 49 28 	call	0x5092	; 0x5092 <__mulsi3>
    19a4:	61 96       	adiw	r28, 0x11	; 17
    19a6:	6c af       	std	Y+60, r22	; 0x3c
    19a8:	7d af       	std	Y+61, r23	; 0x3d
    19aa:	8e af       	std	Y+62, r24	; 0x3e
    19ac:	9f af       	std	Y+63, r25	; 0x3f
    19ae:	61 97       	sbiw	r28, 0x11	; 17
    19b0:	c6 01       	movw	r24, r12
    19b2:	b5 01       	movw	r22, r10
    19b4:	65 96       	adiw	r28, 0x15	; 21
    19b6:	2c ad       	ldd	r18, Y+60	; 0x3c
    19b8:	3d ad       	ldd	r19, Y+61	; 0x3d
    19ba:	4e ad       	ldd	r20, Y+62	; 0x3e
    19bc:	5f ad       	ldd	r21, Y+63	; 0x3f
    19be:	65 97       	sbiw	r28, 0x15	; 21
    19c0:	0e 94 49 28 	call	0x5092	; 0x5092 <__mulsi3>
    19c4:	1b 01       	movw	r2, r22
    19c6:	2c 01       	movw	r4, r24
    19c8:	c8 01       	movw	r24, r16
    19ca:	b7 01       	movw	r22, r14
    19cc:	a4 01       	movw	r20, r8
    19ce:	93 01       	movw	r18, r6
    19d0:	0e 94 49 28 	call	0x5092	; 0x5092 <__mulsi3>
    19d4:	5b 01       	movw	r10, r22
    19d6:	6c 01       	movw	r12, r24
    19d8:	c8 01       	movw	r24, r16
    19da:	b7 01       	movw	r22, r14
    19dc:	65 96       	adiw	r28, 0x15	; 21
    19de:	2c ad       	ldd	r18, Y+60	; 0x3c
    19e0:	3d ad       	ldd	r19, Y+61	; 0x3d
    19e2:	4e ad       	ldd	r20, Y+62	; 0x3e
    19e4:	5f ad       	ldd	r21, Y+63	; 0x3f
    19e6:	65 97       	sbiw	r28, 0x15	; 21
    19e8:	0e 94 49 28 	call	0x5092	; 0x5092 <__mulsi3>
    19ec:	7b 01       	movw	r14, r22
    19ee:	8c 01       	movw	r16, r24
    19f0:	a6 01       	movw	r20, r12
    19f2:	95 01       	movw	r18, r10
    19f4:	22 0d       	add	r18, r2
    19f6:	33 1d       	adc	r19, r3
    19f8:	44 1d       	adc	r20, r4
    19fa:	55 1d       	adc	r21, r5
    19fc:	61 96       	adiw	r28, 0x11	; 17
    19fe:	6c ac       	ldd	r6, Y+60	; 0x3c
    1a00:	7d ac       	ldd	r7, Y+61	; 0x3d
    1a02:	8e ac       	ldd	r8, Y+62	; 0x3e
    1a04:	9f ac       	ldd	r9, Y+63	; 0x3f
    1a06:	61 97       	sbiw	r28, 0x11	; 17
    1a08:	c4 01       	movw	r24, r8
    1a0a:	aa 27       	eor	r26, r26
    1a0c:	bb 27       	eor	r27, r27
    1a0e:	28 0f       	add	r18, r24
    1a10:	39 1f       	adc	r19, r25
    1a12:	4a 1f       	adc	r20, r26
    1a14:	5b 1f       	adc	r21, r27
    1a16:	2a 15       	cp	r18, r10
    1a18:	3b 05       	cpc	r19, r11
    1a1a:	4c 05       	cpc	r20, r12
    1a1c:	5d 05       	cpc	r21, r13
    1a1e:	48 f4       	brcc	.+18     	; 0x1a32 <__umoddi3+0xb70>
    1a20:	81 2c       	mov	r8, r1
    1a22:	91 2c       	mov	r9, r1
    1a24:	e1 e0       	ldi	r30, 0x01	; 1
    1a26:	ae 2e       	mov	r10, r30
    1a28:	b1 2c       	mov	r11, r1
    1a2a:	e8 0c       	add	r14, r8
    1a2c:	f9 1c       	adc	r15, r9
    1a2e:	0a 1d       	adc	r16, r10
    1a30:	1b 1d       	adc	r17, r11
    1a32:	ca 01       	movw	r24, r20
    1a34:	aa 27       	eor	r26, r26
    1a36:	bb 27       	eor	r27, r27
    1a38:	57 01       	movw	r10, r14
    1a3a:	68 01       	movw	r12, r16
    1a3c:	a8 0e       	add	r10, r24
    1a3e:	b9 1e       	adc	r11, r25
    1a40:	ca 1e       	adc	r12, r26
    1a42:	db 1e       	adc	r13, r27
    1a44:	a9 01       	movw	r20, r18
    1a46:	33 27       	eor	r19, r19
    1a48:	22 27       	eor	r18, r18
    1a4a:	61 96       	adiw	r28, 0x11	; 17
    1a4c:	8c ad       	ldd	r24, Y+60	; 0x3c
    1a4e:	9d ad       	ldd	r25, Y+61	; 0x3d
    1a50:	ae ad       	ldd	r26, Y+62	; 0x3e
    1a52:	bf ad       	ldd	r27, Y+63	; 0x3f
    1a54:	61 97       	sbiw	r28, 0x11	; 17
    1a56:	a0 70       	andi	r26, 0x00	; 0
    1a58:	b0 70       	andi	r27, 0x00	; 0
    1a5a:	28 0f       	add	r18, r24
    1a5c:	39 1f       	adc	r19, r25
    1a5e:	4a 1f       	adc	r20, r26
    1a60:	5b 1f       	adc	r21, r27
    1a62:	e9 8c       	ldd	r14, Y+25	; 0x19
    1a64:	fa 8c       	ldd	r15, Y+26	; 0x1a
    1a66:	0b 8d       	ldd	r16, Y+27	; 0x1b
    1a68:	1c 8d       	ldd	r17, Y+28	; 0x1c
    1a6a:	ea 14       	cp	r14, r10
    1a6c:	fb 04       	cpc	r15, r11
    1a6e:	0c 05       	cpc	r16, r12
    1a70:	1d 05       	cpc	r17, r13
    1a72:	70 f0       	brcs	.+28     	; 0x1a90 <__umoddi3+0xbce>
    1a74:	ae 14       	cp	r10, r14
    1a76:	bf 04       	cpc	r11, r15
    1a78:	c0 06       	cpc	r12, r16
    1a7a:	d1 06       	cpc	r13, r17
    1a7c:	69 f5       	brne	.+90     	; 0x1ad8 <__umoddi3+0xc16>
    1a7e:	6d 8d       	ldd	r22, Y+29	; 0x1d
    1a80:	7e 8d       	ldd	r23, Y+30	; 0x1e
    1a82:	8f 8d       	ldd	r24, Y+31	; 0x1f
    1a84:	98 a1       	ldd	r25, Y+32	; 0x20
    1a86:	62 17       	cp	r22, r18
    1a88:	73 07       	cpc	r23, r19
    1a8a:	84 07       	cpc	r24, r20
    1a8c:	95 07       	cpc	r25, r21
    1a8e:	20 f5       	brcc	.+72     	; 0x1ad8 <__umoddi3+0xc16>
    1a90:	da 01       	movw	r26, r20
    1a92:	c9 01       	movw	r24, r18
    1a94:	6d a0       	ldd	r6, Y+37	; 0x25
    1a96:	7e a0       	ldd	r7, Y+38	; 0x26
    1a98:	8f a0       	ldd	r8, Y+39	; 0x27
    1a9a:	98 a4       	ldd	r9, Y+40	; 0x28
    1a9c:	86 19       	sub	r24, r6
    1a9e:	97 09       	sbc	r25, r7
    1aa0:	a8 09       	sbc	r26, r8
    1aa2:	b9 09       	sbc	r27, r9
    1aa4:	e9 a4       	ldd	r14, Y+41	; 0x29
    1aa6:	fa a4       	ldd	r15, Y+42	; 0x2a
    1aa8:	0b a5       	ldd	r16, Y+43	; 0x2b
    1aaa:	1c a5       	ldd	r17, Y+44	; 0x2c
    1aac:	ae 18       	sub	r10, r14
    1aae:	bf 08       	sbc	r11, r15
    1ab0:	c0 0a       	sbc	r12, r16
    1ab2:	d1 0a       	sbc	r13, r17
    1ab4:	ee 24       	eor	r14, r14
    1ab6:	ff 24       	eor	r15, r15
    1ab8:	87 01       	movw	r16, r14
    1aba:	28 17       	cp	r18, r24
    1abc:	39 07       	cpc	r19, r25
    1abe:	4a 07       	cpc	r20, r26
    1ac0:	5b 07       	cpc	r21, r27
    1ac2:	28 f4       	brcc	.+10     	; 0x1ace <__umoddi3+0xc0c>
    1ac4:	21 e0       	ldi	r18, 0x01	; 1
    1ac6:	e2 2e       	mov	r14, r18
    1ac8:	f1 2c       	mov	r15, r1
    1aca:	01 2d       	mov	r16, r1
    1acc:	11 2d       	mov	r17, r1
    1ace:	ae 18       	sub	r10, r14
    1ad0:	bf 08       	sbc	r11, r15
    1ad2:	c0 0a       	sbc	r12, r16
    1ad4:	d1 0a       	sbc	r13, r17
    1ad6:	02 c0       	rjmp	.+4      	; 0x1adc <__umoddi3+0xc1a>
    1ad8:	da 01       	movw	r26, r20
    1ada:	c9 01       	movw	r24, r18
    1adc:	6d 8c       	ldd	r6, Y+29	; 0x1d
    1ade:	7e 8c       	ldd	r7, Y+30	; 0x1e
    1ae0:	8f 8c       	ldd	r8, Y+31	; 0x1f
    1ae2:	98 a0       	ldd	r9, Y+32	; 0x20
    1ae4:	68 1a       	sub	r6, r24
    1ae6:	79 0a       	sbc	r7, r25
    1ae8:	8a 0a       	sbc	r8, r26
    1aea:	9b 0a       	sbc	r9, r27
    1aec:	49 8d       	ldd	r20, Y+25	; 0x19
    1aee:	5a 8d       	ldd	r21, Y+26	; 0x1a
    1af0:	6b 8d       	ldd	r22, Y+27	; 0x1b
    1af2:	7c 8d       	ldd	r23, Y+28	; 0x1c
    1af4:	4a 19       	sub	r20, r10
    1af6:	5b 09       	sbc	r21, r11
    1af8:	6c 09       	sbc	r22, r12
    1afa:	7d 09       	sbc	r23, r13
    1afc:	5a 01       	movw	r10, r20
    1afe:	6b 01       	movw	r12, r22
    1b00:	22 24       	eor	r2, r2
    1b02:	33 24       	eor	r3, r3
    1b04:	21 01       	movw	r4, r2
    1b06:	6d 8d       	ldd	r22, Y+29	; 0x1d
    1b08:	7e 8d       	ldd	r23, Y+30	; 0x1e
    1b0a:	8f 8d       	ldd	r24, Y+31	; 0x1f
    1b0c:	98 a1       	ldd	r25, Y+32	; 0x20
    1b0e:	66 15       	cp	r22, r6
    1b10:	77 05       	cpc	r23, r7
    1b12:	88 05       	cpc	r24, r8
    1b14:	99 05       	cpc	r25, r9
    1b16:	28 f4       	brcc	.+10     	; 0x1b22 <__umoddi3+0xc60>
    1b18:	81 e0       	ldi	r24, 0x01	; 1
    1b1a:	28 2e       	mov	r2, r24
    1b1c:	31 2c       	mov	r3, r1
    1b1e:	41 2c       	mov	r4, r1
    1b20:	51 2c       	mov	r5, r1
    1b22:	86 01       	movw	r16, r12
    1b24:	75 01       	movw	r14, r10
    1b26:	e2 18       	sub	r14, r2
    1b28:	f3 08       	sbc	r15, r3
    1b2a:	04 09       	sbc	r16, r4
    1b2c:	15 09       	sbc	r17, r5
    1b2e:	a8 01       	movw	r20, r16
    1b30:	97 01       	movw	r18, r14
    1b32:	66 96       	adiw	r28, 0x16	; 22
    1b34:	0f ac       	ldd	r0, Y+63	; 0x3f
    1b36:	66 97       	sbiw	r28, 0x16	; 22
    1b38:	04 c0       	rjmp	.+8      	; 0x1b42 <__umoddi3+0xc80>
    1b3a:	22 0f       	add	r18, r18
    1b3c:	33 1f       	adc	r19, r19
    1b3e:	44 1f       	adc	r20, r20
    1b40:	55 1f       	adc	r21, r21
    1b42:	0a 94       	dec	r0
    1b44:	d2 f7       	brpl	.-12     	; 0x1b3a <__umoddi3+0xc78>
    1b46:	d4 01       	movw	r26, r8
    1b48:	c3 01       	movw	r24, r6
    1b4a:	67 96       	adiw	r28, 0x17	; 23
    1b4c:	0f ac       	ldd	r0, Y+63	; 0x3f
    1b4e:	67 97       	sbiw	r28, 0x17	; 23
    1b50:	04 c0       	rjmp	.+8      	; 0x1b5a <__umoddi3+0xc98>
    1b52:	b6 95       	lsr	r27
    1b54:	a7 95       	ror	r26
    1b56:	97 95       	ror	r25
    1b58:	87 95       	ror	r24
    1b5a:	0a 94       	dec	r0
    1b5c:	d2 f7       	brpl	.-12     	; 0x1b52 <__umoddi3+0xc90>
    1b5e:	28 2b       	or	r18, r24
    1b60:	39 2b       	or	r19, r25
    1b62:	4a 2b       	or	r20, r26
    1b64:	5b 2b       	or	r21, r27
    1b66:	29 8b       	std	Y+17, r18	; 0x11
    1b68:	3a 8b       	std	Y+18, r19	; 0x12
    1b6a:	4b 8b       	std	Y+19, r20	; 0x13
    1b6c:	5c 8b       	std	Y+20, r21	; 0x14
    1b6e:	67 96       	adiw	r28, 0x17	; 23
    1b70:	0f ac       	ldd	r0, Y+63	; 0x3f
    1b72:	67 97       	sbiw	r28, 0x17	; 23
    1b74:	04 c0       	rjmp	.+8      	; 0x1b7e <__umoddi3+0xcbc>
    1b76:	16 95       	lsr	r17
    1b78:	07 95       	ror	r16
    1b7a:	f7 94       	ror	r15
    1b7c:	e7 94       	ror	r14
    1b7e:	0a 94       	dec	r0
    1b80:	d2 f7       	brpl	.-12     	; 0x1b76 <__umoddi3+0xcb4>
    1b82:	ed 8a       	std	Y+21, r14	; 0x15
    1b84:	fe 8a       	std	Y+22, r15	; 0x16
    1b86:	0f 8b       	std	Y+23, r16	; 0x17
    1b88:	18 8f       	std	Y+24, r17	; 0x18
    1b8a:	3a 89       	ldd	r19, Y+18	; 0x12
    1b8c:	4b 89       	ldd	r20, Y+19	; 0x13
    1b8e:	5c 89       	ldd	r21, Y+20	; 0x14
    1b90:	6e 2d       	mov	r22, r14
    1b92:	7e 89       	ldd	r23, Y+22	; 0x16
    1b94:	8f 89       	ldd	r24, Y+23	; 0x17
    1b96:	98 8d       	ldd	r25, Y+24	; 0x18
    1b98:	c5 5a       	subi	r28, 0xA5	; 165
    1b9a:	df 4f       	sbci	r29, 0xFF	; 255
    1b9c:	e2 e1       	ldi	r30, 0x12	; 18
    1b9e:	0c 94 a6 28 	jmp	0x514c	; 0x514c <__epilogue_restores__>

00001ba2 <_fpadd_parts>:
    1ba2:	a0 e0       	ldi	r26, 0x00	; 0
    1ba4:	b0 e0       	ldi	r27, 0x00	; 0
    1ba6:	e7 ed       	ldi	r30, 0xD7	; 215
    1ba8:	fd e0       	ldi	r31, 0x0D	; 13
    1baa:	0c 94 8a 28 	jmp	0x5114	; 0x5114 <__prologue_saves__>
    1bae:	dc 01       	movw	r26, r24
    1bb0:	2b 01       	movw	r4, r22
    1bb2:	fa 01       	movw	r30, r20
    1bb4:	9c 91       	ld	r25, X
    1bb6:	92 30       	cpi	r25, 0x02	; 2
    1bb8:	08 f4       	brcc	.+2      	; 0x1bbc <_fpadd_parts+0x1a>
    1bba:	39 c1       	rjmp	.+626    	; 0x1e2e <_fpadd_parts+0x28c>
    1bbc:	eb 01       	movw	r28, r22
    1bbe:	88 81       	ld	r24, Y
    1bc0:	82 30       	cpi	r24, 0x02	; 2
    1bc2:	08 f4       	brcc	.+2      	; 0x1bc6 <_fpadd_parts+0x24>
    1bc4:	33 c1       	rjmp	.+614    	; 0x1e2c <_fpadd_parts+0x28a>
    1bc6:	94 30       	cpi	r25, 0x04	; 4
    1bc8:	69 f4       	brne	.+26     	; 0x1be4 <_fpadd_parts+0x42>
    1bca:	84 30       	cpi	r24, 0x04	; 4
    1bcc:	09 f0       	breq	.+2      	; 0x1bd0 <_fpadd_parts+0x2e>
    1bce:	2f c1       	rjmp	.+606    	; 0x1e2e <_fpadd_parts+0x28c>
    1bd0:	11 96       	adiw	r26, 0x01	; 1
    1bd2:	9c 91       	ld	r25, X
    1bd4:	11 97       	sbiw	r26, 0x01	; 1
    1bd6:	89 81       	ldd	r24, Y+1	; 0x01
    1bd8:	98 17       	cp	r25, r24
    1bda:	09 f4       	brne	.+2      	; 0x1bde <_fpadd_parts+0x3c>
    1bdc:	28 c1       	rjmp	.+592    	; 0x1e2e <_fpadd_parts+0x28c>
    1bde:	a6 ec       	ldi	r26, 0xC6	; 198
    1be0:	b0 e0       	ldi	r27, 0x00	; 0
    1be2:	25 c1       	rjmp	.+586    	; 0x1e2e <_fpadd_parts+0x28c>
    1be4:	84 30       	cpi	r24, 0x04	; 4
    1be6:	09 f4       	brne	.+2      	; 0x1bea <_fpadd_parts+0x48>
    1be8:	21 c1       	rjmp	.+578    	; 0x1e2c <_fpadd_parts+0x28a>
    1bea:	82 30       	cpi	r24, 0x02	; 2
    1bec:	a9 f4       	brne	.+42     	; 0x1c18 <_fpadd_parts+0x76>
    1bee:	92 30       	cpi	r25, 0x02	; 2
    1bf0:	09 f0       	breq	.+2      	; 0x1bf4 <_fpadd_parts+0x52>
    1bf2:	1d c1       	rjmp	.+570    	; 0x1e2e <_fpadd_parts+0x28c>
    1bf4:	9a 01       	movw	r18, r20
    1bf6:	ad 01       	movw	r20, r26
    1bf8:	88 e0       	ldi	r24, 0x08	; 8
    1bfa:	ea 01       	movw	r28, r20
    1bfc:	09 90       	ld	r0, Y+
    1bfe:	ae 01       	movw	r20, r28
    1c00:	e9 01       	movw	r28, r18
    1c02:	09 92       	st	Y+, r0
    1c04:	9e 01       	movw	r18, r28
    1c06:	81 50       	subi	r24, 0x01	; 1
    1c08:	c1 f7       	brne	.-16     	; 0x1bfa <_fpadd_parts+0x58>
    1c0a:	e2 01       	movw	r28, r4
    1c0c:	89 81       	ldd	r24, Y+1	; 0x01
    1c0e:	11 96       	adiw	r26, 0x01	; 1
    1c10:	9c 91       	ld	r25, X
    1c12:	89 23       	and	r24, r25
    1c14:	81 83       	std	Z+1, r24	; 0x01
    1c16:	08 c1       	rjmp	.+528    	; 0x1e28 <_fpadd_parts+0x286>
    1c18:	92 30       	cpi	r25, 0x02	; 2
    1c1a:	09 f4       	brne	.+2      	; 0x1c1e <_fpadd_parts+0x7c>
    1c1c:	07 c1       	rjmp	.+526    	; 0x1e2c <_fpadd_parts+0x28a>
    1c1e:	12 96       	adiw	r26, 0x02	; 2
    1c20:	2d 90       	ld	r2, X+
    1c22:	3c 90       	ld	r3, X
    1c24:	13 97       	sbiw	r26, 0x03	; 3
    1c26:	eb 01       	movw	r28, r22
    1c28:	8a 81       	ldd	r24, Y+2	; 0x02
    1c2a:	9b 81       	ldd	r25, Y+3	; 0x03
    1c2c:	14 96       	adiw	r26, 0x04	; 4
    1c2e:	ad 90       	ld	r10, X+
    1c30:	bd 90       	ld	r11, X+
    1c32:	cd 90       	ld	r12, X+
    1c34:	dc 90       	ld	r13, X
    1c36:	17 97       	sbiw	r26, 0x07	; 7
    1c38:	ec 80       	ldd	r14, Y+4	; 0x04
    1c3a:	fd 80       	ldd	r15, Y+5	; 0x05
    1c3c:	0e 81       	ldd	r16, Y+6	; 0x06
    1c3e:	1f 81       	ldd	r17, Y+7	; 0x07
    1c40:	91 01       	movw	r18, r2
    1c42:	28 1b       	sub	r18, r24
    1c44:	39 0b       	sbc	r19, r25
    1c46:	b9 01       	movw	r22, r18
    1c48:	37 ff       	sbrs	r19, 7
    1c4a:	04 c0       	rjmp	.+8      	; 0x1c54 <_fpadd_parts+0xb2>
    1c4c:	66 27       	eor	r22, r22
    1c4e:	77 27       	eor	r23, r23
    1c50:	62 1b       	sub	r22, r18
    1c52:	73 0b       	sbc	r23, r19
    1c54:	60 32       	cpi	r22, 0x20	; 32
    1c56:	71 05       	cpc	r23, r1
    1c58:	0c f0       	brlt	.+2      	; 0x1c5c <_fpadd_parts+0xba>
    1c5a:	61 c0       	rjmp	.+194    	; 0x1d1e <_fpadd_parts+0x17c>
    1c5c:	12 16       	cp	r1, r18
    1c5e:	13 06       	cpc	r1, r19
    1c60:	6c f5       	brge	.+90     	; 0x1cbc <_fpadd_parts+0x11a>
    1c62:	37 01       	movw	r6, r14
    1c64:	48 01       	movw	r8, r16
    1c66:	06 2e       	mov	r0, r22
    1c68:	04 c0       	rjmp	.+8      	; 0x1c72 <_fpadd_parts+0xd0>
    1c6a:	96 94       	lsr	r9
    1c6c:	87 94       	ror	r8
    1c6e:	77 94       	ror	r7
    1c70:	67 94       	ror	r6
    1c72:	0a 94       	dec	r0
    1c74:	d2 f7       	brpl	.-12     	; 0x1c6a <_fpadd_parts+0xc8>
    1c76:	21 e0       	ldi	r18, 0x01	; 1
    1c78:	30 e0       	ldi	r19, 0x00	; 0
    1c7a:	40 e0       	ldi	r20, 0x00	; 0
    1c7c:	50 e0       	ldi	r21, 0x00	; 0
    1c7e:	04 c0       	rjmp	.+8      	; 0x1c88 <_fpadd_parts+0xe6>
    1c80:	22 0f       	add	r18, r18
    1c82:	33 1f       	adc	r19, r19
    1c84:	44 1f       	adc	r20, r20
    1c86:	55 1f       	adc	r21, r21
    1c88:	6a 95       	dec	r22
    1c8a:	d2 f7       	brpl	.-12     	; 0x1c80 <_fpadd_parts+0xde>
    1c8c:	21 50       	subi	r18, 0x01	; 1
    1c8e:	30 40       	sbci	r19, 0x00	; 0
    1c90:	40 40       	sbci	r20, 0x00	; 0
    1c92:	50 40       	sbci	r21, 0x00	; 0
    1c94:	2e 21       	and	r18, r14
    1c96:	3f 21       	and	r19, r15
    1c98:	40 23       	and	r20, r16
    1c9a:	51 23       	and	r21, r17
    1c9c:	21 15       	cp	r18, r1
    1c9e:	31 05       	cpc	r19, r1
    1ca0:	41 05       	cpc	r20, r1
    1ca2:	51 05       	cpc	r21, r1
    1ca4:	21 f0       	breq	.+8      	; 0x1cae <_fpadd_parts+0x10c>
    1ca6:	21 e0       	ldi	r18, 0x01	; 1
    1ca8:	30 e0       	ldi	r19, 0x00	; 0
    1caa:	40 e0       	ldi	r20, 0x00	; 0
    1cac:	50 e0       	ldi	r21, 0x00	; 0
    1cae:	79 01       	movw	r14, r18
    1cb0:	8a 01       	movw	r16, r20
    1cb2:	e6 28       	or	r14, r6
    1cb4:	f7 28       	or	r15, r7
    1cb6:	08 29       	or	r16, r8
    1cb8:	19 29       	or	r17, r9
    1cba:	3c c0       	rjmp	.+120    	; 0x1d34 <_fpadd_parts+0x192>
    1cbc:	23 2b       	or	r18, r19
    1cbe:	d1 f1       	breq	.+116    	; 0x1d34 <_fpadd_parts+0x192>
    1cc0:	26 0e       	add	r2, r22
    1cc2:	37 1e       	adc	r3, r23
    1cc4:	35 01       	movw	r6, r10
    1cc6:	46 01       	movw	r8, r12
    1cc8:	06 2e       	mov	r0, r22
    1cca:	04 c0       	rjmp	.+8      	; 0x1cd4 <_fpadd_parts+0x132>
    1ccc:	96 94       	lsr	r9
    1cce:	87 94       	ror	r8
    1cd0:	77 94       	ror	r7
    1cd2:	67 94       	ror	r6
    1cd4:	0a 94       	dec	r0
    1cd6:	d2 f7       	brpl	.-12     	; 0x1ccc <_fpadd_parts+0x12a>
    1cd8:	21 e0       	ldi	r18, 0x01	; 1
    1cda:	30 e0       	ldi	r19, 0x00	; 0
    1cdc:	40 e0       	ldi	r20, 0x00	; 0
    1cde:	50 e0       	ldi	r21, 0x00	; 0
    1ce0:	04 c0       	rjmp	.+8      	; 0x1cea <_fpadd_parts+0x148>
    1ce2:	22 0f       	add	r18, r18
    1ce4:	33 1f       	adc	r19, r19
    1ce6:	44 1f       	adc	r20, r20
    1ce8:	55 1f       	adc	r21, r21
    1cea:	6a 95       	dec	r22
    1cec:	d2 f7       	brpl	.-12     	; 0x1ce2 <_fpadd_parts+0x140>
    1cee:	21 50       	subi	r18, 0x01	; 1
    1cf0:	30 40       	sbci	r19, 0x00	; 0
    1cf2:	40 40       	sbci	r20, 0x00	; 0
    1cf4:	50 40       	sbci	r21, 0x00	; 0
    1cf6:	2a 21       	and	r18, r10
    1cf8:	3b 21       	and	r19, r11
    1cfa:	4c 21       	and	r20, r12
    1cfc:	5d 21       	and	r21, r13
    1cfe:	21 15       	cp	r18, r1
    1d00:	31 05       	cpc	r19, r1
    1d02:	41 05       	cpc	r20, r1
    1d04:	51 05       	cpc	r21, r1
    1d06:	21 f0       	breq	.+8      	; 0x1d10 <_fpadd_parts+0x16e>
    1d08:	21 e0       	ldi	r18, 0x01	; 1
    1d0a:	30 e0       	ldi	r19, 0x00	; 0
    1d0c:	40 e0       	ldi	r20, 0x00	; 0
    1d0e:	50 e0       	ldi	r21, 0x00	; 0
    1d10:	59 01       	movw	r10, r18
    1d12:	6a 01       	movw	r12, r20
    1d14:	a6 28       	or	r10, r6
    1d16:	b7 28       	or	r11, r7
    1d18:	c8 28       	or	r12, r8
    1d1a:	d9 28       	or	r13, r9
    1d1c:	0b c0       	rjmp	.+22     	; 0x1d34 <_fpadd_parts+0x192>
    1d1e:	82 15       	cp	r24, r2
    1d20:	93 05       	cpc	r25, r3
    1d22:	2c f0       	brlt	.+10     	; 0x1d2e <_fpadd_parts+0x18c>
    1d24:	1c 01       	movw	r2, r24
    1d26:	aa 24       	eor	r10, r10
    1d28:	bb 24       	eor	r11, r11
    1d2a:	65 01       	movw	r12, r10
    1d2c:	03 c0       	rjmp	.+6      	; 0x1d34 <_fpadd_parts+0x192>
    1d2e:	ee 24       	eor	r14, r14
    1d30:	ff 24       	eor	r15, r15
    1d32:	87 01       	movw	r16, r14
    1d34:	11 96       	adiw	r26, 0x01	; 1
    1d36:	9c 91       	ld	r25, X
    1d38:	d2 01       	movw	r26, r4
    1d3a:	11 96       	adiw	r26, 0x01	; 1
    1d3c:	8c 91       	ld	r24, X
    1d3e:	98 17       	cp	r25, r24
    1d40:	09 f4       	brne	.+2      	; 0x1d44 <_fpadd_parts+0x1a2>
    1d42:	45 c0       	rjmp	.+138    	; 0x1dce <_fpadd_parts+0x22c>
    1d44:	99 23       	and	r25, r25
    1d46:	39 f0       	breq	.+14     	; 0x1d56 <_fpadd_parts+0x1b4>
    1d48:	a8 01       	movw	r20, r16
    1d4a:	97 01       	movw	r18, r14
    1d4c:	2a 19       	sub	r18, r10
    1d4e:	3b 09       	sbc	r19, r11
    1d50:	4c 09       	sbc	r20, r12
    1d52:	5d 09       	sbc	r21, r13
    1d54:	06 c0       	rjmp	.+12     	; 0x1d62 <_fpadd_parts+0x1c0>
    1d56:	a6 01       	movw	r20, r12
    1d58:	95 01       	movw	r18, r10
    1d5a:	2e 19       	sub	r18, r14
    1d5c:	3f 09       	sbc	r19, r15
    1d5e:	40 0b       	sbc	r20, r16
    1d60:	51 0b       	sbc	r21, r17
    1d62:	57 fd       	sbrc	r21, 7
    1d64:	08 c0       	rjmp	.+16     	; 0x1d76 <_fpadd_parts+0x1d4>
    1d66:	11 82       	std	Z+1, r1	; 0x01
    1d68:	33 82       	std	Z+3, r3	; 0x03
    1d6a:	22 82       	std	Z+2, r2	; 0x02
    1d6c:	24 83       	std	Z+4, r18	; 0x04
    1d6e:	35 83       	std	Z+5, r19	; 0x05
    1d70:	46 83       	std	Z+6, r20	; 0x06
    1d72:	57 83       	std	Z+7, r21	; 0x07
    1d74:	1d c0       	rjmp	.+58     	; 0x1db0 <_fpadd_parts+0x20e>
    1d76:	81 e0       	ldi	r24, 0x01	; 1
    1d78:	81 83       	std	Z+1, r24	; 0x01
    1d7a:	33 82       	std	Z+3, r3	; 0x03
    1d7c:	22 82       	std	Z+2, r2	; 0x02
    1d7e:	88 27       	eor	r24, r24
    1d80:	99 27       	eor	r25, r25
    1d82:	dc 01       	movw	r26, r24
    1d84:	82 1b       	sub	r24, r18
    1d86:	93 0b       	sbc	r25, r19
    1d88:	a4 0b       	sbc	r26, r20
    1d8a:	b5 0b       	sbc	r27, r21
    1d8c:	84 83       	std	Z+4, r24	; 0x04
    1d8e:	95 83       	std	Z+5, r25	; 0x05
    1d90:	a6 83       	std	Z+6, r26	; 0x06
    1d92:	b7 83       	std	Z+7, r27	; 0x07
    1d94:	0d c0       	rjmp	.+26     	; 0x1db0 <_fpadd_parts+0x20e>
    1d96:	22 0f       	add	r18, r18
    1d98:	33 1f       	adc	r19, r19
    1d9a:	44 1f       	adc	r20, r20
    1d9c:	55 1f       	adc	r21, r21
    1d9e:	24 83       	std	Z+4, r18	; 0x04
    1da0:	35 83       	std	Z+5, r19	; 0x05
    1da2:	46 83       	std	Z+6, r20	; 0x06
    1da4:	57 83       	std	Z+7, r21	; 0x07
    1da6:	82 81       	ldd	r24, Z+2	; 0x02
    1da8:	93 81       	ldd	r25, Z+3	; 0x03
    1daa:	01 97       	sbiw	r24, 0x01	; 1
    1dac:	93 83       	std	Z+3, r25	; 0x03
    1dae:	82 83       	std	Z+2, r24	; 0x02
    1db0:	24 81       	ldd	r18, Z+4	; 0x04
    1db2:	35 81       	ldd	r19, Z+5	; 0x05
    1db4:	46 81       	ldd	r20, Z+6	; 0x06
    1db6:	57 81       	ldd	r21, Z+7	; 0x07
    1db8:	da 01       	movw	r26, r20
    1dba:	c9 01       	movw	r24, r18
    1dbc:	01 97       	sbiw	r24, 0x01	; 1
    1dbe:	a1 09       	sbc	r26, r1
    1dc0:	b1 09       	sbc	r27, r1
    1dc2:	8f 5f       	subi	r24, 0xFF	; 255
    1dc4:	9f 4f       	sbci	r25, 0xFF	; 255
    1dc6:	af 4f       	sbci	r26, 0xFF	; 255
    1dc8:	bf 43       	sbci	r27, 0x3F	; 63
    1dca:	28 f3       	brcs	.-54     	; 0x1d96 <_fpadd_parts+0x1f4>
    1dcc:	0b c0       	rjmp	.+22     	; 0x1de4 <_fpadd_parts+0x242>
    1dce:	91 83       	std	Z+1, r25	; 0x01
    1dd0:	33 82       	std	Z+3, r3	; 0x03
    1dd2:	22 82       	std	Z+2, r2	; 0x02
    1dd4:	ea 0c       	add	r14, r10
    1dd6:	fb 1c       	adc	r15, r11
    1dd8:	0c 1d       	adc	r16, r12
    1dda:	1d 1d       	adc	r17, r13
    1ddc:	e4 82       	std	Z+4, r14	; 0x04
    1dde:	f5 82       	std	Z+5, r15	; 0x05
    1de0:	06 83       	std	Z+6, r16	; 0x06
    1de2:	17 83       	std	Z+7, r17	; 0x07
    1de4:	83 e0       	ldi	r24, 0x03	; 3
    1de6:	80 83       	st	Z, r24
    1de8:	24 81       	ldd	r18, Z+4	; 0x04
    1dea:	35 81       	ldd	r19, Z+5	; 0x05
    1dec:	46 81       	ldd	r20, Z+6	; 0x06
    1dee:	57 81       	ldd	r21, Z+7	; 0x07
    1df0:	57 ff       	sbrs	r21, 7
    1df2:	1a c0       	rjmp	.+52     	; 0x1e28 <_fpadd_parts+0x286>
    1df4:	c9 01       	movw	r24, r18
    1df6:	aa 27       	eor	r26, r26
    1df8:	97 fd       	sbrc	r25, 7
    1dfa:	a0 95       	com	r26
    1dfc:	ba 2f       	mov	r27, r26
    1dfe:	81 70       	andi	r24, 0x01	; 1
    1e00:	90 70       	andi	r25, 0x00	; 0
    1e02:	a0 70       	andi	r26, 0x00	; 0
    1e04:	b0 70       	andi	r27, 0x00	; 0
    1e06:	56 95       	lsr	r21
    1e08:	47 95       	ror	r20
    1e0a:	37 95       	ror	r19
    1e0c:	27 95       	ror	r18
    1e0e:	82 2b       	or	r24, r18
    1e10:	93 2b       	or	r25, r19
    1e12:	a4 2b       	or	r26, r20
    1e14:	b5 2b       	or	r27, r21
    1e16:	84 83       	std	Z+4, r24	; 0x04
    1e18:	95 83       	std	Z+5, r25	; 0x05
    1e1a:	a6 83       	std	Z+6, r26	; 0x06
    1e1c:	b7 83       	std	Z+7, r27	; 0x07
    1e1e:	82 81       	ldd	r24, Z+2	; 0x02
    1e20:	93 81       	ldd	r25, Z+3	; 0x03
    1e22:	01 96       	adiw	r24, 0x01	; 1
    1e24:	93 83       	std	Z+3, r25	; 0x03
    1e26:	82 83       	std	Z+2, r24	; 0x02
    1e28:	df 01       	movw	r26, r30
    1e2a:	01 c0       	rjmp	.+2      	; 0x1e2e <_fpadd_parts+0x28c>
    1e2c:	d2 01       	movw	r26, r4
    1e2e:	cd 01       	movw	r24, r26
    1e30:	cd b7       	in	r28, 0x3d	; 61
    1e32:	de b7       	in	r29, 0x3e	; 62
    1e34:	e2 e1       	ldi	r30, 0x12	; 18
    1e36:	0c 94 a6 28 	jmp	0x514c	; 0x514c <__epilogue_restores__>

00001e3a <__subsf3>:
    1e3a:	a0 e2       	ldi	r26, 0x20	; 32
    1e3c:	b0 e0       	ldi	r27, 0x00	; 0
    1e3e:	e3 e2       	ldi	r30, 0x23	; 35
    1e40:	ff e0       	ldi	r31, 0x0F	; 15
    1e42:	0c 94 96 28 	jmp	0x512c	; 0x512c <__prologue_saves__+0x18>
    1e46:	69 83       	std	Y+1, r22	; 0x01
    1e48:	7a 83       	std	Y+2, r23	; 0x02
    1e4a:	8b 83       	std	Y+3, r24	; 0x03
    1e4c:	9c 83       	std	Y+4, r25	; 0x04
    1e4e:	2d 83       	std	Y+5, r18	; 0x05
    1e50:	3e 83       	std	Y+6, r19	; 0x06
    1e52:	4f 83       	std	Y+7, r20	; 0x07
    1e54:	58 87       	std	Y+8, r21	; 0x08
    1e56:	e9 e0       	ldi	r30, 0x09	; 9
    1e58:	ee 2e       	mov	r14, r30
    1e5a:	f1 2c       	mov	r15, r1
    1e5c:	ec 0e       	add	r14, r28
    1e5e:	fd 1e       	adc	r15, r29
    1e60:	ce 01       	movw	r24, r28
    1e62:	01 96       	adiw	r24, 0x01	; 1
    1e64:	b7 01       	movw	r22, r14
    1e66:	0e 94 db 12 	call	0x25b6	; 0x25b6 <__unpack_f>
    1e6a:	8e 01       	movw	r16, r28
    1e6c:	0f 5e       	subi	r16, 0xEF	; 239
    1e6e:	1f 4f       	sbci	r17, 0xFF	; 255
    1e70:	ce 01       	movw	r24, r28
    1e72:	05 96       	adiw	r24, 0x05	; 5
    1e74:	b8 01       	movw	r22, r16
    1e76:	0e 94 db 12 	call	0x25b6	; 0x25b6 <__unpack_f>
    1e7a:	8a 89       	ldd	r24, Y+18	; 0x12
    1e7c:	91 e0       	ldi	r25, 0x01	; 1
    1e7e:	89 27       	eor	r24, r25
    1e80:	8a 8b       	std	Y+18, r24	; 0x12
    1e82:	c7 01       	movw	r24, r14
    1e84:	b8 01       	movw	r22, r16
    1e86:	ae 01       	movw	r20, r28
    1e88:	47 5e       	subi	r20, 0xE7	; 231
    1e8a:	5f 4f       	sbci	r21, 0xFF	; 255
    1e8c:	0e 94 d1 0d 	call	0x1ba2	; 0x1ba2 <_fpadd_parts>
    1e90:	0e 94 06 12 	call	0x240c	; 0x240c <__pack_f>
    1e94:	a0 96       	adiw	r28, 0x20	; 32
    1e96:	e6 e0       	ldi	r30, 0x06	; 6
    1e98:	0c 94 b2 28 	jmp	0x5164	; 0x5164 <__epilogue_restores__+0x18>

00001e9c <__addsf3>:
    1e9c:	a0 e2       	ldi	r26, 0x20	; 32
    1e9e:	b0 e0       	ldi	r27, 0x00	; 0
    1ea0:	e4 e5       	ldi	r30, 0x54	; 84
    1ea2:	ff e0       	ldi	r31, 0x0F	; 15
    1ea4:	0c 94 96 28 	jmp	0x512c	; 0x512c <__prologue_saves__+0x18>
    1ea8:	69 83       	std	Y+1, r22	; 0x01
    1eaa:	7a 83       	std	Y+2, r23	; 0x02
    1eac:	8b 83       	std	Y+3, r24	; 0x03
    1eae:	9c 83       	std	Y+4, r25	; 0x04
    1eb0:	2d 83       	std	Y+5, r18	; 0x05
    1eb2:	3e 83       	std	Y+6, r19	; 0x06
    1eb4:	4f 83       	std	Y+7, r20	; 0x07
    1eb6:	58 87       	std	Y+8, r21	; 0x08
    1eb8:	f9 e0       	ldi	r31, 0x09	; 9
    1eba:	ef 2e       	mov	r14, r31
    1ebc:	f1 2c       	mov	r15, r1
    1ebe:	ec 0e       	add	r14, r28
    1ec0:	fd 1e       	adc	r15, r29
    1ec2:	ce 01       	movw	r24, r28
    1ec4:	01 96       	adiw	r24, 0x01	; 1
    1ec6:	b7 01       	movw	r22, r14
    1ec8:	0e 94 db 12 	call	0x25b6	; 0x25b6 <__unpack_f>
    1ecc:	8e 01       	movw	r16, r28
    1ece:	0f 5e       	subi	r16, 0xEF	; 239
    1ed0:	1f 4f       	sbci	r17, 0xFF	; 255
    1ed2:	ce 01       	movw	r24, r28
    1ed4:	05 96       	adiw	r24, 0x05	; 5
    1ed6:	b8 01       	movw	r22, r16
    1ed8:	0e 94 db 12 	call	0x25b6	; 0x25b6 <__unpack_f>
    1edc:	c7 01       	movw	r24, r14
    1ede:	b8 01       	movw	r22, r16
    1ee0:	ae 01       	movw	r20, r28
    1ee2:	47 5e       	subi	r20, 0xE7	; 231
    1ee4:	5f 4f       	sbci	r21, 0xFF	; 255
    1ee6:	0e 94 d1 0d 	call	0x1ba2	; 0x1ba2 <_fpadd_parts>
    1eea:	0e 94 06 12 	call	0x240c	; 0x240c <__pack_f>
    1eee:	a0 96       	adiw	r28, 0x20	; 32
    1ef0:	e6 e0       	ldi	r30, 0x06	; 6
    1ef2:	0c 94 b2 28 	jmp	0x5164	; 0x5164 <__epilogue_restores__+0x18>

00001ef6 <__mulsf3>:
    1ef6:	a0 e2       	ldi	r26, 0x20	; 32
    1ef8:	b0 e0       	ldi	r27, 0x00	; 0
    1efa:	e1 e8       	ldi	r30, 0x81	; 129
    1efc:	ff e0       	ldi	r31, 0x0F	; 15
    1efe:	0c 94 8a 28 	jmp	0x5114	; 0x5114 <__prologue_saves__>
    1f02:	69 83       	std	Y+1, r22	; 0x01
    1f04:	7a 83       	std	Y+2, r23	; 0x02
    1f06:	8b 83       	std	Y+3, r24	; 0x03
    1f08:	9c 83       	std	Y+4, r25	; 0x04
    1f0a:	2d 83       	std	Y+5, r18	; 0x05
    1f0c:	3e 83       	std	Y+6, r19	; 0x06
    1f0e:	4f 83       	std	Y+7, r20	; 0x07
    1f10:	58 87       	std	Y+8, r21	; 0x08
    1f12:	ce 01       	movw	r24, r28
    1f14:	01 96       	adiw	r24, 0x01	; 1
    1f16:	be 01       	movw	r22, r28
    1f18:	67 5f       	subi	r22, 0xF7	; 247
    1f1a:	7f 4f       	sbci	r23, 0xFF	; 255
    1f1c:	0e 94 db 12 	call	0x25b6	; 0x25b6 <__unpack_f>
    1f20:	ce 01       	movw	r24, r28
    1f22:	05 96       	adiw	r24, 0x05	; 5
    1f24:	be 01       	movw	r22, r28
    1f26:	6f 5e       	subi	r22, 0xEF	; 239
    1f28:	7f 4f       	sbci	r23, 0xFF	; 255
    1f2a:	0e 94 db 12 	call	0x25b6	; 0x25b6 <__unpack_f>
    1f2e:	99 85       	ldd	r25, Y+9	; 0x09
    1f30:	92 30       	cpi	r25, 0x02	; 2
    1f32:	88 f0       	brcs	.+34     	; 0x1f56 <__mulsf3+0x60>
    1f34:	89 89       	ldd	r24, Y+17	; 0x11
    1f36:	82 30       	cpi	r24, 0x02	; 2
    1f38:	c8 f0       	brcs	.+50     	; 0x1f6c <__mulsf3+0x76>
    1f3a:	94 30       	cpi	r25, 0x04	; 4
    1f3c:	19 f4       	brne	.+6      	; 0x1f44 <__mulsf3+0x4e>
    1f3e:	82 30       	cpi	r24, 0x02	; 2
    1f40:	51 f4       	brne	.+20     	; 0x1f56 <__mulsf3+0x60>
    1f42:	04 c0       	rjmp	.+8      	; 0x1f4c <__mulsf3+0x56>
    1f44:	84 30       	cpi	r24, 0x04	; 4
    1f46:	29 f4       	brne	.+10     	; 0x1f52 <__mulsf3+0x5c>
    1f48:	92 30       	cpi	r25, 0x02	; 2
    1f4a:	81 f4       	brne	.+32     	; 0x1f6c <__mulsf3+0x76>
    1f4c:	86 ec       	ldi	r24, 0xC6	; 198
    1f4e:	90 e0       	ldi	r25, 0x00	; 0
    1f50:	c6 c0       	rjmp	.+396    	; 0x20de <__mulsf3+0x1e8>
    1f52:	92 30       	cpi	r25, 0x02	; 2
    1f54:	49 f4       	brne	.+18     	; 0x1f68 <__mulsf3+0x72>
    1f56:	20 e0       	ldi	r18, 0x00	; 0
    1f58:	9a 85       	ldd	r25, Y+10	; 0x0a
    1f5a:	8a 89       	ldd	r24, Y+18	; 0x12
    1f5c:	98 13       	cpse	r25, r24
    1f5e:	21 e0       	ldi	r18, 0x01	; 1
    1f60:	2a 87       	std	Y+10, r18	; 0x0a
    1f62:	ce 01       	movw	r24, r28
    1f64:	09 96       	adiw	r24, 0x09	; 9
    1f66:	bb c0       	rjmp	.+374    	; 0x20de <__mulsf3+0x1e8>
    1f68:	82 30       	cpi	r24, 0x02	; 2
    1f6a:	49 f4       	brne	.+18     	; 0x1f7e <__mulsf3+0x88>
    1f6c:	20 e0       	ldi	r18, 0x00	; 0
    1f6e:	9a 85       	ldd	r25, Y+10	; 0x0a
    1f70:	8a 89       	ldd	r24, Y+18	; 0x12
    1f72:	98 13       	cpse	r25, r24
    1f74:	21 e0       	ldi	r18, 0x01	; 1
    1f76:	2a 8b       	std	Y+18, r18	; 0x12
    1f78:	ce 01       	movw	r24, r28
    1f7a:	41 96       	adiw	r24, 0x11	; 17
    1f7c:	b0 c0       	rjmp	.+352    	; 0x20de <__mulsf3+0x1e8>
    1f7e:	2d 84       	ldd	r2, Y+13	; 0x0d
    1f80:	3e 84       	ldd	r3, Y+14	; 0x0e
    1f82:	4f 84       	ldd	r4, Y+15	; 0x0f
    1f84:	58 88       	ldd	r5, Y+16	; 0x10
    1f86:	6d 88       	ldd	r6, Y+21	; 0x15
    1f88:	7e 88       	ldd	r7, Y+22	; 0x16
    1f8a:	8f 88       	ldd	r8, Y+23	; 0x17
    1f8c:	98 8c       	ldd	r9, Y+24	; 0x18
    1f8e:	ee 24       	eor	r14, r14
    1f90:	ff 24       	eor	r15, r15
    1f92:	87 01       	movw	r16, r14
    1f94:	aa 24       	eor	r10, r10
    1f96:	bb 24       	eor	r11, r11
    1f98:	65 01       	movw	r12, r10
    1f9a:	40 e0       	ldi	r20, 0x00	; 0
    1f9c:	50 e0       	ldi	r21, 0x00	; 0
    1f9e:	60 e0       	ldi	r22, 0x00	; 0
    1fa0:	70 e0       	ldi	r23, 0x00	; 0
    1fa2:	e0 e0       	ldi	r30, 0x00	; 0
    1fa4:	f0 e0       	ldi	r31, 0x00	; 0
    1fa6:	c1 01       	movw	r24, r2
    1fa8:	81 70       	andi	r24, 0x01	; 1
    1faa:	90 70       	andi	r25, 0x00	; 0
    1fac:	89 2b       	or	r24, r25
    1fae:	e9 f0       	breq	.+58     	; 0x1fea <__mulsf3+0xf4>
    1fb0:	e6 0c       	add	r14, r6
    1fb2:	f7 1c       	adc	r15, r7
    1fb4:	08 1d       	adc	r16, r8
    1fb6:	19 1d       	adc	r17, r9
    1fb8:	9a 01       	movw	r18, r20
    1fba:	ab 01       	movw	r20, r22
    1fbc:	2a 0d       	add	r18, r10
    1fbe:	3b 1d       	adc	r19, r11
    1fc0:	4c 1d       	adc	r20, r12
    1fc2:	5d 1d       	adc	r21, r13
    1fc4:	80 e0       	ldi	r24, 0x00	; 0
    1fc6:	90 e0       	ldi	r25, 0x00	; 0
    1fc8:	a0 e0       	ldi	r26, 0x00	; 0
    1fca:	b0 e0       	ldi	r27, 0x00	; 0
    1fcc:	e6 14       	cp	r14, r6
    1fce:	f7 04       	cpc	r15, r7
    1fd0:	08 05       	cpc	r16, r8
    1fd2:	19 05       	cpc	r17, r9
    1fd4:	20 f4       	brcc	.+8      	; 0x1fde <__mulsf3+0xe8>
    1fd6:	81 e0       	ldi	r24, 0x01	; 1
    1fd8:	90 e0       	ldi	r25, 0x00	; 0
    1fda:	a0 e0       	ldi	r26, 0x00	; 0
    1fdc:	b0 e0       	ldi	r27, 0x00	; 0
    1fde:	ba 01       	movw	r22, r20
    1fe0:	a9 01       	movw	r20, r18
    1fe2:	48 0f       	add	r20, r24
    1fe4:	59 1f       	adc	r21, r25
    1fe6:	6a 1f       	adc	r22, r26
    1fe8:	7b 1f       	adc	r23, r27
    1fea:	aa 0c       	add	r10, r10
    1fec:	bb 1c       	adc	r11, r11
    1fee:	cc 1c       	adc	r12, r12
    1ff0:	dd 1c       	adc	r13, r13
    1ff2:	97 fe       	sbrs	r9, 7
    1ff4:	08 c0       	rjmp	.+16     	; 0x2006 <__mulsf3+0x110>
    1ff6:	81 e0       	ldi	r24, 0x01	; 1
    1ff8:	90 e0       	ldi	r25, 0x00	; 0
    1ffa:	a0 e0       	ldi	r26, 0x00	; 0
    1ffc:	b0 e0       	ldi	r27, 0x00	; 0
    1ffe:	a8 2a       	or	r10, r24
    2000:	b9 2a       	or	r11, r25
    2002:	ca 2a       	or	r12, r26
    2004:	db 2a       	or	r13, r27
    2006:	31 96       	adiw	r30, 0x01	; 1
    2008:	e0 32       	cpi	r30, 0x20	; 32
    200a:	f1 05       	cpc	r31, r1
    200c:	49 f0       	breq	.+18     	; 0x2020 <__mulsf3+0x12a>
    200e:	66 0c       	add	r6, r6
    2010:	77 1c       	adc	r7, r7
    2012:	88 1c       	adc	r8, r8
    2014:	99 1c       	adc	r9, r9
    2016:	56 94       	lsr	r5
    2018:	47 94       	ror	r4
    201a:	37 94       	ror	r3
    201c:	27 94       	ror	r2
    201e:	c3 cf       	rjmp	.-122    	; 0x1fa6 <__mulsf3+0xb0>
    2020:	fa 85       	ldd	r31, Y+10	; 0x0a
    2022:	ea 89       	ldd	r30, Y+18	; 0x12
    2024:	2b 89       	ldd	r18, Y+19	; 0x13
    2026:	3c 89       	ldd	r19, Y+20	; 0x14
    2028:	8b 85       	ldd	r24, Y+11	; 0x0b
    202a:	9c 85       	ldd	r25, Y+12	; 0x0c
    202c:	28 0f       	add	r18, r24
    202e:	39 1f       	adc	r19, r25
    2030:	2e 5f       	subi	r18, 0xFE	; 254
    2032:	3f 4f       	sbci	r19, 0xFF	; 255
    2034:	17 c0       	rjmp	.+46     	; 0x2064 <__mulsf3+0x16e>
    2036:	ca 01       	movw	r24, r20
    2038:	81 70       	andi	r24, 0x01	; 1
    203a:	90 70       	andi	r25, 0x00	; 0
    203c:	89 2b       	or	r24, r25
    203e:	61 f0       	breq	.+24     	; 0x2058 <__mulsf3+0x162>
    2040:	16 95       	lsr	r17
    2042:	07 95       	ror	r16
    2044:	f7 94       	ror	r15
    2046:	e7 94       	ror	r14
    2048:	80 e0       	ldi	r24, 0x00	; 0
    204a:	90 e0       	ldi	r25, 0x00	; 0
    204c:	a0 e0       	ldi	r26, 0x00	; 0
    204e:	b0 e8       	ldi	r27, 0x80	; 128
    2050:	e8 2a       	or	r14, r24
    2052:	f9 2a       	or	r15, r25
    2054:	0a 2b       	or	r16, r26
    2056:	1b 2b       	or	r17, r27
    2058:	76 95       	lsr	r23
    205a:	67 95       	ror	r22
    205c:	57 95       	ror	r21
    205e:	47 95       	ror	r20
    2060:	2f 5f       	subi	r18, 0xFF	; 255
    2062:	3f 4f       	sbci	r19, 0xFF	; 255
    2064:	77 fd       	sbrc	r23, 7
    2066:	e7 cf       	rjmp	.-50     	; 0x2036 <__mulsf3+0x140>
    2068:	0c c0       	rjmp	.+24     	; 0x2082 <__mulsf3+0x18c>
    206a:	44 0f       	add	r20, r20
    206c:	55 1f       	adc	r21, r21
    206e:	66 1f       	adc	r22, r22
    2070:	77 1f       	adc	r23, r23
    2072:	17 fd       	sbrc	r17, 7
    2074:	41 60       	ori	r20, 0x01	; 1
    2076:	ee 0c       	add	r14, r14
    2078:	ff 1c       	adc	r15, r15
    207a:	00 1f       	adc	r16, r16
    207c:	11 1f       	adc	r17, r17
    207e:	21 50       	subi	r18, 0x01	; 1
    2080:	30 40       	sbci	r19, 0x00	; 0
    2082:	40 30       	cpi	r20, 0x00	; 0
    2084:	90 e0       	ldi	r25, 0x00	; 0
    2086:	59 07       	cpc	r21, r25
    2088:	90 e0       	ldi	r25, 0x00	; 0
    208a:	69 07       	cpc	r22, r25
    208c:	90 e4       	ldi	r25, 0x40	; 64
    208e:	79 07       	cpc	r23, r25
    2090:	60 f3       	brcs	.-40     	; 0x206a <__mulsf3+0x174>
    2092:	2b 8f       	std	Y+27, r18	; 0x1b
    2094:	3c 8f       	std	Y+28, r19	; 0x1c
    2096:	db 01       	movw	r26, r22
    2098:	ca 01       	movw	r24, r20
    209a:	8f 77       	andi	r24, 0x7F	; 127
    209c:	90 70       	andi	r25, 0x00	; 0
    209e:	a0 70       	andi	r26, 0x00	; 0
    20a0:	b0 70       	andi	r27, 0x00	; 0
    20a2:	80 34       	cpi	r24, 0x40	; 64
    20a4:	91 05       	cpc	r25, r1
    20a6:	a1 05       	cpc	r26, r1
    20a8:	b1 05       	cpc	r27, r1
    20aa:	61 f4       	brne	.+24     	; 0x20c4 <__mulsf3+0x1ce>
    20ac:	47 fd       	sbrc	r20, 7
    20ae:	0a c0       	rjmp	.+20     	; 0x20c4 <__mulsf3+0x1ce>
    20b0:	e1 14       	cp	r14, r1
    20b2:	f1 04       	cpc	r15, r1
    20b4:	01 05       	cpc	r16, r1
    20b6:	11 05       	cpc	r17, r1
    20b8:	29 f0       	breq	.+10     	; 0x20c4 <__mulsf3+0x1ce>
    20ba:	40 5c       	subi	r20, 0xC0	; 192
    20bc:	5f 4f       	sbci	r21, 0xFF	; 255
    20be:	6f 4f       	sbci	r22, 0xFF	; 255
    20c0:	7f 4f       	sbci	r23, 0xFF	; 255
    20c2:	40 78       	andi	r20, 0x80	; 128
    20c4:	1a 8e       	std	Y+26, r1	; 0x1a
    20c6:	fe 17       	cp	r31, r30
    20c8:	11 f0       	breq	.+4      	; 0x20ce <__mulsf3+0x1d8>
    20ca:	81 e0       	ldi	r24, 0x01	; 1
    20cc:	8a 8f       	std	Y+26, r24	; 0x1a
    20ce:	4d 8f       	std	Y+29, r20	; 0x1d
    20d0:	5e 8f       	std	Y+30, r21	; 0x1e
    20d2:	6f 8f       	std	Y+31, r22	; 0x1f
    20d4:	78 a3       	std	Y+32, r23	; 0x20
    20d6:	83 e0       	ldi	r24, 0x03	; 3
    20d8:	89 8f       	std	Y+25, r24	; 0x19
    20da:	ce 01       	movw	r24, r28
    20dc:	49 96       	adiw	r24, 0x19	; 25
    20de:	0e 94 06 12 	call	0x240c	; 0x240c <__pack_f>
    20e2:	a0 96       	adiw	r28, 0x20	; 32
    20e4:	e2 e1       	ldi	r30, 0x12	; 18
    20e6:	0c 94 a6 28 	jmp	0x514c	; 0x514c <__epilogue_restores__>

000020ea <__gtsf2>:
    20ea:	a8 e1       	ldi	r26, 0x18	; 24
    20ec:	b0 e0       	ldi	r27, 0x00	; 0
    20ee:	eb e7       	ldi	r30, 0x7B	; 123
    20f0:	f0 e1       	ldi	r31, 0x10	; 16
    20f2:	0c 94 96 28 	jmp	0x512c	; 0x512c <__prologue_saves__+0x18>
    20f6:	69 83       	std	Y+1, r22	; 0x01
    20f8:	7a 83       	std	Y+2, r23	; 0x02
    20fa:	8b 83       	std	Y+3, r24	; 0x03
    20fc:	9c 83       	std	Y+4, r25	; 0x04
    20fe:	2d 83       	std	Y+5, r18	; 0x05
    2100:	3e 83       	std	Y+6, r19	; 0x06
    2102:	4f 83       	std	Y+7, r20	; 0x07
    2104:	58 87       	std	Y+8, r21	; 0x08
    2106:	89 e0       	ldi	r24, 0x09	; 9
    2108:	e8 2e       	mov	r14, r24
    210a:	f1 2c       	mov	r15, r1
    210c:	ec 0e       	add	r14, r28
    210e:	fd 1e       	adc	r15, r29
    2110:	ce 01       	movw	r24, r28
    2112:	01 96       	adiw	r24, 0x01	; 1
    2114:	b7 01       	movw	r22, r14
    2116:	0e 94 db 12 	call	0x25b6	; 0x25b6 <__unpack_f>
    211a:	8e 01       	movw	r16, r28
    211c:	0f 5e       	subi	r16, 0xEF	; 239
    211e:	1f 4f       	sbci	r17, 0xFF	; 255
    2120:	ce 01       	movw	r24, r28
    2122:	05 96       	adiw	r24, 0x05	; 5
    2124:	b8 01       	movw	r22, r16
    2126:	0e 94 db 12 	call	0x25b6	; 0x25b6 <__unpack_f>
    212a:	89 85       	ldd	r24, Y+9	; 0x09
    212c:	82 30       	cpi	r24, 0x02	; 2
    212e:	40 f0       	brcs	.+16     	; 0x2140 <__gtsf2+0x56>
    2130:	89 89       	ldd	r24, Y+17	; 0x11
    2132:	82 30       	cpi	r24, 0x02	; 2
    2134:	28 f0       	brcs	.+10     	; 0x2140 <__gtsf2+0x56>
    2136:	c7 01       	movw	r24, r14
    2138:	b8 01       	movw	r22, r16
    213a:	0e 94 53 13 	call	0x26a6	; 0x26a6 <__fpcmp_parts_f>
    213e:	01 c0       	rjmp	.+2      	; 0x2142 <__gtsf2+0x58>
    2140:	8f ef       	ldi	r24, 0xFF	; 255
    2142:	68 96       	adiw	r28, 0x18	; 24
    2144:	e6 e0       	ldi	r30, 0x06	; 6
    2146:	0c 94 b2 28 	jmp	0x5164	; 0x5164 <__epilogue_restores__+0x18>

0000214a <__gesf2>:
    214a:	a8 e1       	ldi	r26, 0x18	; 24
    214c:	b0 e0       	ldi	r27, 0x00	; 0
    214e:	eb ea       	ldi	r30, 0xAB	; 171
    2150:	f0 e1       	ldi	r31, 0x10	; 16
    2152:	0c 94 96 28 	jmp	0x512c	; 0x512c <__prologue_saves__+0x18>
    2156:	69 83       	std	Y+1, r22	; 0x01
    2158:	7a 83       	std	Y+2, r23	; 0x02
    215a:	8b 83       	std	Y+3, r24	; 0x03
    215c:	9c 83       	std	Y+4, r25	; 0x04
    215e:	2d 83       	std	Y+5, r18	; 0x05
    2160:	3e 83       	std	Y+6, r19	; 0x06
    2162:	4f 83       	std	Y+7, r20	; 0x07
    2164:	58 87       	std	Y+8, r21	; 0x08
    2166:	89 e0       	ldi	r24, 0x09	; 9
    2168:	e8 2e       	mov	r14, r24
    216a:	f1 2c       	mov	r15, r1
    216c:	ec 0e       	add	r14, r28
    216e:	fd 1e       	adc	r15, r29
    2170:	ce 01       	movw	r24, r28
    2172:	01 96       	adiw	r24, 0x01	; 1
    2174:	b7 01       	movw	r22, r14
    2176:	0e 94 db 12 	call	0x25b6	; 0x25b6 <__unpack_f>
    217a:	8e 01       	movw	r16, r28
    217c:	0f 5e       	subi	r16, 0xEF	; 239
    217e:	1f 4f       	sbci	r17, 0xFF	; 255
    2180:	ce 01       	movw	r24, r28
    2182:	05 96       	adiw	r24, 0x05	; 5
    2184:	b8 01       	movw	r22, r16
    2186:	0e 94 db 12 	call	0x25b6	; 0x25b6 <__unpack_f>
    218a:	89 85       	ldd	r24, Y+9	; 0x09
    218c:	82 30       	cpi	r24, 0x02	; 2
    218e:	40 f0       	brcs	.+16     	; 0x21a0 <__gesf2+0x56>
    2190:	89 89       	ldd	r24, Y+17	; 0x11
    2192:	82 30       	cpi	r24, 0x02	; 2
    2194:	28 f0       	brcs	.+10     	; 0x21a0 <__gesf2+0x56>
    2196:	c7 01       	movw	r24, r14
    2198:	b8 01       	movw	r22, r16
    219a:	0e 94 53 13 	call	0x26a6	; 0x26a6 <__fpcmp_parts_f>
    219e:	01 c0       	rjmp	.+2      	; 0x21a2 <__gesf2+0x58>
    21a0:	8f ef       	ldi	r24, 0xFF	; 255
    21a2:	68 96       	adiw	r28, 0x18	; 24
    21a4:	e6 e0       	ldi	r30, 0x06	; 6
    21a6:	0c 94 b2 28 	jmp	0x5164	; 0x5164 <__epilogue_restores__+0x18>

000021aa <__ltsf2>:
    21aa:	a8 e1       	ldi	r26, 0x18	; 24
    21ac:	b0 e0       	ldi	r27, 0x00	; 0
    21ae:	eb ed       	ldi	r30, 0xDB	; 219
    21b0:	f0 e1       	ldi	r31, 0x10	; 16
    21b2:	0c 94 96 28 	jmp	0x512c	; 0x512c <__prologue_saves__+0x18>
    21b6:	69 83       	std	Y+1, r22	; 0x01
    21b8:	7a 83       	std	Y+2, r23	; 0x02
    21ba:	8b 83       	std	Y+3, r24	; 0x03
    21bc:	9c 83       	std	Y+4, r25	; 0x04
    21be:	2d 83       	std	Y+5, r18	; 0x05
    21c0:	3e 83       	std	Y+6, r19	; 0x06
    21c2:	4f 83       	std	Y+7, r20	; 0x07
    21c4:	58 87       	std	Y+8, r21	; 0x08
    21c6:	89 e0       	ldi	r24, 0x09	; 9
    21c8:	e8 2e       	mov	r14, r24
    21ca:	f1 2c       	mov	r15, r1
    21cc:	ec 0e       	add	r14, r28
    21ce:	fd 1e       	adc	r15, r29
    21d0:	ce 01       	movw	r24, r28
    21d2:	01 96       	adiw	r24, 0x01	; 1
    21d4:	b7 01       	movw	r22, r14
    21d6:	0e 94 db 12 	call	0x25b6	; 0x25b6 <__unpack_f>
    21da:	8e 01       	movw	r16, r28
    21dc:	0f 5e       	subi	r16, 0xEF	; 239
    21de:	1f 4f       	sbci	r17, 0xFF	; 255
    21e0:	ce 01       	movw	r24, r28
    21e2:	05 96       	adiw	r24, 0x05	; 5
    21e4:	b8 01       	movw	r22, r16
    21e6:	0e 94 db 12 	call	0x25b6	; 0x25b6 <__unpack_f>
    21ea:	89 85       	ldd	r24, Y+9	; 0x09
    21ec:	82 30       	cpi	r24, 0x02	; 2
    21ee:	40 f0       	brcs	.+16     	; 0x2200 <__ltsf2+0x56>
    21f0:	89 89       	ldd	r24, Y+17	; 0x11
    21f2:	82 30       	cpi	r24, 0x02	; 2
    21f4:	28 f0       	brcs	.+10     	; 0x2200 <__ltsf2+0x56>
    21f6:	c7 01       	movw	r24, r14
    21f8:	b8 01       	movw	r22, r16
    21fa:	0e 94 53 13 	call	0x26a6	; 0x26a6 <__fpcmp_parts_f>
    21fe:	01 c0       	rjmp	.+2      	; 0x2202 <__ltsf2+0x58>
    2200:	81 e0       	ldi	r24, 0x01	; 1
    2202:	68 96       	adiw	r28, 0x18	; 24
    2204:	e6 e0       	ldi	r30, 0x06	; 6
    2206:	0c 94 b2 28 	jmp	0x5164	; 0x5164 <__epilogue_restores__+0x18>

0000220a <__floatsisf>:
    220a:	a8 e0       	ldi	r26, 0x08	; 8
    220c:	b0 e0       	ldi	r27, 0x00	; 0
    220e:	eb e0       	ldi	r30, 0x0B	; 11
    2210:	f1 e1       	ldi	r31, 0x11	; 17
    2212:	0c 94 93 28 	jmp	0x5126	; 0x5126 <__prologue_saves__+0x12>
    2216:	9b 01       	movw	r18, r22
    2218:	ac 01       	movw	r20, r24
    221a:	83 e0       	ldi	r24, 0x03	; 3
    221c:	89 83       	std	Y+1, r24	; 0x01
    221e:	da 01       	movw	r26, r20
    2220:	c9 01       	movw	r24, r18
    2222:	88 27       	eor	r24, r24
    2224:	b7 fd       	sbrc	r27, 7
    2226:	83 95       	inc	r24
    2228:	99 27       	eor	r25, r25
    222a:	aa 27       	eor	r26, r26
    222c:	bb 27       	eor	r27, r27
    222e:	b8 2e       	mov	r11, r24
    2230:	21 15       	cp	r18, r1
    2232:	31 05       	cpc	r19, r1
    2234:	41 05       	cpc	r20, r1
    2236:	51 05       	cpc	r21, r1
    2238:	19 f4       	brne	.+6      	; 0x2240 <__floatsisf+0x36>
    223a:	82 e0       	ldi	r24, 0x02	; 2
    223c:	89 83       	std	Y+1, r24	; 0x01
    223e:	3a c0       	rjmp	.+116    	; 0x22b4 <__floatsisf+0xaa>
    2240:	88 23       	and	r24, r24
    2242:	a9 f0       	breq	.+42     	; 0x226e <__floatsisf+0x64>
    2244:	20 30       	cpi	r18, 0x00	; 0
    2246:	80 e0       	ldi	r24, 0x00	; 0
    2248:	38 07       	cpc	r19, r24
    224a:	80 e0       	ldi	r24, 0x00	; 0
    224c:	48 07       	cpc	r20, r24
    224e:	80 e8       	ldi	r24, 0x80	; 128
    2250:	58 07       	cpc	r21, r24
    2252:	29 f4       	brne	.+10     	; 0x225e <__floatsisf+0x54>
    2254:	60 e0       	ldi	r22, 0x00	; 0
    2256:	70 e0       	ldi	r23, 0x00	; 0
    2258:	80 e0       	ldi	r24, 0x00	; 0
    225a:	9f ec       	ldi	r25, 0xCF	; 207
    225c:	30 c0       	rjmp	.+96     	; 0x22be <__floatsisf+0xb4>
    225e:	ee 24       	eor	r14, r14
    2260:	ff 24       	eor	r15, r15
    2262:	87 01       	movw	r16, r14
    2264:	e2 1a       	sub	r14, r18
    2266:	f3 0a       	sbc	r15, r19
    2268:	04 0b       	sbc	r16, r20
    226a:	15 0b       	sbc	r17, r21
    226c:	02 c0       	rjmp	.+4      	; 0x2272 <__floatsisf+0x68>
    226e:	79 01       	movw	r14, r18
    2270:	8a 01       	movw	r16, r20
    2272:	8e e1       	ldi	r24, 0x1E	; 30
    2274:	c8 2e       	mov	r12, r24
    2276:	d1 2c       	mov	r13, r1
    2278:	dc 82       	std	Y+4, r13	; 0x04
    227a:	cb 82       	std	Y+3, r12	; 0x03
    227c:	ed 82       	std	Y+5, r14	; 0x05
    227e:	fe 82       	std	Y+6, r15	; 0x06
    2280:	0f 83       	std	Y+7, r16	; 0x07
    2282:	18 87       	std	Y+8, r17	; 0x08
    2284:	c8 01       	movw	r24, r16
    2286:	b7 01       	movw	r22, r14
    2288:	0e 94 b7 11 	call	0x236e	; 0x236e <__clzsi2>
    228c:	01 97       	sbiw	r24, 0x01	; 1
    228e:	18 16       	cp	r1, r24
    2290:	19 06       	cpc	r1, r25
    2292:	84 f4       	brge	.+32     	; 0x22b4 <__floatsisf+0xaa>
    2294:	08 2e       	mov	r0, r24
    2296:	04 c0       	rjmp	.+8      	; 0x22a0 <__floatsisf+0x96>
    2298:	ee 0c       	add	r14, r14
    229a:	ff 1c       	adc	r15, r15
    229c:	00 1f       	adc	r16, r16
    229e:	11 1f       	adc	r17, r17
    22a0:	0a 94       	dec	r0
    22a2:	d2 f7       	brpl	.-12     	; 0x2298 <__floatsisf+0x8e>
    22a4:	ed 82       	std	Y+5, r14	; 0x05
    22a6:	fe 82       	std	Y+6, r15	; 0x06
    22a8:	0f 83       	std	Y+7, r16	; 0x07
    22aa:	18 87       	std	Y+8, r17	; 0x08
    22ac:	c8 1a       	sub	r12, r24
    22ae:	d9 0a       	sbc	r13, r25
    22b0:	dc 82       	std	Y+4, r13	; 0x04
    22b2:	cb 82       	std	Y+3, r12	; 0x03
    22b4:	ba 82       	std	Y+2, r11	; 0x02
    22b6:	ce 01       	movw	r24, r28
    22b8:	01 96       	adiw	r24, 0x01	; 1
    22ba:	0e 94 06 12 	call	0x240c	; 0x240c <__pack_f>
    22be:	28 96       	adiw	r28, 0x08	; 8
    22c0:	e9 e0       	ldi	r30, 0x09	; 9
    22c2:	0c 94 af 28 	jmp	0x515e	; 0x515e <__epilogue_restores__+0x12>

000022c6 <__fixsfsi>:
    22c6:	ac e0       	ldi	r26, 0x0C	; 12
    22c8:	b0 e0       	ldi	r27, 0x00	; 0
    22ca:	e9 e6       	ldi	r30, 0x69	; 105
    22cc:	f1 e1       	ldi	r31, 0x11	; 17
    22ce:	0c 94 9a 28 	jmp	0x5134	; 0x5134 <__prologue_saves__+0x20>
    22d2:	69 83       	std	Y+1, r22	; 0x01
    22d4:	7a 83       	std	Y+2, r23	; 0x02
    22d6:	8b 83       	std	Y+3, r24	; 0x03
    22d8:	9c 83       	std	Y+4, r25	; 0x04
    22da:	ce 01       	movw	r24, r28
    22dc:	01 96       	adiw	r24, 0x01	; 1
    22de:	be 01       	movw	r22, r28
    22e0:	6b 5f       	subi	r22, 0xFB	; 251
    22e2:	7f 4f       	sbci	r23, 0xFF	; 255
    22e4:	0e 94 db 12 	call	0x25b6	; 0x25b6 <__unpack_f>
    22e8:	8d 81       	ldd	r24, Y+5	; 0x05
    22ea:	82 30       	cpi	r24, 0x02	; 2
    22ec:	61 f1       	breq	.+88     	; 0x2346 <__fixsfsi+0x80>
    22ee:	82 30       	cpi	r24, 0x02	; 2
    22f0:	50 f1       	brcs	.+84     	; 0x2346 <__fixsfsi+0x80>
    22f2:	84 30       	cpi	r24, 0x04	; 4
    22f4:	21 f4       	brne	.+8      	; 0x22fe <__fixsfsi+0x38>
    22f6:	8e 81       	ldd	r24, Y+6	; 0x06
    22f8:	88 23       	and	r24, r24
    22fa:	51 f1       	breq	.+84     	; 0x2350 <__fixsfsi+0x8a>
    22fc:	2e c0       	rjmp	.+92     	; 0x235a <__fixsfsi+0x94>
    22fe:	2f 81       	ldd	r18, Y+7	; 0x07
    2300:	38 85       	ldd	r19, Y+8	; 0x08
    2302:	37 fd       	sbrc	r19, 7
    2304:	20 c0       	rjmp	.+64     	; 0x2346 <__fixsfsi+0x80>
    2306:	6e 81       	ldd	r22, Y+6	; 0x06
    2308:	2f 31       	cpi	r18, 0x1F	; 31
    230a:	31 05       	cpc	r19, r1
    230c:	1c f0       	brlt	.+6      	; 0x2314 <__fixsfsi+0x4e>
    230e:	66 23       	and	r22, r22
    2310:	f9 f0       	breq	.+62     	; 0x2350 <__fixsfsi+0x8a>
    2312:	23 c0       	rjmp	.+70     	; 0x235a <__fixsfsi+0x94>
    2314:	8e e1       	ldi	r24, 0x1E	; 30
    2316:	90 e0       	ldi	r25, 0x00	; 0
    2318:	82 1b       	sub	r24, r18
    231a:	93 0b       	sbc	r25, r19
    231c:	29 85       	ldd	r18, Y+9	; 0x09
    231e:	3a 85       	ldd	r19, Y+10	; 0x0a
    2320:	4b 85       	ldd	r20, Y+11	; 0x0b
    2322:	5c 85       	ldd	r21, Y+12	; 0x0c
    2324:	04 c0       	rjmp	.+8      	; 0x232e <__fixsfsi+0x68>
    2326:	56 95       	lsr	r21
    2328:	47 95       	ror	r20
    232a:	37 95       	ror	r19
    232c:	27 95       	ror	r18
    232e:	8a 95       	dec	r24
    2330:	d2 f7       	brpl	.-12     	; 0x2326 <__fixsfsi+0x60>
    2332:	66 23       	and	r22, r22
    2334:	b1 f0       	breq	.+44     	; 0x2362 <__fixsfsi+0x9c>
    2336:	50 95       	com	r21
    2338:	40 95       	com	r20
    233a:	30 95       	com	r19
    233c:	21 95       	neg	r18
    233e:	3f 4f       	sbci	r19, 0xFF	; 255
    2340:	4f 4f       	sbci	r20, 0xFF	; 255
    2342:	5f 4f       	sbci	r21, 0xFF	; 255
    2344:	0e c0       	rjmp	.+28     	; 0x2362 <__fixsfsi+0x9c>
    2346:	20 e0       	ldi	r18, 0x00	; 0
    2348:	30 e0       	ldi	r19, 0x00	; 0
    234a:	40 e0       	ldi	r20, 0x00	; 0
    234c:	50 e0       	ldi	r21, 0x00	; 0
    234e:	09 c0       	rjmp	.+18     	; 0x2362 <__fixsfsi+0x9c>
    2350:	2f ef       	ldi	r18, 0xFF	; 255
    2352:	3f ef       	ldi	r19, 0xFF	; 255
    2354:	4f ef       	ldi	r20, 0xFF	; 255
    2356:	5f e7       	ldi	r21, 0x7F	; 127
    2358:	04 c0       	rjmp	.+8      	; 0x2362 <__fixsfsi+0x9c>
    235a:	20 e0       	ldi	r18, 0x00	; 0
    235c:	30 e0       	ldi	r19, 0x00	; 0
    235e:	40 e0       	ldi	r20, 0x00	; 0
    2360:	50 e8       	ldi	r21, 0x80	; 128
    2362:	b9 01       	movw	r22, r18
    2364:	ca 01       	movw	r24, r20
    2366:	2c 96       	adiw	r28, 0x0c	; 12
    2368:	e2 e0       	ldi	r30, 0x02	; 2
    236a:	0c 94 b6 28 	jmp	0x516c	; 0x516c <__epilogue_restores__+0x20>

0000236e <__clzsi2>:
    236e:	ef 92       	push	r14
    2370:	ff 92       	push	r15
    2372:	0f 93       	push	r16
    2374:	1f 93       	push	r17
    2376:	7b 01       	movw	r14, r22
    2378:	8c 01       	movw	r16, r24
    237a:	80 e0       	ldi	r24, 0x00	; 0
    237c:	e8 16       	cp	r14, r24
    237e:	80 e0       	ldi	r24, 0x00	; 0
    2380:	f8 06       	cpc	r15, r24
    2382:	81 e0       	ldi	r24, 0x01	; 1
    2384:	08 07       	cpc	r16, r24
    2386:	80 e0       	ldi	r24, 0x00	; 0
    2388:	18 07       	cpc	r17, r24
    238a:	88 f4       	brcc	.+34     	; 0x23ae <__clzsi2+0x40>
    238c:	8f ef       	ldi	r24, 0xFF	; 255
    238e:	e8 16       	cp	r14, r24
    2390:	f1 04       	cpc	r15, r1
    2392:	01 05       	cpc	r16, r1
    2394:	11 05       	cpc	r17, r1
    2396:	31 f0       	breq	.+12     	; 0x23a4 <__clzsi2+0x36>
    2398:	28 f0       	brcs	.+10     	; 0x23a4 <__clzsi2+0x36>
    239a:	88 e0       	ldi	r24, 0x08	; 8
    239c:	90 e0       	ldi	r25, 0x00	; 0
    239e:	a0 e0       	ldi	r26, 0x00	; 0
    23a0:	b0 e0       	ldi	r27, 0x00	; 0
    23a2:	17 c0       	rjmp	.+46     	; 0x23d2 <__clzsi2+0x64>
    23a4:	80 e0       	ldi	r24, 0x00	; 0
    23a6:	90 e0       	ldi	r25, 0x00	; 0
    23a8:	a0 e0       	ldi	r26, 0x00	; 0
    23aa:	b0 e0       	ldi	r27, 0x00	; 0
    23ac:	12 c0       	rjmp	.+36     	; 0x23d2 <__clzsi2+0x64>
    23ae:	80 e0       	ldi	r24, 0x00	; 0
    23b0:	e8 16       	cp	r14, r24
    23b2:	80 e0       	ldi	r24, 0x00	; 0
    23b4:	f8 06       	cpc	r15, r24
    23b6:	80 e0       	ldi	r24, 0x00	; 0
    23b8:	08 07       	cpc	r16, r24
    23ba:	81 e0       	ldi	r24, 0x01	; 1
    23bc:	18 07       	cpc	r17, r24
    23be:	28 f0       	brcs	.+10     	; 0x23ca <__clzsi2+0x5c>
    23c0:	88 e1       	ldi	r24, 0x18	; 24
    23c2:	90 e0       	ldi	r25, 0x00	; 0
    23c4:	a0 e0       	ldi	r26, 0x00	; 0
    23c6:	b0 e0       	ldi	r27, 0x00	; 0
    23c8:	04 c0       	rjmp	.+8      	; 0x23d2 <__clzsi2+0x64>
    23ca:	80 e1       	ldi	r24, 0x10	; 16
    23cc:	90 e0       	ldi	r25, 0x00	; 0
    23ce:	a0 e0       	ldi	r26, 0x00	; 0
    23d0:	b0 e0       	ldi	r27, 0x00	; 0
    23d2:	20 e2       	ldi	r18, 0x20	; 32
    23d4:	30 e0       	ldi	r19, 0x00	; 0
    23d6:	40 e0       	ldi	r20, 0x00	; 0
    23d8:	50 e0       	ldi	r21, 0x00	; 0
    23da:	28 1b       	sub	r18, r24
    23dc:	39 0b       	sbc	r19, r25
    23de:	4a 0b       	sbc	r20, r26
    23e0:	5b 0b       	sbc	r21, r27
    23e2:	04 c0       	rjmp	.+8      	; 0x23ec <__clzsi2+0x7e>
    23e4:	16 95       	lsr	r17
    23e6:	07 95       	ror	r16
    23e8:	f7 94       	ror	r15
    23ea:	e7 94       	ror	r14
    23ec:	8a 95       	dec	r24
    23ee:	d2 f7       	brpl	.-12     	; 0x23e4 <__clzsi2+0x76>
    23f0:	f7 01       	movw	r30, r14
    23f2:	e2 53       	subi	r30, 0x32	; 50
    23f4:	ff 4f       	sbci	r31, 0xFF	; 255
    23f6:	80 81       	ld	r24, Z
    23f8:	28 1b       	sub	r18, r24
    23fa:	31 09       	sbc	r19, r1
    23fc:	41 09       	sbc	r20, r1
    23fe:	51 09       	sbc	r21, r1
    2400:	c9 01       	movw	r24, r18
    2402:	1f 91       	pop	r17
    2404:	0f 91       	pop	r16
    2406:	ff 90       	pop	r15
    2408:	ef 90       	pop	r14
    240a:	08 95       	ret

0000240c <__pack_f>:
    240c:	df 92       	push	r13
    240e:	ef 92       	push	r14
    2410:	ff 92       	push	r15
    2412:	0f 93       	push	r16
    2414:	1f 93       	push	r17
    2416:	fc 01       	movw	r30, r24
    2418:	e4 80       	ldd	r14, Z+4	; 0x04
    241a:	f5 80       	ldd	r15, Z+5	; 0x05
    241c:	06 81       	ldd	r16, Z+6	; 0x06
    241e:	17 81       	ldd	r17, Z+7	; 0x07
    2420:	d1 80       	ldd	r13, Z+1	; 0x01
    2422:	80 81       	ld	r24, Z
    2424:	82 30       	cpi	r24, 0x02	; 2
    2426:	48 f4       	brcc	.+18     	; 0x243a <__pack_f+0x2e>
    2428:	80 e0       	ldi	r24, 0x00	; 0
    242a:	90 e0       	ldi	r25, 0x00	; 0
    242c:	a0 e1       	ldi	r26, 0x10	; 16
    242e:	b0 e0       	ldi	r27, 0x00	; 0
    2430:	e8 2a       	or	r14, r24
    2432:	f9 2a       	or	r15, r25
    2434:	0a 2b       	or	r16, r26
    2436:	1b 2b       	or	r17, r27
    2438:	a5 c0       	rjmp	.+330    	; 0x2584 <__pack_f+0x178>
    243a:	84 30       	cpi	r24, 0x04	; 4
    243c:	09 f4       	brne	.+2      	; 0x2440 <__pack_f+0x34>
    243e:	9f c0       	rjmp	.+318    	; 0x257e <__pack_f+0x172>
    2440:	82 30       	cpi	r24, 0x02	; 2
    2442:	21 f4       	brne	.+8      	; 0x244c <__pack_f+0x40>
    2444:	ee 24       	eor	r14, r14
    2446:	ff 24       	eor	r15, r15
    2448:	87 01       	movw	r16, r14
    244a:	05 c0       	rjmp	.+10     	; 0x2456 <__pack_f+0x4a>
    244c:	e1 14       	cp	r14, r1
    244e:	f1 04       	cpc	r15, r1
    2450:	01 05       	cpc	r16, r1
    2452:	11 05       	cpc	r17, r1
    2454:	19 f4       	brne	.+6      	; 0x245c <__pack_f+0x50>
    2456:	e0 e0       	ldi	r30, 0x00	; 0
    2458:	f0 e0       	ldi	r31, 0x00	; 0
    245a:	96 c0       	rjmp	.+300    	; 0x2588 <__pack_f+0x17c>
    245c:	62 81       	ldd	r22, Z+2	; 0x02
    245e:	73 81       	ldd	r23, Z+3	; 0x03
    2460:	9f ef       	ldi	r25, 0xFF	; 255
    2462:	62 38       	cpi	r22, 0x82	; 130
    2464:	79 07       	cpc	r23, r25
    2466:	0c f0       	brlt	.+2      	; 0x246a <__pack_f+0x5e>
    2468:	5b c0       	rjmp	.+182    	; 0x2520 <__pack_f+0x114>
    246a:	22 e8       	ldi	r18, 0x82	; 130
    246c:	3f ef       	ldi	r19, 0xFF	; 255
    246e:	26 1b       	sub	r18, r22
    2470:	37 0b       	sbc	r19, r23
    2472:	2a 31       	cpi	r18, 0x1A	; 26
    2474:	31 05       	cpc	r19, r1
    2476:	2c f0       	brlt	.+10     	; 0x2482 <__pack_f+0x76>
    2478:	20 e0       	ldi	r18, 0x00	; 0
    247a:	30 e0       	ldi	r19, 0x00	; 0
    247c:	40 e0       	ldi	r20, 0x00	; 0
    247e:	50 e0       	ldi	r21, 0x00	; 0
    2480:	2a c0       	rjmp	.+84     	; 0x24d6 <__pack_f+0xca>
    2482:	b8 01       	movw	r22, r16
    2484:	a7 01       	movw	r20, r14
    2486:	02 2e       	mov	r0, r18
    2488:	04 c0       	rjmp	.+8      	; 0x2492 <__pack_f+0x86>
    248a:	76 95       	lsr	r23
    248c:	67 95       	ror	r22
    248e:	57 95       	ror	r21
    2490:	47 95       	ror	r20
    2492:	0a 94       	dec	r0
    2494:	d2 f7       	brpl	.-12     	; 0x248a <__pack_f+0x7e>
    2496:	81 e0       	ldi	r24, 0x01	; 1
    2498:	90 e0       	ldi	r25, 0x00	; 0
    249a:	a0 e0       	ldi	r26, 0x00	; 0
    249c:	b0 e0       	ldi	r27, 0x00	; 0
    249e:	04 c0       	rjmp	.+8      	; 0x24a8 <__pack_f+0x9c>
    24a0:	88 0f       	add	r24, r24
    24a2:	99 1f       	adc	r25, r25
    24a4:	aa 1f       	adc	r26, r26
    24a6:	bb 1f       	adc	r27, r27
    24a8:	2a 95       	dec	r18
    24aa:	d2 f7       	brpl	.-12     	; 0x24a0 <__pack_f+0x94>
    24ac:	01 97       	sbiw	r24, 0x01	; 1
    24ae:	a1 09       	sbc	r26, r1
    24b0:	b1 09       	sbc	r27, r1
    24b2:	8e 21       	and	r24, r14
    24b4:	9f 21       	and	r25, r15
    24b6:	a0 23       	and	r26, r16
    24b8:	b1 23       	and	r27, r17
    24ba:	00 97       	sbiw	r24, 0x00	; 0
    24bc:	a1 05       	cpc	r26, r1
    24be:	b1 05       	cpc	r27, r1
    24c0:	21 f0       	breq	.+8      	; 0x24ca <__pack_f+0xbe>
    24c2:	81 e0       	ldi	r24, 0x01	; 1
    24c4:	90 e0       	ldi	r25, 0x00	; 0
    24c6:	a0 e0       	ldi	r26, 0x00	; 0
    24c8:	b0 e0       	ldi	r27, 0x00	; 0
    24ca:	9a 01       	movw	r18, r20
    24cc:	ab 01       	movw	r20, r22
    24ce:	28 2b       	or	r18, r24
    24d0:	39 2b       	or	r19, r25
    24d2:	4a 2b       	or	r20, r26
    24d4:	5b 2b       	or	r21, r27
    24d6:	da 01       	movw	r26, r20
    24d8:	c9 01       	movw	r24, r18
    24da:	8f 77       	andi	r24, 0x7F	; 127
    24dc:	90 70       	andi	r25, 0x00	; 0
    24de:	a0 70       	andi	r26, 0x00	; 0
    24e0:	b0 70       	andi	r27, 0x00	; 0
    24e2:	80 34       	cpi	r24, 0x40	; 64
    24e4:	91 05       	cpc	r25, r1
    24e6:	a1 05       	cpc	r26, r1
    24e8:	b1 05       	cpc	r27, r1
    24ea:	39 f4       	brne	.+14     	; 0x24fa <__pack_f+0xee>
    24ec:	27 ff       	sbrs	r18, 7
    24ee:	09 c0       	rjmp	.+18     	; 0x2502 <__pack_f+0xf6>
    24f0:	20 5c       	subi	r18, 0xC0	; 192
    24f2:	3f 4f       	sbci	r19, 0xFF	; 255
    24f4:	4f 4f       	sbci	r20, 0xFF	; 255
    24f6:	5f 4f       	sbci	r21, 0xFF	; 255
    24f8:	04 c0       	rjmp	.+8      	; 0x2502 <__pack_f+0xf6>
    24fa:	21 5c       	subi	r18, 0xC1	; 193
    24fc:	3f 4f       	sbci	r19, 0xFF	; 255
    24fe:	4f 4f       	sbci	r20, 0xFF	; 255
    2500:	5f 4f       	sbci	r21, 0xFF	; 255
    2502:	e0 e0       	ldi	r30, 0x00	; 0
    2504:	f0 e0       	ldi	r31, 0x00	; 0
    2506:	20 30       	cpi	r18, 0x00	; 0
    2508:	a0 e0       	ldi	r26, 0x00	; 0
    250a:	3a 07       	cpc	r19, r26
    250c:	a0 e0       	ldi	r26, 0x00	; 0
    250e:	4a 07       	cpc	r20, r26
    2510:	a0 e4       	ldi	r26, 0x40	; 64
    2512:	5a 07       	cpc	r21, r26
    2514:	10 f0       	brcs	.+4      	; 0x251a <__pack_f+0x10e>
    2516:	e1 e0       	ldi	r30, 0x01	; 1
    2518:	f0 e0       	ldi	r31, 0x00	; 0
    251a:	79 01       	movw	r14, r18
    251c:	8a 01       	movw	r16, r20
    251e:	27 c0       	rjmp	.+78     	; 0x256e <__pack_f+0x162>
    2520:	60 38       	cpi	r22, 0x80	; 128
    2522:	71 05       	cpc	r23, r1
    2524:	64 f5       	brge	.+88     	; 0x257e <__pack_f+0x172>
    2526:	fb 01       	movw	r30, r22
    2528:	e1 58       	subi	r30, 0x81	; 129
    252a:	ff 4f       	sbci	r31, 0xFF	; 255
    252c:	d8 01       	movw	r26, r16
    252e:	c7 01       	movw	r24, r14
    2530:	8f 77       	andi	r24, 0x7F	; 127
    2532:	90 70       	andi	r25, 0x00	; 0
    2534:	a0 70       	andi	r26, 0x00	; 0
    2536:	b0 70       	andi	r27, 0x00	; 0
    2538:	80 34       	cpi	r24, 0x40	; 64
    253a:	91 05       	cpc	r25, r1
    253c:	a1 05       	cpc	r26, r1
    253e:	b1 05       	cpc	r27, r1
    2540:	39 f4       	brne	.+14     	; 0x2550 <__pack_f+0x144>
    2542:	e7 fe       	sbrs	r14, 7
    2544:	0d c0       	rjmp	.+26     	; 0x2560 <__pack_f+0x154>
    2546:	80 e4       	ldi	r24, 0x40	; 64
    2548:	90 e0       	ldi	r25, 0x00	; 0
    254a:	a0 e0       	ldi	r26, 0x00	; 0
    254c:	b0 e0       	ldi	r27, 0x00	; 0
    254e:	04 c0       	rjmp	.+8      	; 0x2558 <__pack_f+0x14c>
    2550:	8f e3       	ldi	r24, 0x3F	; 63
    2552:	90 e0       	ldi	r25, 0x00	; 0
    2554:	a0 e0       	ldi	r26, 0x00	; 0
    2556:	b0 e0       	ldi	r27, 0x00	; 0
    2558:	e8 0e       	add	r14, r24
    255a:	f9 1e       	adc	r15, r25
    255c:	0a 1f       	adc	r16, r26
    255e:	1b 1f       	adc	r17, r27
    2560:	17 ff       	sbrs	r17, 7
    2562:	05 c0       	rjmp	.+10     	; 0x256e <__pack_f+0x162>
    2564:	16 95       	lsr	r17
    2566:	07 95       	ror	r16
    2568:	f7 94       	ror	r15
    256a:	e7 94       	ror	r14
    256c:	31 96       	adiw	r30, 0x01	; 1
    256e:	87 e0       	ldi	r24, 0x07	; 7
    2570:	16 95       	lsr	r17
    2572:	07 95       	ror	r16
    2574:	f7 94       	ror	r15
    2576:	e7 94       	ror	r14
    2578:	8a 95       	dec	r24
    257a:	d1 f7       	brne	.-12     	; 0x2570 <__pack_f+0x164>
    257c:	05 c0       	rjmp	.+10     	; 0x2588 <__pack_f+0x17c>
    257e:	ee 24       	eor	r14, r14
    2580:	ff 24       	eor	r15, r15
    2582:	87 01       	movw	r16, r14
    2584:	ef ef       	ldi	r30, 0xFF	; 255
    2586:	f0 e0       	ldi	r31, 0x00	; 0
    2588:	6e 2f       	mov	r22, r30
    258a:	67 95       	ror	r22
    258c:	66 27       	eor	r22, r22
    258e:	67 95       	ror	r22
    2590:	90 2f       	mov	r25, r16
    2592:	9f 77       	andi	r25, 0x7F	; 127
    2594:	d7 94       	ror	r13
    2596:	dd 24       	eor	r13, r13
    2598:	d7 94       	ror	r13
    259a:	8e 2f       	mov	r24, r30
    259c:	86 95       	lsr	r24
    259e:	49 2f       	mov	r20, r25
    25a0:	46 2b       	or	r20, r22
    25a2:	58 2f       	mov	r21, r24
    25a4:	5d 29       	or	r21, r13
    25a6:	b7 01       	movw	r22, r14
    25a8:	ca 01       	movw	r24, r20
    25aa:	1f 91       	pop	r17
    25ac:	0f 91       	pop	r16
    25ae:	ff 90       	pop	r15
    25b0:	ef 90       	pop	r14
    25b2:	df 90       	pop	r13
    25b4:	08 95       	ret

000025b6 <__unpack_f>:
    25b6:	fc 01       	movw	r30, r24
    25b8:	db 01       	movw	r26, r22
    25ba:	40 81       	ld	r20, Z
    25bc:	51 81       	ldd	r21, Z+1	; 0x01
    25be:	22 81       	ldd	r18, Z+2	; 0x02
    25c0:	62 2f       	mov	r22, r18
    25c2:	6f 77       	andi	r22, 0x7F	; 127
    25c4:	70 e0       	ldi	r23, 0x00	; 0
    25c6:	22 1f       	adc	r18, r18
    25c8:	22 27       	eor	r18, r18
    25ca:	22 1f       	adc	r18, r18
    25cc:	93 81       	ldd	r25, Z+3	; 0x03
    25ce:	89 2f       	mov	r24, r25
    25d0:	88 0f       	add	r24, r24
    25d2:	82 2b       	or	r24, r18
    25d4:	28 2f       	mov	r18, r24
    25d6:	30 e0       	ldi	r19, 0x00	; 0
    25d8:	99 1f       	adc	r25, r25
    25da:	99 27       	eor	r25, r25
    25dc:	99 1f       	adc	r25, r25
    25de:	11 96       	adiw	r26, 0x01	; 1
    25e0:	9c 93       	st	X, r25
    25e2:	11 97       	sbiw	r26, 0x01	; 1
    25e4:	21 15       	cp	r18, r1
    25e6:	31 05       	cpc	r19, r1
    25e8:	a9 f5       	brne	.+106    	; 0x2654 <__unpack_f+0x9e>
    25ea:	41 15       	cp	r20, r1
    25ec:	51 05       	cpc	r21, r1
    25ee:	61 05       	cpc	r22, r1
    25f0:	71 05       	cpc	r23, r1
    25f2:	11 f4       	brne	.+4      	; 0x25f8 <__unpack_f+0x42>
    25f4:	82 e0       	ldi	r24, 0x02	; 2
    25f6:	37 c0       	rjmp	.+110    	; 0x2666 <__unpack_f+0xb0>
    25f8:	82 e8       	ldi	r24, 0x82	; 130
    25fa:	9f ef       	ldi	r25, 0xFF	; 255
    25fc:	13 96       	adiw	r26, 0x03	; 3
    25fe:	9c 93       	st	X, r25
    2600:	8e 93       	st	-X, r24
    2602:	12 97       	sbiw	r26, 0x02	; 2
    2604:	9a 01       	movw	r18, r20
    2606:	ab 01       	movw	r20, r22
    2608:	67 e0       	ldi	r22, 0x07	; 7
    260a:	22 0f       	add	r18, r18
    260c:	33 1f       	adc	r19, r19
    260e:	44 1f       	adc	r20, r20
    2610:	55 1f       	adc	r21, r21
    2612:	6a 95       	dec	r22
    2614:	d1 f7       	brne	.-12     	; 0x260a <__unpack_f+0x54>
    2616:	83 e0       	ldi	r24, 0x03	; 3
    2618:	8c 93       	st	X, r24
    261a:	0d c0       	rjmp	.+26     	; 0x2636 <__unpack_f+0x80>
    261c:	22 0f       	add	r18, r18
    261e:	33 1f       	adc	r19, r19
    2620:	44 1f       	adc	r20, r20
    2622:	55 1f       	adc	r21, r21
    2624:	12 96       	adiw	r26, 0x02	; 2
    2626:	8d 91       	ld	r24, X+
    2628:	9c 91       	ld	r25, X
    262a:	13 97       	sbiw	r26, 0x03	; 3
    262c:	01 97       	sbiw	r24, 0x01	; 1
    262e:	13 96       	adiw	r26, 0x03	; 3
    2630:	9c 93       	st	X, r25
    2632:	8e 93       	st	-X, r24
    2634:	12 97       	sbiw	r26, 0x02	; 2
    2636:	20 30       	cpi	r18, 0x00	; 0
    2638:	80 e0       	ldi	r24, 0x00	; 0
    263a:	38 07       	cpc	r19, r24
    263c:	80 e0       	ldi	r24, 0x00	; 0
    263e:	48 07       	cpc	r20, r24
    2640:	80 e4       	ldi	r24, 0x40	; 64
    2642:	58 07       	cpc	r21, r24
    2644:	58 f3       	brcs	.-42     	; 0x261c <__unpack_f+0x66>
    2646:	14 96       	adiw	r26, 0x04	; 4
    2648:	2d 93       	st	X+, r18
    264a:	3d 93       	st	X+, r19
    264c:	4d 93       	st	X+, r20
    264e:	5c 93       	st	X, r21
    2650:	17 97       	sbiw	r26, 0x07	; 7
    2652:	08 95       	ret
    2654:	2f 3f       	cpi	r18, 0xFF	; 255
    2656:	31 05       	cpc	r19, r1
    2658:	79 f4       	brne	.+30     	; 0x2678 <__unpack_f+0xc2>
    265a:	41 15       	cp	r20, r1
    265c:	51 05       	cpc	r21, r1
    265e:	61 05       	cpc	r22, r1
    2660:	71 05       	cpc	r23, r1
    2662:	19 f4       	brne	.+6      	; 0x266a <__unpack_f+0xb4>
    2664:	84 e0       	ldi	r24, 0x04	; 4
    2666:	8c 93       	st	X, r24
    2668:	08 95       	ret
    266a:	64 ff       	sbrs	r22, 4
    266c:	03 c0       	rjmp	.+6      	; 0x2674 <__unpack_f+0xbe>
    266e:	81 e0       	ldi	r24, 0x01	; 1
    2670:	8c 93       	st	X, r24
    2672:	12 c0       	rjmp	.+36     	; 0x2698 <__unpack_f+0xe2>
    2674:	1c 92       	st	X, r1
    2676:	10 c0       	rjmp	.+32     	; 0x2698 <__unpack_f+0xe2>
    2678:	2f 57       	subi	r18, 0x7F	; 127
    267a:	30 40       	sbci	r19, 0x00	; 0
    267c:	13 96       	adiw	r26, 0x03	; 3
    267e:	3c 93       	st	X, r19
    2680:	2e 93       	st	-X, r18
    2682:	12 97       	sbiw	r26, 0x02	; 2
    2684:	83 e0       	ldi	r24, 0x03	; 3
    2686:	8c 93       	st	X, r24
    2688:	87 e0       	ldi	r24, 0x07	; 7
    268a:	44 0f       	add	r20, r20
    268c:	55 1f       	adc	r21, r21
    268e:	66 1f       	adc	r22, r22
    2690:	77 1f       	adc	r23, r23
    2692:	8a 95       	dec	r24
    2694:	d1 f7       	brne	.-12     	; 0x268a <__unpack_f+0xd4>
    2696:	70 64       	ori	r23, 0x40	; 64
    2698:	14 96       	adiw	r26, 0x04	; 4
    269a:	4d 93       	st	X+, r20
    269c:	5d 93       	st	X+, r21
    269e:	6d 93       	st	X+, r22
    26a0:	7c 93       	st	X, r23
    26a2:	17 97       	sbiw	r26, 0x07	; 7
    26a4:	08 95       	ret

000026a6 <__fpcmp_parts_f>:
    26a6:	1f 93       	push	r17
    26a8:	dc 01       	movw	r26, r24
    26aa:	fb 01       	movw	r30, r22
    26ac:	9c 91       	ld	r25, X
    26ae:	92 30       	cpi	r25, 0x02	; 2
    26b0:	08 f4       	brcc	.+2      	; 0x26b4 <__fpcmp_parts_f+0xe>
    26b2:	47 c0       	rjmp	.+142    	; 0x2742 <__fpcmp_parts_f+0x9c>
    26b4:	80 81       	ld	r24, Z
    26b6:	82 30       	cpi	r24, 0x02	; 2
    26b8:	08 f4       	brcc	.+2      	; 0x26bc <__fpcmp_parts_f+0x16>
    26ba:	43 c0       	rjmp	.+134    	; 0x2742 <__fpcmp_parts_f+0x9c>
    26bc:	94 30       	cpi	r25, 0x04	; 4
    26be:	51 f4       	brne	.+20     	; 0x26d4 <__fpcmp_parts_f+0x2e>
    26c0:	11 96       	adiw	r26, 0x01	; 1
    26c2:	1c 91       	ld	r17, X
    26c4:	84 30       	cpi	r24, 0x04	; 4
    26c6:	99 f5       	brne	.+102    	; 0x272e <__fpcmp_parts_f+0x88>
    26c8:	81 81       	ldd	r24, Z+1	; 0x01
    26ca:	68 2f       	mov	r22, r24
    26cc:	70 e0       	ldi	r23, 0x00	; 0
    26ce:	61 1b       	sub	r22, r17
    26d0:	71 09       	sbc	r23, r1
    26d2:	3f c0       	rjmp	.+126    	; 0x2752 <__fpcmp_parts_f+0xac>
    26d4:	84 30       	cpi	r24, 0x04	; 4
    26d6:	21 f0       	breq	.+8      	; 0x26e0 <__fpcmp_parts_f+0x3a>
    26d8:	92 30       	cpi	r25, 0x02	; 2
    26da:	31 f4       	brne	.+12     	; 0x26e8 <__fpcmp_parts_f+0x42>
    26dc:	82 30       	cpi	r24, 0x02	; 2
    26de:	b9 f1       	breq	.+110    	; 0x274e <__fpcmp_parts_f+0xa8>
    26e0:	81 81       	ldd	r24, Z+1	; 0x01
    26e2:	88 23       	and	r24, r24
    26e4:	89 f1       	breq	.+98     	; 0x2748 <__fpcmp_parts_f+0xa2>
    26e6:	2d c0       	rjmp	.+90     	; 0x2742 <__fpcmp_parts_f+0x9c>
    26e8:	11 96       	adiw	r26, 0x01	; 1
    26ea:	1c 91       	ld	r17, X
    26ec:	11 97       	sbiw	r26, 0x01	; 1
    26ee:	82 30       	cpi	r24, 0x02	; 2
    26f0:	f1 f0       	breq	.+60     	; 0x272e <__fpcmp_parts_f+0x88>
    26f2:	81 81       	ldd	r24, Z+1	; 0x01
    26f4:	18 17       	cp	r17, r24
    26f6:	d9 f4       	brne	.+54     	; 0x272e <__fpcmp_parts_f+0x88>
    26f8:	12 96       	adiw	r26, 0x02	; 2
    26fa:	2d 91       	ld	r18, X+
    26fc:	3c 91       	ld	r19, X
    26fe:	13 97       	sbiw	r26, 0x03	; 3
    2700:	82 81       	ldd	r24, Z+2	; 0x02
    2702:	93 81       	ldd	r25, Z+3	; 0x03
    2704:	82 17       	cp	r24, r18
    2706:	93 07       	cpc	r25, r19
    2708:	94 f0       	brlt	.+36     	; 0x272e <__fpcmp_parts_f+0x88>
    270a:	28 17       	cp	r18, r24
    270c:	39 07       	cpc	r19, r25
    270e:	bc f0       	brlt	.+46     	; 0x273e <__fpcmp_parts_f+0x98>
    2710:	14 96       	adiw	r26, 0x04	; 4
    2712:	8d 91       	ld	r24, X+
    2714:	9d 91       	ld	r25, X+
    2716:	0d 90       	ld	r0, X+
    2718:	bc 91       	ld	r27, X
    271a:	a0 2d       	mov	r26, r0
    271c:	24 81       	ldd	r18, Z+4	; 0x04
    271e:	35 81       	ldd	r19, Z+5	; 0x05
    2720:	46 81       	ldd	r20, Z+6	; 0x06
    2722:	57 81       	ldd	r21, Z+7	; 0x07
    2724:	28 17       	cp	r18, r24
    2726:	39 07       	cpc	r19, r25
    2728:	4a 07       	cpc	r20, r26
    272a:	5b 07       	cpc	r21, r27
    272c:	18 f4       	brcc	.+6      	; 0x2734 <__fpcmp_parts_f+0x8e>
    272e:	11 23       	and	r17, r17
    2730:	41 f0       	breq	.+16     	; 0x2742 <__fpcmp_parts_f+0x9c>
    2732:	0a c0       	rjmp	.+20     	; 0x2748 <__fpcmp_parts_f+0xa2>
    2734:	82 17       	cp	r24, r18
    2736:	93 07       	cpc	r25, r19
    2738:	a4 07       	cpc	r26, r20
    273a:	b5 07       	cpc	r27, r21
    273c:	40 f4       	brcc	.+16     	; 0x274e <__fpcmp_parts_f+0xa8>
    273e:	11 23       	and	r17, r17
    2740:	19 f0       	breq	.+6      	; 0x2748 <__fpcmp_parts_f+0xa2>
    2742:	61 e0       	ldi	r22, 0x01	; 1
    2744:	70 e0       	ldi	r23, 0x00	; 0
    2746:	05 c0       	rjmp	.+10     	; 0x2752 <__fpcmp_parts_f+0xac>
    2748:	6f ef       	ldi	r22, 0xFF	; 255
    274a:	7f ef       	ldi	r23, 0xFF	; 255
    274c:	02 c0       	rjmp	.+4      	; 0x2752 <__fpcmp_parts_f+0xac>
    274e:	60 e0       	ldi	r22, 0x00	; 0
    2750:	70 e0       	ldi	r23, 0x00	; 0
    2752:	cb 01       	movw	r24, r22
    2754:	1f 91       	pop	r17
    2756:	08 95       	ret

00002758 <mystrcmp>:
#include "../MCAL/DIO/DIO_interface.h"
#include "../HAL/LCD/CLCD_interface.h"
#include "../HAL/KPD/KPD_interface.h"

u8 mystrcmp(u8 * str1 ,u8 *str2, u8 len)
{
    2758:	df 93       	push	r29
    275a:	cf 93       	push	r28
    275c:	cd b7       	in	r28, 0x3d	; 61
    275e:	de b7       	in	r29, 0x3e	; 62
    2760:	27 97       	sbiw	r28, 0x07	; 7
    2762:	0f b6       	in	r0, 0x3f	; 63
    2764:	f8 94       	cli
    2766:	de bf       	out	0x3e, r29	; 62
    2768:	0f be       	out	0x3f, r0	; 63
    276a:	cd bf       	out	0x3d, r28	; 61
    276c:	9c 83       	std	Y+4, r25	; 0x04
    276e:	8b 83       	std	Y+3, r24	; 0x03
    2770:	7e 83       	std	Y+6, r23	; 0x06
    2772:	6d 83       	std	Y+5, r22	; 0x05
    2774:	4f 83       	std	Y+7, r20	; 0x07
	u8 cmp_status =0;
    2776:	1a 82       	std	Y+2, r1	; 0x02
	u8 i=0;
    2778:	19 82       	std	Y+1, r1	; 0x01
    277a:	19 c0       	rjmp	.+50     	; 0x27ae <mystrcmp+0x56>
	for(;i<len;i++)
	{
		if(str1[i]-str2[i])
    277c:	89 81       	ldd	r24, Y+1	; 0x01
    277e:	28 2f       	mov	r18, r24
    2780:	30 e0       	ldi	r19, 0x00	; 0
    2782:	8b 81       	ldd	r24, Y+3	; 0x03
    2784:	9c 81       	ldd	r25, Y+4	; 0x04
    2786:	fc 01       	movw	r30, r24
    2788:	e2 0f       	add	r30, r18
    278a:	f3 1f       	adc	r31, r19
    278c:	40 81       	ld	r20, Z
    278e:	89 81       	ldd	r24, Y+1	; 0x01
    2790:	28 2f       	mov	r18, r24
    2792:	30 e0       	ldi	r19, 0x00	; 0
    2794:	8d 81       	ldd	r24, Y+5	; 0x05
    2796:	9e 81       	ldd	r25, Y+6	; 0x06
    2798:	fc 01       	movw	r30, r24
    279a:	e2 0f       	add	r30, r18
    279c:	f3 1f       	adc	r31, r19
    279e:	80 81       	ld	r24, Z
    27a0:	48 17       	cp	r20, r24
    27a2:	11 f0       	breq	.+4      	; 0x27a8 <mystrcmp+0x50>
		{
			cmp_status=1;
    27a4:	81 e0       	ldi	r24, 0x01	; 1
    27a6:	8a 83       	std	Y+2, r24	; 0x02

u8 mystrcmp(u8 * str1 ,u8 *str2, u8 len)
{
	u8 cmp_status =0;
	u8 i=0;
	for(;i<len;i++)
    27a8:	89 81       	ldd	r24, Y+1	; 0x01
    27aa:	8f 5f       	subi	r24, 0xFF	; 255
    27ac:	89 83       	std	Y+1, r24	; 0x01
    27ae:	99 81       	ldd	r25, Y+1	; 0x01
    27b0:	8f 81       	ldd	r24, Y+7	; 0x07
    27b2:	98 17       	cp	r25, r24
    27b4:	18 f3       	brcs	.-58     	; 0x277c <mystrcmp+0x24>
		{
			cmp_status=1;
		}
	}

	return cmp_status;
    27b6:	8a 81       	ldd	r24, Y+2	; 0x02
}
    27b8:	27 96       	adiw	r28, 0x07	; 7
    27ba:	0f b6       	in	r0, 0x3f	; 63
    27bc:	f8 94       	cli
    27be:	de bf       	out	0x3e, r29	; 62
    27c0:	0f be       	out	0x3f, r0	; 63
    27c2:	cd bf       	out	0x3d, r28	; 61
    27c4:	cf 91       	pop	r28
    27c6:	df 91       	pop	r29
    27c8:	08 95       	ret

000027ca <buzz>:
void buzz(void)
{
    27ca:	df 93       	push	r29
    27cc:	cf 93       	push	r28
    27ce:	cd b7       	in	r28, 0x3d	; 61
    27d0:	de b7       	in	r29, 0x3e	; 62
	DIO_enumSetPINDirection(DIO_PORTC,DIO_PIN7,DIO_OUTPUT);
    27d2:	83 e0       	ldi	r24, 0x03	; 3
    27d4:	67 e0       	ldi	r22, 0x07	; 7
    27d6:	41 e0       	ldi	r20, 0x01	; 1
    27d8:	0e 94 45 1a 	call	0x348a	; 0x348a <DIO_enumSetPINDirection>
	DIO_enumSetPINValue(DIO_PORTC,DIO_PIN7,DIO_HIGH);
    27dc:	83 e0       	ldi	r24, 0x03	; 3
    27de:	67 e0       	ldi	r22, 0x07	; 7
    27e0:	41 e0       	ldi	r20, 0x01	; 1
    27e2:	0e 94 49 1b 	call	0x3692	; 0x3692 <DIO_enumSetPINValue>
}
    27e6:	cf 91       	pop	r28
    27e8:	df 91       	pop	r29
    27ea:	08 95       	ret

000027ec <enterbuzz>:
void enterbuzz(void)
{
    27ec:	df 93       	push	r29
    27ee:	cf 93       	push	r28
    27f0:	cd b7       	in	r28, 0x3d	; 61
    27f2:	de b7       	in	r29, 0x3e	; 62
    27f4:	6d 97       	sbiw	r28, 0x1d	; 29
    27f6:	0f b6       	in	r0, 0x3f	; 63
    27f8:	f8 94       	cli
    27fa:	de bf       	out	0x3e, r29	; 62
    27fc:	0f be       	out	0x3f, r0	; 63
    27fe:	cd bf       	out	0x3d, r28	; 61
	DIO_enumSetPINDirection(DIO_PORTC,DIO_PIN7,DIO_OUTPUT);
    2800:	83 e0       	ldi	r24, 0x03	; 3
    2802:	67 e0       	ldi	r22, 0x07	; 7
    2804:	41 e0       	ldi	r20, 0x01	; 1
    2806:	0e 94 45 1a 	call	0x348a	; 0x348a <DIO_enumSetPINDirection>
	for(u8 x=0;x<8;x++)
    280a:	1d 8e       	std	Y+29, r1	; 0x1d
    280c:	17 c1       	rjmp	.+558    	; 0x2a3c <enterbuzz+0x250>
	{
		DIO_enumSetPINValue(DIO_PORTC,DIO_PIN7,DIO_HIGH);
    280e:	83 e0       	ldi	r24, 0x03	; 3
    2810:	67 e0       	ldi	r22, 0x07	; 7
    2812:	41 e0       	ldi	r20, 0x01	; 1
    2814:	0e 94 49 1b 	call	0x3692	; 0x3692 <DIO_enumSetPINValue>
		_delay_ms(10*x);
    2818:	8d 8d       	ldd	r24, Y+29	; 0x1d
    281a:	88 2f       	mov	r24, r24
    281c:	90 e0       	ldi	r25, 0x00	; 0
    281e:	9c 01       	movw	r18, r24
    2820:	22 0f       	add	r18, r18
    2822:	33 1f       	adc	r19, r19
    2824:	c9 01       	movw	r24, r18
    2826:	88 0f       	add	r24, r24
    2828:	99 1f       	adc	r25, r25
    282a:	88 0f       	add	r24, r24
    282c:	99 1f       	adc	r25, r25
    282e:	82 0f       	add	r24, r18
    2830:	93 1f       	adc	r25, r19
    2832:	aa 27       	eor	r26, r26
    2834:	97 fd       	sbrc	r25, 7
    2836:	a0 95       	com	r26
    2838:	ba 2f       	mov	r27, r26
    283a:	bc 01       	movw	r22, r24
    283c:	cd 01       	movw	r24, r26
    283e:	0e 94 05 11 	call	0x220a	; 0x220a <__floatsisf>
    2842:	dc 01       	movw	r26, r24
    2844:	cb 01       	movw	r24, r22
    2846:	89 8f       	std	Y+25, r24	; 0x19
    2848:	9a 8f       	std	Y+26, r25	; 0x1a
    284a:	ab 8f       	std	Y+27, r26	; 0x1b
    284c:	bc 8f       	std	Y+28, r27	; 0x1c
 */
void
_delay_ms(double __ms)
{
	uint16_t __ticks;
	double __tmp = ((F_CPU) / 4e3) * __ms;
    284e:	69 8d       	ldd	r22, Y+25	; 0x19
    2850:	7a 8d       	ldd	r23, Y+26	; 0x1a
    2852:	8b 8d       	ldd	r24, Y+27	; 0x1b
    2854:	9c 8d       	ldd	r25, Y+28	; 0x1c
    2856:	20 e0       	ldi	r18, 0x00	; 0
    2858:	30 e0       	ldi	r19, 0x00	; 0
    285a:	4a ef       	ldi	r20, 0xFA	; 250
    285c:	54 e4       	ldi	r21, 0x44	; 68
    285e:	0e 94 7b 0f 	call	0x1ef6	; 0x1ef6 <__mulsf3>
    2862:	dc 01       	movw	r26, r24
    2864:	cb 01       	movw	r24, r22
    2866:	8d 8b       	std	Y+21, r24	; 0x15
    2868:	9e 8b       	std	Y+22, r25	; 0x16
    286a:	af 8b       	std	Y+23, r26	; 0x17
    286c:	b8 8f       	std	Y+24, r27	; 0x18
	if (__tmp < 1.0)
    286e:	6d 89       	ldd	r22, Y+21	; 0x15
    2870:	7e 89       	ldd	r23, Y+22	; 0x16
    2872:	8f 89       	ldd	r24, Y+23	; 0x17
    2874:	98 8d       	ldd	r25, Y+24	; 0x18
    2876:	20 e0       	ldi	r18, 0x00	; 0
    2878:	30 e0       	ldi	r19, 0x00	; 0
    287a:	40 e8       	ldi	r20, 0x80	; 128
    287c:	5f e3       	ldi	r21, 0x3F	; 63
    287e:	0e 94 d5 10 	call	0x21aa	; 0x21aa <__ltsf2>
    2882:	88 23       	and	r24, r24
    2884:	2c f4       	brge	.+10     	; 0x2890 <enterbuzz+0xa4>
		__ticks = 1;
    2886:	81 e0       	ldi	r24, 0x01	; 1
    2888:	90 e0       	ldi	r25, 0x00	; 0
    288a:	9c 8b       	std	Y+20, r25	; 0x14
    288c:	8b 8b       	std	Y+19, r24	; 0x13
    288e:	3f c0       	rjmp	.+126    	; 0x290e <enterbuzz+0x122>
	else if (__tmp > 65535)
    2890:	6d 89       	ldd	r22, Y+21	; 0x15
    2892:	7e 89       	ldd	r23, Y+22	; 0x16
    2894:	8f 89       	ldd	r24, Y+23	; 0x17
    2896:	98 8d       	ldd	r25, Y+24	; 0x18
    2898:	20 e0       	ldi	r18, 0x00	; 0
    289a:	3f ef       	ldi	r19, 0xFF	; 255
    289c:	4f e7       	ldi	r20, 0x7F	; 127
    289e:	57 e4       	ldi	r21, 0x47	; 71
    28a0:	0e 94 75 10 	call	0x20ea	; 0x20ea <__gtsf2>
    28a4:	18 16       	cp	r1, r24
    28a6:	4c f5       	brge	.+82     	; 0x28fa <enterbuzz+0x10e>
	{
		//	__ticks = requested delay in 1/10 ms
		__ticks = (uint16_t) (__ms * 10.0);
    28a8:	69 8d       	ldd	r22, Y+25	; 0x19
    28aa:	7a 8d       	ldd	r23, Y+26	; 0x1a
    28ac:	8b 8d       	ldd	r24, Y+27	; 0x1b
    28ae:	9c 8d       	ldd	r25, Y+28	; 0x1c
    28b0:	20 e0       	ldi	r18, 0x00	; 0
    28b2:	30 e0       	ldi	r19, 0x00	; 0
    28b4:	40 e2       	ldi	r20, 0x20	; 32
    28b6:	51 e4       	ldi	r21, 0x41	; 65
    28b8:	0e 94 7b 0f 	call	0x1ef6	; 0x1ef6 <__mulsf3>
    28bc:	dc 01       	movw	r26, r24
    28be:	cb 01       	movw	r24, r22
    28c0:	bc 01       	movw	r22, r24
    28c2:	cd 01       	movw	r24, r26
    28c4:	0e 94 c0 00 	call	0x180	; 0x180 <__fixunssfsi>
    28c8:	dc 01       	movw	r26, r24
    28ca:	cb 01       	movw	r24, r22
    28cc:	9c 8b       	std	Y+20, r25	; 0x14
    28ce:	8b 8b       	std	Y+19, r24	; 0x13
    28d0:	0f c0       	rjmp	.+30     	; 0x28f0 <enterbuzz+0x104>
    28d2:	88 ec       	ldi	r24, 0xC8	; 200
    28d4:	90 e0       	ldi	r25, 0x00	; 0
    28d6:	9a 8b       	std	Y+18, r25	; 0x12
    28d8:	89 8b       	std	Y+17, r24	; 0x11
    milliseconds can be achieved.
 */
void
_delay_loop_2(uint16_t __count)
{
	__asm__ volatile (
    28da:	89 89       	ldd	r24, Y+17	; 0x11
    28dc:	9a 89       	ldd	r25, Y+18	; 0x12
    28de:	01 97       	sbiw	r24, 0x01	; 1
    28e0:	f1 f7       	brne	.-4      	; 0x28de <enterbuzz+0xf2>
    28e2:	9a 8b       	std	Y+18, r25	; 0x12
    28e4:	89 8b       	std	Y+17, r24	; 0x11
		while(__ticks)
		{
			// wait 1/10 ms
			_delay_loop_2(((F_CPU) / 4e3) / 10);
			__ticks --;
    28e6:	8b 89       	ldd	r24, Y+19	; 0x13
    28e8:	9c 89       	ldd	r25, Y+20	; 0x14
    28ea:	01 97       	sbiw	r24, 0x01	; 1
    28ec:	9c 8b       	std	Y+20, r25	; 0x14
    28ee:	8b 8b       	std	Y+19, r24	; 0x13
		__ticks = 1;
	else if (__tmp > 65535)
	{
		//	__ticks = requested delay in 1/10 ms
		__ticks = (uint16_t) (__ms * 10.0);
		while(__ticks)
    28f0:	8b 89       	ldd	r24, Y+19	; 0x13
    28f2:	9c 89       	ldd	r25, Y+20	; 0x14
    28f4:	00 97       	sbiw	r24, 0x00	; 0
    28f6:	69 f7       	brne	.-38     	; 0x28d2 <enterbuzz+0xe6>
    28f8:	14 c0       	rjmp	.+40     	; 0x2922 <enterbuzz+0x136>
			__ticks --;
		}
		return;
	}
	else
		__ticks = (uint16_t)__tmp;
    28fa:	6d 89       	ldd	r22, Y+21	; 0x15
    28fc:	7e 89       	ldd	r23, Y+22	; 0x16
    28fe:	8f 89       	ldd	r24, Y+23	; 0x17
    2900:	98 8d       	ldd	r25, Y+24	; 0x18
    2902:	0e 94 c0 00 	call	0x180	; 0x180 <__fixunssfsi>
    2906:	dc 01       	movw	r26, r24
    2908:	cb 01       	movw	r24, r22
    290a:	9c 8b       	std	Y+20, r25	; 0x14
    290c:	8b 8b       	std	Y+19, r24	; 0x13
    290e:	8b 89       	ldd	r24, Y+19	; 0x13
    2910:	9c 89       	ldd	r25, Y+20	; 0x14
    2912:	98 8b       	std	Y+16, r25	; 0x10
    2914:	8f 87       	std	Y+15, r24	; 0x0f
    2916:	8f 85       	ldd	r24, Y+15	; 0x0f
    2918:	98 89       	ldd	r25, Y+16	; 0x10
    291a:	01 97       	sbiw	r24, 0x01	; 1
    291c:	f1 f7       	brne	.-4      	; 0x291a <enterbuzz+0x12e>
    291e:	98 8b       	std	Y+16, r25	; 0x10
    2920:	8f 87       	std	Y+15, r24	; 0x0f
		DIO_enumSetPINValue(DIO_PORTC,DIO_PIN7,DIO_LOW);
    2922:	83 e0       	ldi	r24, 0x03	; 3
    2924:	67 e0       	ldi	r22, 0x07	; 7
    2926:	40 e0       	ldi	r20, 0x00	; 0
    2928:	0e 94 49 1b 	call	0x3692	; 0x3692 <DIO_enumSetPINValue>
		_delay_ms(10*x);
    292c:	8d 8d       	ldd	r24, Y+29	; 0x1d
    292e:	88 2f       	mov	r24, r24
    2930:	90 e0       	ldi	r25, 0x00	; 0
    2932:	9c 01       	movw	r18, r24
    2934:	22 0f       	add	r18, r18
    2936:	33 1f       	adc	r19, r19
    2938:	c9 01       	movw	r24, r18
    293a:	88 0f       	add	r24, r24
    293c:	99 1f       	adc	r25, r25
    293e:	88 0f       	add	r24, r24
    2940:	99 1f       	adc	r25, r25
    2942:	82 0f       	add	r24, r18
    2944:	93 1f       	adc	r25, r19
    2946:	aa 27       	eor	r26, r26
    2948:	97 fd       	sbrc	r25, 7
    294a:	a0 95       	com	r26
    294c:	ba 2f       	mov	r27, r26
    294e:	bc 01       	movw	r22, r24
    2950:	cd 01       	movw	r24, r26
    2952:	0e 94 05 11 	call	0x220a	; 0x220a <__floatsisf>
    2956:	dc 01       	movw	r26, r24
    2958:	cb 01       	movw	r24, r22
    295a:	8b 87       	std	Y+11, r24	; 0x0b
    295c:	9c 87       	std	Y+12, r25	; 0x0c
    295e:	ad 87       	std	Y+13, r26	; 0x0d
    2960:	be 87       	std	Y+14, r27	; 0x0e
 */
void
_delay_ms(double __ms)
{
	uint16_t __ticks;
	double __tmp = ((F_CPU) / 4e3) * __ms;
    2962:	6b 85       	ldd	r22, Y+11	; 0x0b
    2964:	7c 85       	ldd	r23, Y+12	; 0x0c
    2966:	8d 85       	ldd	r24, Y+13	; 0x0d
    2968:	9e 85       	ldd	r25, Y+14	; 0x0e
    296a:	20 e0       	ldi	r18, 0x00	; 0
    296c:	30 e0       	ldi	r19, 0x00	; 0
    296e:	4a ef       	ldi	r20, 0xFA	; 250
    2970:	54 e4       	ldi	r21, 0x44	; 68
    2972:	0e 94 7b 0f 	call	0x1ef6	; 0x1ef6 <__mulsf3>
    2976:	dc 01       	movw	r26, r24
    2978:	cb 01       	movw	r24, r22
    297a:	8f 83       	std	Y+7, r24	; 0x07
    297c:	98 87       	std	Y+8, r25	; 0x08
    297e:	a9 87       	std	Y+9, r26	; 0x09
    2980:	ba 87       	std	Y+10, r27	; 0x0a
	if (__tmp < 1.0)
    2982:	6f 81       	ldd	r22, Y+7	; 0x07
    2984:	78 85       	ldd	r23, Y+8	; 0x08
    2986:	89 85       	ldd	r24, Y+9	; 0x09
    2988:	9a 85       	ldd	r25, Y+10	; 0x0a
    298a:	20 e0       	ldi	r18, 0x00	; 0
    298c:	30 e0       	ldi	r19, 0x00	; 0
    298e:	40 e8       	ldi	r20, 0x80	; 128
    2990:	5f e3       	ldi	r21, 0x3F	; 63
    2992:	0e 94 d5 10 	call	0x21aa	; 0x21aa <__ltsf2>
    2996:	88 23       	and	r24, r24
    2998:	2c f4       	brge	.+10     	; 0x29a4 <enterbuzz+0x1b8>
		__ticks = 1;
    299a:	81 e0       	ldi	r24, 0x01	; 1
    299c:	90 e0       	ldi	r25, 0x00	; 0
    299e:	9e 83       	std	Y+6, r25	; 0x06
    29a0:	8d 83       	std	Y+5, r24	; 0x05
    29a2:	3f c0       	rjmp	.+126    	; 0x2a22 <enterbuzz+0x236>
	else if (__tmp > 65535)
    29a4:	6f 81       	ldd	r22, Y+7	; 0x07
    29a6:	78 85       	ldd	r23, Y+8	; 0x08
    29a8:	89 85       	ldd	r24, Y+9	; 0x09
    29aa:	9a 85       	ldd	r25, Y+10	; 0x0a
    29ac:	20 e0       	ldi	r18, 0x00	; 0
    29ae:	3f ef       	ldi	r19, 0xFF	; 255
    29b0:	4f e7       	ldi	r20, 0x7F	; 127
    29b2:	57 e4       	ldi	r21, 0x47	; 71
    29b4:	0e 94 75 10 	call	0x20ea	; 0x20ea <__gtsf2>
    29b8:	18 16       	cp	r1, r24
    29ba:	4c f5       	brge	.+82     	; 0x2a0e <enterbuzz+0x222>
	{
		//	__ticks = requested delay in 1/10 ms
		__ticks = (uint16_t) (__ms * 10.0);
    29bc:	6b 85       	ldd	r22, Y+11	; 0x0b
    29be:	7c 85       	ldd	r23, Y+12	; 0x0c
    29c0:	8d 85       	ldd	r24, Y+13	; 0x0d
    29c2:	9e 85       	ldd	r25, Y+14	; 0x0e
    29c4:	20 e0       	ldi	r18, 0x00	; 0
    29c6:	30 e0       	ldi	r19, 0x00	; 0
    29c8:	40 e2       	ldi	r20, 0x20	; 32
    29ca:	51 e4       	ldi	r21, 0x41	; 65
    29cc:	0e 94 7b 0f 	call	0x1ef6	; 0x1ef6 <__mulsf3>
    29d0:	dc 01       	movw	r26, r24
    29d2:	cb 01       	movw	r24, r22
    29d4:	bc 01       	movw	r22, r24
    29d6:	cd 01       	movw	r24, r26
    29d8:	0e 94 c0 00 	call	0x180	; 0x180 <__fixunssfsi>
    29dc:	dc 01       	movw	r26, r24
    29de:	cb 01       	movw	r24, r22
    29e0:	9e 83       	std	Y+6, r25	; 0x06
    29e2:	8d 83       	std	Y+5, r24	; 0x05
    29e4:	0f c0       	rjmp	.+30     	; 0x2a04 <enterbuzz+0x218>
    29e6:	88 ec       	ldi	r24, 0xC8	; 200
    29e8:	90 e0       	ldi	r25, 0x00	; 0
    29ea:	9c 83       	std	Y+4, r25	; 0x04
    29ec:	8b 83       	std	Y+3, r24	; 0x03
    29ee:	8b 81       	ldd	r24, Y+3	; 0x03
    29f0:	9c 81       	ldd	r25, Y+4	; 0x04
    29f2:	01 97       	sbiw	r24, 0x01	; 1
    29f4:	f1 f7       	brne	.-4      	; 0x29f2 <enterbuzz+0x206>
    29f6:	9c 83       	std	Y+4, r25	; 0x04
    29f8:	8b 83       	std	Y+3, r24	; 0x03
		while(__ticks)
		{
			// wait 1/10 ms
			_delay_loop_2(((F_CPU) / 4e3) / 10);
			__ticks --;
    29fa:	8d 81       	ldd	r24, Y+5	; 0x05
    29fc:	9e 81       	ldd	r25, Y+6	; 0x06
    29fe:	01 97       	sbiw	r24, 0x01	; 1
    2a00:	9e 83       	std	Y+6, r25	; 0x06
    2a02:	8d 83       	std	Y+5, r24	; 0x05
		__ticks = 1;
	else if (__tmp > 65535)
	{
		//	__ticks = requested delay in 1/10 ms
		__ticks = (uint16_t) (__ms * 10.0);
		while(__ticks)
    2a04:	8d 81       	ldd	r24, Y+5	; 0x05
    2a06:	9e 81       	ldd	r25, Y+6	; 0x06
    2a08:	00 97       	sbiw	r24, 0x00	; 0
    2a0a:	69 f7       	brne	.-38     	; 0x29e6 <enterbuzz+0x1fa>
    2a0c:	14 c0       	rjmp	.+40     	; 0x2a36 <enterbuzz+0x24a>
			__ticks --;
		}
		return;
	}
	else
		__ticks = (uint16_t)__tmp;
    2a0e:	6f 81       	ldd	r22, Y+7	; 0x07
    2a10:	78 85       	ldd	r23, Y+8	; 0x08
    2a12:	89 85       	ldd	r24, Y+9	; 0x09
    2a14:	9a 85       	ldd	r25, Y+10	; 0x0a
    2a16:	0e 94 c0 00 	call	0x180	; 0x180 <__fixunssfsi>
    2a1a:	dc 01       	movw	r26, r24
    2a1c:	cb 01       	movw	r24, r22
    2a1e:	9e 83       	std	Y+6, r25	; 0x06
    2a20:	8d 83       	std	Y+5, r24	; 0x05
    2a22:	8d 81       	ldd	r24, Y+5	; 0x05
    2a24:	9e 81       	ldd	r25, Y+6	; 0x06
    2a26:	9a 83       	std	Y+2, r25	; 0x02
    2a28:	89 83       	std	Y+1, r24	; 0x01
    2a2a:	89 81       	ldd	r24, Y+1	; 0x01
    2a2c:	9a 81       	ldd	r25, Y+2	; 0x02
    2a2e:	01 97       	sbiw	r24, 0x01	; 1
    2a30:	f1 f7       	brne	.-4      	; 0x2a2e <enterbuzz+0x242>
    2a32:	9a 83       	std	Y+2, r25	; 0x02
    2a34:	89 83       	std	Y+1, r24	; 0x01
	DIO_enumSetPINValue(DIO_PORTC,DIO_PIN7,DIO_HIGH);
}
void enterbuzz(void)
{
	DIO_enumSetPINDirection(DIO_PORTC,DIO_PIN7,DIO_OUTPUT);
	for(u8 x=0;x<8;x++)
    2a36:	8d 8d       	ldd	r24, Y+29	; 0x1d
    2a38:	8f 5f       	subi	r24, 0xFF	; 255
    2a3a:	8d 8f       	std	Y+29, r24	; 0x1d
    2a3c:	8d 8d       	ldd	r24, Y+29	; 0x1d
    2a3e:	88 30       	cpi	r24, 0x08	; 8
    2a40:	08 f4       	brcc	.+2      	; 0x2a44 <enterbuzz+0x258>
    2a42:	e5 ce       	rjmp	.-566    	; 0x280e <enterbuzz+0x22>
		DIO_enumSetPINValue(DIO_PORTC,DIO_PIN7,DIO_LOW);
		_delay_ms(10*x);

	}

}
    2a44:	6d 96       	adiw	r28, 0x1d	; 29
    2a46:	0f b6       	in	r0, 0x3f	; 63
    2a48:	f8 94       	cli
    2a4a:	de bf       	out	0x3e, r29	; 62
    2a4c:	0f be       	out	0x3f, r0	; 63
    2a4e:	cd bf       	out	0x3d, r28	; 61
    2a50:	cf 91       	pop	r28
    2a52:	df 91       	pop	r29
    2a54:	08 95       	ret

00002a56 <main>:


int main (void)
{
    2a56:	df 93       	push	r29
    2a58:	cf 93       	push	r28
    2a5a:	cd b7       	in	r28, 0x3d	; 61
    2a5c:	de b7       	in	r29, 0x3e	; 62
    2a5e:	c5 56       	subi	r28, 0x65	; 101
    2a60:	d0 40       	sbci	r29, 0x00	; 0
    2a62:	0f b6       	in	r0, 0x3f	; 63
    2a64:	f8 94       	cli
    2a66:	de bf       	out	0x3e, r29	; 62
    2a68:	0f be       	out	0x3f, r0	; 63
    2a6a:	cd bf       	out	0x3d, r28	; 61


	u8 user1[3]={'a','b','c'};
    2a6c:	9e 01       	movw	r18, r28
    2a6e:	2f 5c       	subi	r18, 0xCF	; 207
    2a70:	3f 4f       	sbci	r19, 0xFF	; 255
    2a72:	2a 96       	adiw	r28, 0x0a	; 10
    2a74:	3f af       	std	Y+63, r19	; 0x3f
    2a76:	2e af       	std	Y+62, r18	; 0x3e
    2a78:	2a 97       	sbiw	r28, 0x0a	; 10
    2a7a:	85 e0       	ldi	r24, 0x05	; 5
    2a7c:	92 e0       	ldi	r25, 0x02	; 2
    2a7e:	2c 96       	adiw	r28, 0x0c	; 12
    2a80:	9f af       	std	Y+63, r25	; 0x3f
    2a82:	8e af       	std	Y+62, r24	; 0x3e
    2a84:	2c 97       	sbiw	r28, 0x0c	; 12
    2a86:	93 e0       	ldi	r25, 0x03	; 3
    2a88:	2d 96       	adiw	r28, 0x0d	; 13
    2a8a:	9f af       	std	Y+63, r25	; 0x3f
    2a8c:	2d 97       	sbiw	r28, 0x0d	; 13
    2a8e:	2c 96       	adiw	r28, 0x0c	; 12
    2a90:	ae ad       	ldd	r26, Y+62	; 0x3e
    2a92:	bf ad       	ldd	r27, Y+63	; 0x3f
    2a94:	2c 97       	sbiw	r28, 0x0c	; 12
    2a96:	0c 90       	ld	r0, X
    2a98:	2c 96       	adiw	r28, 0x0c	; 12
    2a9a:	ee ad       	ldd	r30, Y+62	; 0x3e
    2a9c:	ff ad       	ldd	r31, Y+63	; 0x3f
    2a9e:	2c 97       	sbiw	r28, 0x0c	; 12
    2aa0:	31 96       	adiw	r30, 0x01	; 1
    2aa2:	2c 96       	adiw	r28, 0x0c	; 12
    2aa4:	ff af       	std	Y+63, r31	; 0x3f
    2aa6:	ee af       	std	Y+62, r30	; 0x3e
    2aa8:	2c 97       	sbiw	r28, 0x0c	; 12
    2aaa:	2a 96       	adiw	r28, 0x0a	; 10
    2aac:	ae ad       	ldd	r26, Y+62	; 0x3e
    2aae:	bf ad       	ldd	r27, Y+63	; 0x3f
    2ab0:	2a 97       	sbiw	r28, 0x0a	; 10
    2ab2:	0c 92       	st	X, r0
    2ab4:	2a 96       	adiw	r28, 0x0a	; 10
    2ab6:	ee ad       	ldd	r30, Y+62	; 0x3e
    2ab8:	ff ad       	ldd	r31, Y+63	; 0x3f
    2aba:	2a 97       	sbiw	r28, 0x0a	; 10
    2abc:	31 96       	adiw	r30, 0x01	; 1
    2abe:	2a 96       	adiw	r28, 0x0a	; 10
    2ac0:	ff af       	std	Y+63, r31	; 0x3f
    2ac2:	ee af       	std	Y+62, r30	; 0x3e
    2ac4:	2a 97       	sbiw	r28, 0x0a	; 10
    2ac6:	2d 96       	adiw	r28, 0x0d	; 13
    2ac8:	ff ad       	ldd	r31, Y+63	; 0x3f
    2aca:	2d 97       	sbiw	r28, 0x0d	; 13
    2acc:	f1 50       	subi	r31, 0x01	; 1
    2ace:	2d 96       	adiw	r28, 0x0d	; 13
    2ad0:	ff af       	std	Y+63, r31	; 0x3f
    2ad2:	2d 97       	sbiw	r28, 0x0d	; 13
    2ad4:	2d 96       	adiw	r28, 0x0d	; 13
    2ad6:	2f ad       	ldd	r18, Y+63	; 0x3f
    2ad8:	2d 97       	sbiw	r28, 0x0d	; 13
    2ada:	22 23       	and	r18, r18
    2adc:	c1 f6       	brne	.-80     	; 0x2a8e <main+0x38>
	u8 user2[3]={'b','a','c'};
    2ade:	ce 01       	movw	r24, r28
    2ae0:	c4 96       	adiw	r24, 0x34	; 52
    2ae2:	2f 96       	adiw	r28, 0x0f	; 15
    2ae4:	9f af       	std	Y+63, r25	; 0x3f
    2ae6:	8e af       	std	Y+62, r24	; 0x3e
    2ae8:	2f 97       	sbiw	r28, 0x0f	; 15
    2aea:	a2 e0       	ldi	r26, 0x02	; 2
    2aec:	b2 e0       	ldi	r27, 0x02	; 2
    2aee:	61 96       	adiw	r28, 0x11	; 17
    2af0:	bf af       	std	Y+63, r27	; 0x3f
    2af2:	ae af       	std	Y+62, r26	; 0x3e
    2af4:	61 97       	sbiw	r28, 0x11	; 17
    2af6:	b3 e0       	ldi	r27, 0x03	; 3
    2af8:	62 96       	adiw	r28, 0x12	; 18
    2afa:	bf af       	std	Y+63, r27	; 0x3f
    2afc:	62 97       	sbiw	r28, 0x12	; 18
    2afe:	61 96       	adiw	r28, 0x11	; 17
    2b00:	ee ad       	ldd	r30, Y+62	; 0x3e
    2b02:	ff ad       	ldd	r31, Y+63	; 0x3f
    2b04:	61 97       	sbiw	r28, 0x11	; 17
    2b06:	00 80       	ld	r0, Z
    2b08:	61 96       	adiw	r28, 0x11	; 17
    2b0a:	2e ad       	ldd	r18, Y+62	; 0x3e
    2b0c:	3f ad       	ldd	r19, Y+63	; 0x3f
    2b0e:	61 97       	sbiw	r28, 0x11	; 17
    2b10:	2f 5f       	subi	r18, 0xFF	; 255
    2b12:	3f 4f       	sbci	r19, 0xFF	; 255
    2b14:	61 96       	adiw	r28, 0x11	; 17
    2b16:	3f af       	std	Y+63, r19	; 0x3f
    2b18:	2e af       	std	Y+62, r18	; 0x3e
    2b1a:	61 97       	sbiw	r28, 0x11	; 17
    2b1c:	2f 96       	adiw	r28, 0x0f	; 15
    2b1e:	ae ad       	ldd	r26, Y+62	; 0x3e
    2b20:	bf ad       	ldd	r27, Y+63	; 0x3f
    2b22:	2f 97       	sbiw	r28, 0x0f	; 15
    2b24:	0c 92       	st	X, r0
    2b26:	2f 96       	adiw	r28, 0x0f	; 15
    2b28:	ee ad       	ldd	r30, Y+62	; 0x3e
    2b2a:	ff ad       	ldd	r31, Y+63	; 0x3f
    2b2c:	2f 97       	sbiw	r28, 0x0f	; 15
    2b2e:	31 96       	adiw	r30, 0x01	; 1
    2b30:	2f 96       	adiw	r28, 0x0f	; 15
    2b32:	ff af       	std	Y+63, r31	; 0x3f
    2b34:	ee af       	std	Y+62, r30	; 0x3e
    2b36:	2f 97       	sbiw	r28, 0x0f	; 15
    2b38:	62 96       	adiw	r28, 0x12	; 18
    2b3a:	ff ad       	ldd	r31, Y+63	; 0x3f
    2b3c:	62 97       	sbiw	r28, 0x12	; 18
    2b3e:	f1 50       	subi	r31, 0x01	; 1
    2b40:	62 96       	adiw	r28, 0x12	; 18
    2b42:	ff af       	std	Y+63, r31	; 0x3f
    2b44:	62 97       	sbiw	r28, 0x12	; 18
    2b46:	62 96       	adiw	r28, 0x12	; 18
    2b48:	2f ad       	ldd	r18, Y+63	; 0x3f
    2b4a:	62 97       	sbiw	r28, 0x12	; 18
    2b4c:	22 23       	and	r18, r18
    2b4e:	b9 f6       	brne	.-82     	; 0x2afe <main+0xa8>
	u8 user3[3]={'c','a','b'};
    2b50:	ce 01       	movw	r24, r28
    2b52:	c7 96       	adiw	r24, 0x37	; 55
    2b54:	64 96       	adiw	r28, 0x14	; 20
    2b56:	9f af       	std	Y+63, r25	; 0x3f
    2b58:	8e af       	std	Y+62, r24	; 0x3e
    2b5a:	64 97       	sbiw	r28, 0x14	; 20
    2b5c:	af ef       	ldi	r26, 0xFF	; 255
    2b5e:	b1 e0       	ldi	r27, 0x01	; 1
    2b60:	66 96       	adiw	r28, 0x16	; 22
    2b62:	bf af       	std	Y+63, r27	; 0x3f
    2b64:	ae af       	std	Y+62, r26	; 0x3e
    2b66:	66 97       	sbiw	r28, 0x16	; 22
    2b68:	b3 e0       	ldi	r27, 0x03	; 3
    2b6a:	67 96       	adiw	r28, 0x17	; 23
    2b6c:	bf af       	std	Y+63, r27	; 0x3f
    2b6e:	67 97       	sbiw	r28, 0x17	; 23
    2b70:	66 96       	adiw	r28, 0x16	; 22
    2b72:	ee ad       	ldd	r30, Y+62	; 0x3e
    2b74:	ff ad       	ldd	r31, Y+63	; 0x3f
    2b76:	66 97       	sbiw	r28, 0x16	; 22
    2b78:	00 80       	ld	r0, Z
    2b7a:	66 96       	adiw	r28, 0x16	; 22
    2b7c:	2e ad       	ldd	r18, Y+62	; 0x3e
    2b7e:	3f ad       	ldd	r19, Y+63	; 0x3f
    2b80:	66 97       	sbiw	r28, 0x16	; 22
    2b82:	2f 5f       	subi	r18, 0xFF	; 255
    2b84:	3f 4f       	sbci	r19, 0xFF	; 255
    2b86:	66 96       	adiw	r28, 0x16	; 22
    2b88:	3f af       	std	Y+63, r19	; 0x3f
    2b8a:	2e af       	std	Y+62, r18	; 0x3e
    2b8c:	66 97       	sbiw	r28, 0x16	; 22
    2b8e:	64 96       	adiw	r28, 0x14	; 20
    2b90:	ae ad       	ldd	r26, Y+62	; 0x3e
    2b92:	bf ad       	ldd	r27, Y+63	; 0x3f
    2b94:	64 97       	sbiw	r28, 0x14	; 20
    2b96:	0c 92       	st	X, r0
    2b98:	64 96       	adiw	r28, 0x14	; 20
    2b9a:	ee ad       	ldd	r30, Y+62	; 0x3e
    2b9c:	ff ad       	ldd	r31, Y+63	; 0x3f
    2b9e:	64 97       	sbiw	r28, 0x14	; 20
    2ba0:	31 96       	adiw	r30, 0x01	; 1
    2ba2:	64 96       	adiw	r28, 0x14	; 20
    2ba4:	ff af       	std	Y+63, r31	; 0x3f
    2ba6:	ee af       	std	Y+62, r30	; 0x3e
    2ba8:	64 97       	sbiw	r28, 0x14	; 20
    2baa:	67 96       	adiw	r28, 0x17	; 23
    2bac:	ff ad       	ldd	r31, Y+63	; 0x3f
    2bae:	67 97       	sbiw	r28, 0x17	; 23
    2bb0:	f1 50       	subi	r31, 0x01	; 1
    2bb2:	67 96       	adiw	r28, 0x17	; 23
    2bb4:	ff af       	std	Y+63, r31	; 0x3f
    2bb6:	67 97       	sbiw	r28, 0x17	; 23
    2bb8:	67 96       	adiw	r28, 0x17	; 23
    2bba:	2f ad       	ldd	r18, Y+63	; 0x3f
    2bbc:	67 97       	sbiw	r28, 0x17	; 23
    2bbe:	22 23       	and	r18, r18
    2bc0:	b9 f6       	brne	.-82     	; 0x2b70 <main+0x11a>

	u8 pass1[3]={'1','2','3'};
    2bc2:	ce 01       	movw	r24, r28
    2bc4:	ca 96       	adiw	r24, 0x3a	; 58
    2bc6:	69 96       	adiw	r28, 0x19	; 25
    2bc8:	9f af       	std	Y+63, r25	; 0x3f
    2bca:	8e af       	std	Y+62, r24	; 0x3e
    2bcc:	69 97       	sbiw	r28, 0x19	; 25
    2bce:	ac ef       	ldi	r26, 0xFC	; 252
    2bd0:	b1 e0       	ldi	r27, 0x01	; 1
    2bd2:	6b 96       	adiw	r28, 0x1b	; 27
    2bd4:	bf af       	std	Y+63, r27	; 0x3f
    2bd6:	ae af       	std	Y+62, r26	; 0x3e
    2bd8:	6b 97       	sbiw	r28, 0x1b	; 27
    2bda:	b3 e0       	ldi	r27, 0x03	; 3
    2bdc:	6c 96       	adiw	r28, 0x1c	; 28
    2bde:	bf af       	std	Y+63, r27	; 0x3f
    2be0:	6c 97       	sbiw	r28, 0x1c	; 28
    2be2:	6b 96       	adiw	r28, 0x1b	; 27
    2be4:	ee ad       	ldd	r30, Y+62	; 0x3e
    2be6:	ff ad       	ldd	r31, Y+63	; 0x3f
    2be8:	6b 97       	sbiw	r28, 0x1b	; 27
    2bea:	00 80       	ld	r0, Z
    2bec:	6b 96       	adiw	r28, 0x1b	; 27
    2bee:	2e ad       	ldd	r18, Y+62	; 0x3e
    2bf0:	3f ad       	ldd	r19, Y+63	; 0x3f
    2bf2:	6b 97       	sbiw	r28, 0x1b	; 27
    2bf4:	2f 5f       	subi	r18, 0xFF	; 255
    2bf6:	3f 4f       	sbci	r19, 0xFF	; 255
    2bf8:	6b 96       	adiw	r28, 0x1b	; 27
    2bfa:	3f af       	std	Y+63, r19	; 0x3f
    2bfc:	2e af       	std	Y+62, r18	; 0x3e
    2bfe:	6b 97       	sbiw	r28, 0x1b	; 27
    2c00:	69 96       	adiw	r28, 0x19	; 25
    2c02:	ae ad       	ldd	r26, Y+62	; 0x3e
    2c04:	bf ad       	ldd	r27, Y+63	; 0x3f
    2c06:	69 97       	sbiw	r28, 0x19	; 25
    2c08:	0c 92       	st	X, r0
    2c0a:	69 96       	adiw	r28, 0x19	; 25
    2c0c:	ee ad       	ldd	r30, Y+62	; 0x3e
    2c0e:	ff ad       	ldd	r31, Y+63	; 0x3f
    2c10:	69 97       	sbiw	r28, 0x19	; 25
    2c12:	31 96       	adiw	r30, 0x01	; 1
    2c14:	69 96       	adiw	r28, 0x19	; 25
    2c16:	ff af       	std	Y+63, r31	; 0x3f
    2c18:	ee af       	std	Y+62, r30	; 0x3e
    2c1a:	69 97       	sbiw	r28, 0x19	; 25
    2c1c:	6c 96       	adiw	r28, 0x1c	; 28
    2c1e:	ff ad       	ldd	r31, Y+63	; 0x3f
    2c20:	6c 97       	sbiw	r28, 0x1c	; 28
    2c22:	f1 50       	subi	r31, 0x01	; 1
    2c24:	6c 96       	adiw	r28, 0x1c	; 28
    2c26:	ff af       	std	Y+63, r31	; 0x3f
    2c28:	6c 97       	sbiw	r28, 0x1c	; 28
    2c2a:	6c 96       	adiw	r28, 0x1c	; 28
    2c2c:	2f ad       	ldd	r18, Y+63	; 0x3f
    2c2e:	6c 97       	sbiw	r28, 0x1c	; 28
    2c30:	22 23       	and	r18, r18
    2c32:	b9 f6       	brne	.-82     	; 0x2be2 <main+0x18c>
	u8 pass2[3]={'4','5','6'};
    2c34:	ce 01       	movw	r24, r28
    2c36:	cd 96       	adiw	r24, 0x3d	; 61
    2c38:	6e 96       	adiw	r28, 0x1e	; 30
    2c3a:	9f af       	std	Y+63, r25	; 0x3f
    2c3c:	8e af       	std	Y+62, r24	; 0x3e
    2c3e:	6e 97       	sbiw	r28, 0x1e	; 30
    2c40:	a9 ef       	ldi	r26, 0xF9	; 249
    2c42:	b1 e0       	ldi	r27, 0x01	; 1
    2c44:	a0 96       	adiw	r28, 0x20	; 32
    2c46:	bf af       	std	Y+63, r27	; 0x3f
    2c48:	ae af       	std	Y+62, r26	; 0x3e
    2c4a:	a0 97       	sbiw	r28, 0x20	; 32
    2c4c:	b3 e0       	ldi	r27, 0x03	; 3
    2c4e:	a1 96       	adiw	r28, 0x21	; 33
    2c50:	bf af       	std	Y+63, r27	; 0x3f
    2c52:	a1 97       	sbiw	r28, 0x21	; 33
    2c54:	a0 96       	adiw	r28, 0x20	; 32
    2c56:	ee ad       	ldd	r30, Y+62	; 0x3e
    2c58:	ff ad       	ldd	r31, Y+63	; 0x3f
    2c5a:	a0 97       	sbiw	r28, 0x20	; 32
    2c5c:	00 80       	ld	r0, Z
    2c5e:	a0 96       	adiw	r28, 0x20	; 32
    2c60:	2e ad       	ldd	r18, Y+62	; 0x3e
    2c62:	3f ad       	ldd	r19, Y+63	; 0x3f
    2c64:	a0 97       	sbiw	r28, 0x20	; 32
    2c66:	2f 5f       	subi	r18, 0xFF	; 255
    2c68:	3f 4f       	sbci	r19, 0xFF	; 255
    2c6a:	a0 96       	adiw	r28, 0x20	; 32
    2c6c:	3f af       	std	Y+63, r19	; 0x3f
    2c6e:	2e af       	std	Y+62, r18	; 0x3e
    2c70:	a0 97       	sbiw	r28, 0x20	; 32
    2c72:	6e 96       	adiw	r28, 0x1e	; 30
    2c74:	ae ad       	ldd	r26, Y+62	; 0x3e
    2c76:	bf ad       	ldd	r27, Y+63	; 0x3f
    2c78:	6e 97       	sbiw	r28, 0x1e	; 30
    2c7a:	0c 92       	st	X, r0
    2c7c:	6e 96       	adiw	r28, 0x1e	; 30
    2c7e:	ee ad       	ldd	r30, Y+62	; 0x3e
    2c80:	ff ad       	ldd	r31, Y+63	; 0x3f
    2c82:	6e 97       	sbiw	r28, 0x1e	; 30
    2c84:	31 96       	adiw	r30, 0x01	; 1
    2c86:	6e 96       	adiw	r28, 0x1e	; 30
    2c88:	ff af       	std	Y+63, r31	; 0x3f
    2c8a:	ee af       	std	Y+62, r30	; 0x3e
    2c8c:	6e 97       	sbiw	r28, 0x1e	; 30
    2c8e:	a1 96       	adiw	r28, 0x21	; 33
    2c90:	ff ad       	ldd	r31, Y+63	; 0x3f
    2c92:	a1 97       	sbiw	r28, 0x21	; 33
    2c94:	f1 50       	subi	r31, 0x01	; 1
    2c96:	a1 96       	adiw	r28, 0x21	; 33
    2c98:	ff af       	std	Y+63, r31	; 0x3f
    2c9a:	a1 97       	sbiw	r28, 0x21	; 33
    2c9c:	a1 96       	adiw	r28, 0x21	; 33
    2c9e:	2f ad       	ldd	r18, Y+63	; 0x3f
    2ca0:	a1 97       	sbiw	r28, 0x21	; 33
    2ca2:	22 23       	and	r18, r18
    2ca4:	b9 f6       	brne	.-82     	; 0x2c54 <main+0x1fe>
	u8 pass3[3]={'7','8','9'};
    2ca6:	ce 01       	movw	r24, r28
    2ca8:	80 5c       	subi	r24, 0xC0	; 192
    2caa:	9f 4f       	sbci	r25, 0xFF	; 255
    2cac:	a3 96       	adiw	r28, 0x23	; 35
    2cae:	9f af       	std	Y+63, r25	; 0x3f
    2cb0:	8e af       	std	Y+62, r24	; 0x3e
    2cb2:	a3 97       	sbiw	r28, 0x23	; 35
    2cb4:	a6 ef       	ldi	r26, 0xF6	; 246
    2cb6:	b1 e0       	ldi	r27, 0x01	; 1
    2cb8:	a5 96       	adiw	r28, 0x25	; 37
    2cba:	bf af       	std	Y+63, r27	; 0x3f
    2cbc:	ae af       	std	Y+62, r26	; 0x3e
    2cbe:	a5 97       	sbiw	r28, 0x25	; 37
    2cc0:	b3 e0       	ldi	r27, 0x03	; 3
    2cc2:	a6 96       	adiw	r28, 0x26	; 38
    2cc4:	bf af       	std	Y+63, r27	; 0x3f
    2cc6:	a6 97       	sbiw	r28, 0x26	; 38
    2cc8:	a5 96       	adiw	r28, 0x25	; 37
    2cca:	ee ad       	ldd	r30, Y+62	; 0x3e
    2ccc:	ff ad       	ldd	r31, Y+63	; 0x3f
    2cce:	a5 97       	sbiw	r28, 0x25	; 37
    2cd0:	00 80       	ld	r0, Z
    2cd2:	a5 96       	adiw	r28, 0x25	; 37
    2cd4:	2e ad       	ldd	r18, Y+62	; 0x3e
    2cd6:	3f ad       	ldd	r19, Y+63	; 0x3f
    2cd8:	a5 97       	sbiw	r28, 0x25	; 37
    2cda:	2f 5f       	subi	r18, 0xFF	; 255
    2cdc:	3f 4f       	sbci	r19, 0xFF	; 255
    2cde:	a5 96       	adiw	r28, 0x25	; 37
    2ce0:	3f af       	std	Y+63, r19	; 0x3f
    2ce2:	2e af       	std	Y+62, r18	; 0x3e
    2ce4:	a5 97       	sbiw	r28, 0x25	; 37
    2ce6:	a3 96       	adiw	r28, 0x23	; 35
    2ce8:	ae ad       	ldd	r26, Y+62	; 0x3e
    2cea:	bf ad       	ldd	r27, Y+63	; 0x3f
    2cec:	a3 97       	sbiw	r28, 0x23	; 35
    2cee:	0c 92       	st	X, r0
    2cf0:	a3 96       	adiw	r28, 0x23	; 35
    2cf2:	ee ad       	ldd	r30, Y+62	; 0x3e
    2cf4:	ff ad       	ldd	r31, Y+63	; 0x3f
    2cf6:	a3 97       	sbiw	r28, 0x23	; 35
    2cf8:	31 96       	adiw	r30, 0x01	; 1
    2cfa:	a3 96       	adiw	r28, 0x23	; 35
    2cfc:	ff af       	std	Y+63, r31	; 0x3f
    2cfe:	ee af       	std	Y+62, r30	; 0x3e
    2d00:	a3 97       	sbiw	r28, 0x23	; 35
    2d02:	a6 96       	adiw	r28, 0x26	; 38
    2d04:	ff ad       	ldd	r31, Y+63	; 0x3f
    2d06:	a6 97       	sbiw	r28, 0x26	; 38
    2d08:	f1 50       	subi	r31, 0x01	; 1
    2d0a:	a6 96       	adiw	r28, 0x26	; 38
    2d0c:	ff af       	std	Y+63, r31	; 0x3f
    2d0e:	a6 97       	sbiw	r28, 0x26	; 38
    2d10:	a6 96       	adiw	r28, 0x26	; 38
    2d12:	2f ad       	ldd	r18, Y+63	; 0x3f
    2d14:	a6 97       	sbiw	r28, 0x26	; 38
    2d16:	22 23       	and	r18, r18
    2d18:	b9 f6       	brne	.-82     	; 0x2cc8 <main+0x272>

	u8 Log_input[3]={0};
    2d1a:	ce 01       	movw	r24, r28
    2d1c:	8d 5b       	subi	r24, 0xBD	; 189
    2d1e:	9f 4f       	sbci	r25, 0xFF	; 255
    2d20:	23 e0       	ldi	r18, 0x03	; 3
    2d22:	fc 01       	movw	r30, r24
    2d24:	df 01       	movw	r26, r30
    2d26:	32 2f       	mov	r19, r18
    2d28:	1d 92       	st	X+, r1
    2d2a:	3a 95       	dec	r19
    2d2c:	e9 f7       	brne	.-6      	; 0x2d28 <main+0x2d2>
	u8 i=0;
    2d2e:	18 aa       	std	Y+48, r1	; 0x30
	u8 login_flag=0;
    2d30:	1f a6       	std	Y+47, r1	; 0x2f
	u8 login_err=0;
    2d32:	1e a6       	std	Y+46, r1	; 0x2e
	u8 pass_err=0;
    2d34:	1d a6       	std	Y+45, r1	; 0x2d
	u8 wedone =0;
    2d36:	1c a6       	std	Y+44, r1	; 0x2c
	CLCD_voidInit();
    2d38:	0e 94 63 1e 	call	0x3cc6	; 0x3cc6 <CLCD_voidInit>
	KPD_voidInit();
    2d3c:	0e 94 0d 27 	call	0x4e1a	; 0x4e1a <KPD_voidInit>
	CLCD_voidSendCommand(CLCD_DISPON_CURSON);
    2d40:	8e e0       	ldi	r24, 0x0E	; 14
    2d42:	0e 94 6d 21 	call	0x42da	; 0x42da <CLCD_voidSendCommand>
	CLCD_voidSendString("welcome ..!");
    2d46:	80 e6       	ldi	r24, 0x60	; 96
    2d48:	90 e0       	ldi	r25, 0x00	; 0
    2d4a:	0e 94 7d 22 	call	0x44fa	; 0x44fa <CLCD_voidSendString>
    2d4e:	80 e0       	ldi	r24, 0x00	; 0
    2d50:	90 e8       	ldi	r25, 0x80	; 128
    2d52:	ab e3       	ldi	r26, 0x3B	; 59
    2d54:	b5 e4       	ldi	r27, 0x45	; 69
    2d56:	8f a3       	std	Y+39, r24	; 0x27
    2d58:	98 a7       	std	Y+40, r25	; 0x28
    2d5a:	a9 a7       	std	Y+41, r26	; 0x29
    2d5c:	ba a7       	std	Y+42, r27	; 0x2a
 */
void
_delay_ms(double __ms)
{
	uint16_t __ticks;
	double __tmp = ((F_CPU) / 4e3) * __ms;
    2d5e:	6f a1       	ldd	r22, Y+39	; 0x27
    2d60:	78 a5       	ldd	r23, Y+40	; 0x28
    2d62:	89 a5       	ldd	r24, Y+41	; 0x29
    2d64:	9a a5       	ldd	r25, Y+42	; 0x2a
    2d66:	20 e0       	ldi	r18, 0x00	; 0
    2d68:	30 e0       	ldi	r19, 0x00	; 0
    2d6a:	4a ef       	ldi	r20, 0xFA	; 250
    2d6c:	54 e4       	ldi	r21, 0x44	; 68
    2d6e:	0e 94 7b 0f 	call	0x1ef6	; 0x1ef6 <__mulsf3>
    2d72:	dc 01       	movw	r26, r24
    2d74:	cb 01       	movw	r24, r22
    2d76:	8b a3       	std	Y+35, r24	; 0x23
    2d78:	9c a3       	std	Y+36, r25	; 0x24
    2d7a:	ad a3       	std	Y+37, r26	; 0x25
    2d7c:	be a3       	std	Y+38, r27	; 0x26
	if (__tmp < 1.0)
    2d7e:	6b a1       	ldd	r22, Y+35	; 0x23
    2d80:	7c a1       	ldd	r23, Y+36	; 0x24
    2d82:	8d a1       	ldd	r24, Y+37	; 0x25
    2d84:	9e a1       	ldd	r25, Y+38	; 0x26
    2d86:	20 e0       	ldi	r18, 0x00	; 0
    2d88:	30 e0       	ldi	r19, 0x00	; 0
    2d8a:	40 e8       	ldi	r20, 0x80	; 128
    2d8c:	5f e3       	ldi	r21, 0x3F	; 63
    2d8e:	0e 94 d5 10 	call	0x21aa	; 0x21aa <__ltsf2>
    2d92:	88 23       	and	r24, r24
    2d94:	2c f4       	brge	.+10     	; 0x2da0 <main+0x34a>
		__ticks = 1;
    2d96:	81 e0       	ldi	r24, 0x01	; 1
    2d98:	90 e0       	ldi	r25, 0x00	; 0
    2d9a:	9a a3       	std	Y+34, r25	; 0x22
    2d9c:	89 a3       	std	Y+33, r24	; 0x21
    2d9e:	3f c0       	rjmp	.+126    	; 0x2e1e <main+0x3c8>
	else if (__tmp > 65535)
    2da0:	6b a1       	ldd	r22, Y+35	; 0x23
    2da2:	7c a1       	ldd	r23, Y+36	; 0x24
    2da4:	8d a1       	ldd	r24, Y+37	; 0x25
    2da6:	9e a1       	ldd	r25, Y+38	; 0x26
    2da8:	20 e0       	ldi	r18, 0x00	; 0
    2daa:	3f ef       	ldi	r19, 0xFF	; 255
    2dac:	4f e7       	ldi	r20, 0x7F	; 127
    2dae:	57 e4       	ldi	r21, 0x47	; 71
    2db0:	0e 94 75 10 	call	0x20ea	; 0x20ea <__gtsf2>
    2db4:	18 16       	cp	r1, r24
    2db6:	4c f5       	brge	.+82     	; 0x2e0a <main+0x3b4>
	{
		//	__ticks = requested delay in 1/10 ms
		__ticks = (uint16_t) (__ms * 10.0);
    2db8:	6f a1       	ldd	r22, Y+39	; 0x27
    2dba:	78 a5       	ldd	r23, Y+40	; 0x28
    2dbc:	89 a5       	ldd	r24, Y+41	; 0x29
    2dbe:	9a a5       	ldd	r25, Y+42	; 0x2a
    2dc0:	20 e0       	ldi	r18, 0x00	; 0
    2dc2:	30 e0       	ldi	r19, 0x00	; 0
    2dc4:	40 e2       	ldi	r20, 0x20	; 32
    2dc6:	51 e4       	ldi	r21, 0x41	; 65
    2dc8:	0e 94 7b 0f 	call	0x1ef6	; 0x1ef6 <__mulsf3>
    2dcc:	dc 01       	movw	r26, r24
    2dce:	cb 01       	movw	r24, r22
    2dd0:	bc 01       	movw	r22, r24
    2dd2:	cd 01       	movw	r24, r26
    2dd4:	0e 94 c0 00 	call	0x180	; 0x180 <__fixunssfsi>
    2dd8:	dc 01       	movw	r26, r24
    2dda:	cb 01       	movw	r24, r22
    2ddc:	9a a3       	std	Y+34, r25	; 0x22
    2dde:	89 a3       	std	Y+33, r24	; 0x21
    2de0:	0f c0       	rjmp	.+30     	; 0x2e00 <main+0x3aa>
    2de2:	88 ec       	ldi	r24, 0xC8	; 200
    2de4:	90 e0       	ldi	r25, 0x00	; 0
    2de6:	98 a3       	std	Y+32, r25	; 0x20
    2de8:	8f 8f       	std	Y+31, r24	; 0x1f
    2dea:	8f 8d       	ldd	r24, Y+31	; 0x1f
    2dec:	98 a1       	ldd	r25, Y+32	; 0x20
    2dee:	01 97       	sbiw	r24, 0x01	; 1
    2df0:	f1 f7       	brne	.-4      	; 0x2dee <main+0x398>
    2df2:	98 a3       	std	Y+32, r25	; 0x20
    2df4:	8f 8f       	std	Y+31, r24	; 0x1f
		while(__ticks)
		{
			// wait 1/10 ms
			_delay_loop_2(((F_CPU) / 4e3) / 10);
			__ticks --;
    2df6:	89 a1       	ldd	r24, Y+33	; 0x21
    2df8:	9a a1       	ldd	r25, Y+34	; 0x22
    2dfa:	01 97       	sbiw	r24, 0x01	; 1
    2dfc:	9a a3       	std	Y+34, r25	; 0x22
    2dfe:	89 a3       	std	Y+33, r24	; 0x21
		__ticks = 1;
	else if (__tmp > 65535)
	{
		//	__ticks = requested delay in 1/10 ms
		__ticks = (uint16_t) (__ms * 10.0);
		while(__ticks)
    2e00:	89 a1       	ldd	r24, Y+33	; 0x21
    2e02:	9a a1       	ldd	r25, Y+34	; 0x22
    2e04:	00 97       	sbiw	r24, 0x00	; 0
    2e06:	69 f7       	brne	.-38     	; 0x2de2 <main+0x38c>
    2e08:	14 c0       	rjmp	.+40     	; 0x2e32 <main+0x3dc>
			__ticks --;
		}
		return;
	}
	else
		__ticks = (uint16_t)__tmp;
    2e0a:	6b a1       	ldd	r22, Y+35	; 0x23
    2e0c:	7c a1       	ldd	r23, Y+36	; 0x24
    2e0e:	8d a1       	ldd	r24, Y+37	; 0x25
    2e10:	9e a1       	ldd	r25, Y+38	; 0x26
    2e12:	0e 94 c0 00 	call	0x180	; 0x180 <__fixunssfsi>
    2e16:	dc 01       	movw	r26, r24
    2e18:	cb 01       	movw	r24, r22
    2e1a:	9a a3       	std	Y+34, r25	; 0x22
    2e1c:	89 a3       	std	Y+33, r24	; 0x21
    2e1e:	89 a1       	ldd	r24, Y+33	; 0x21
    2e20:	9a a1       	ldd	r25, Y+34	; 0x22
    2e22:	9e 8f       	std	Y+30, r25	; 0x1e
    2e24:	8d 8f       	std	Y+29, r24	; 0x1d
    2e26:	8d 8d       	ldd	r24, Y+29	; 0x1d
    2e28:	9e 8d       	ldd	r25, Y+30	; 0x1e
    2e2a:	01 97       	sbiw	r24, 0x01	; 1
    2e2c:	f1 f7       	brne	.-4      	; 0x2e2a <main+0x3d4>
    2e2e:	9e 8f       	std	Y+30, r25	; 0x1e
    2e30:	8d 8f       	std	Y+29, r24	; 0x1d
	_delay_ms(3000);
	CLCD_voidSendCommand(CLCD_CLR);
    2e32:	81 e0       	ldi	r24, 0x01	; 1
    2e34:	0e 94 6d 21 	call	0x42da	; 0x42da <CLCD_voidSendCommand>
	CLCD_voidSendString("Enter you ID:");
    2e38:	8c e6       	ldi	r24, 0x6C	; 108
    2e3a:	90 e0       	ldi	r25, 0x00	; 0
    2e3c:	0e 94 7d 22 	call	0x44fa	; 0x44fa <CLCD_voidSendString>
	CLCD_voidSetPosition(CLCD_ROW_2,CLCD_COL_1);
    2e40:	82 e0       	ldi	r24, 0x02	; 2
    2e42:	61 e0       	ldi	r22, 0x01	; 1
    2e44:	0e 94 d1 26 	call	0x4da2	; 0x4da2 <CLCD_voidSetPosition>

	while(1)
	{
		u8 LOC_input=0;
    2e48:	1b a6       	std	Y+43, r1	; 0x2b
		LOC_input=KPD_u8GetPressed();
    2e4a:	0e 94 64 27 	call	0x4ec8	; 0x4ec8 <KPD_u8GetPressed>
    2e4e:	8b a7       	std	Y+43, r24	; 0x2b
		if(LOC_input !=0 )
    2e50:	8b a5       	ldd	r24, Y+43	; 0x2b
    2e52:	88 23       	and	r24, r24
    2e54:	c9 f3       	breq	.-14     	; 0x2e48 <main+0x3f2>
		{
			if(LOC_input=='=')
    2e56:	8b a5       	ldd	r24, Y+43	; 0x2b
    2e58:	8d 33       	cpi	r24, 0x3D	; 61
    2e5a:	89 f4       	brne	.+34     	; 0x2e7e <main+0x428>
			{
					CLCD_voidSendCommand(CLCD_CLR);
    2e5c:	81 e0       	ldi	r24, 0x01	; 1
    2e5e:	0e 94 6d 21 	call	0x42da	; 0x42da <CLCD_voidSendCommand>
					CLCD_voidSendString("Enter you ID:");
    2e62:	8c e6       	ldi	r24, 0x6C	; 108
    2e64:	90 e0       	ldi	r25, 0x00	; 0
    2e66:	0e 94 7d 22 	call	0x44fa	; 0x44fa <CLCD_voidSendString>
					CLCD_voidSetPosition(CLCD_ROW_2,CLCD_COL_1);
    2e6a:	82 e0       	ldi	r24, 0x02	; 2
    2e6c:	61 e0       	ldi	r22, 0x01	; 1
    2e6e:	0e 94 d1 26 	call	0x4da2	; 0x4da2 <CLCD_voidSetPosition>
					 i=0;
    2e72:	18 aa       	std	Y+48, r1	; 0x30
					 login_flag=0;
    2e74:	1f a6       	std	Y+47, r1	; 0x2f
					 login_err=0;
    2e76:	1e a6       	std	Y+46, r1	; 0x2e
					 pass_err=0;
    2e78:	1d a6       	std	Y+45, r1	; 0x2d
					 wedone =0;
    2e7a:	1c a6       	std	Y+44, r1	; 0x2c
    2e7c:	e5 cf       	rjmp	.-54     	; 0x2e48 <main+0x3f2>
					 continue;


			}
	if(!wedone)
    2e7e:	8c a5       	ldd	r24, Y+44	; 0x2c
    2e80:	88 23       	and	r24, r24
    2e82:	11 f7       	brne	.-60     	; 0x2e48 <main+0x3f2>

		{
		if(login_flag == 0)
    2e84:	8f a5       	ldd	r24, Y+47	; 0x2f
    2e86:	88 23       	and	r24, r24
    2e88:	21 f4       	brne	.+8      	; 0x2e92 <main+0x43c>

			{
				CLCD_voidSendChar(LOC_input);
    2e8a:	8b a5       	ldd	r24, Y+43	; 0x2b
    2e8c:	0e 94 5d 20 	call	0x40ba	; 0x40ba <CLCD_voidSendChar>
    2e90:	03 c0       	rjmp	.+6      	; 0x2e98 <main+0x442>
			}
			else
			{
					CLCD_voidSendChar('*');
    2e92:	8a e2       	ldi	r24, 0x2A	; 42
    2e94:	0e 94 5d 20 	call	0x40ba	; 0x40ba <CLCD_voidSendChar>
    2e98:	80 e0       	ldi	r24, 0x00	; 0
    2e9a:	90 e0       	ldi	r25, 0x00	; 0
    2e9c:	a8 ec       	ldi	r26, 0xC8	; 200
    2e9e:	b2 e4       	ldi	r27, 0x42	; 66
    2ea0:	89 8f       	std	Y+25, r24	; 0x19
    2ea2:	9a 8f       	std	Y+26, r25	; 0x1a
    2ea4:	ab 8f       	std	Y+27, r26	; 0x1b
    2ea6:	bc 8f       	std	Y+28, r27	; 0x1c
 */
void
_delay_ms(double __ms)
{
	uint16_t __ticks;
	double __tmp = ((F_CPU) / 4e3) * __ms;
    2ea8:	69 8d       	ldd	r22, Y+25	; 0x19
    2eaa:	7a 8d       	ldd	r23, Y+26	; 0x1a
    2eac:	8b 8d       	ldd	r24, Y+27	; 0x1b
    2eae:	9c 8d       	ldd	r25, Y+28	; 0x1c
    2eb0:	20 e0       	ldi	r18, 0x00	; 0
    2eb2:	30 e0       	ldi	r19, 0x00	; 0
    2eb4:	4a ef       	ldi	r20, 0xFA	; 250
    2eb6:	54 e4       	ldi	r21, 0x44	; 68
    2eb8:	0e 94 7b 0f 	call	0x1ef6	; 0x1ef6 <__mulsf3>
    2ebc:	dc 01       	movw	r26, r24
    2ebe:	cb 01       	movw	r24, r22
    2ec0:	8d 8b       	std	Y+21, r24	; 0x15
    2ec2:	9e 8b       	std	Y+22, r25	; 0x16
    2ec4:	af 8b       	std	Y+23, r26	; 0x17
    2ec6:	b8 8f       	std	Y+24, r27	; 0x18
	if (__tmp < 1.0)
    2ec8:	6d 89       	ldd	r22, Y+21	; 0x15
    2eca:	7e 89       	ldd	r23, Y+22	; 0x16
    2ecc:	8f 89       	ldd	r24, Y+23	; 0x17
    2ece:	98 8d       	ldd	r25, Y+24	; 0x18
    2ed0:	20 e0       	ldi	r18, 0x00	; 0
    2ed2:	30 e0       	ldi	r19, 0x00	; 0
    2ed4:	40 e8       	ldi	r20, 0x80	; 128
    2ed6:	5f e3       	ldi	r21, 0x3F	; 63
    2ed8:	0e 94 d5 10 	call	0x21aa	; 0x21aa <__ltsf2>
    2edc:	88 23       	and	r24, r24
    2ede:	2c f4       	brge	.+10     	; 0x2eea <main+0x494>
		__ticks = 1;
    2ee0:	81 e0       	ldi	r24, 0x01	; 1
    2ee2:	90 e0       	ldi	r25, 0x00	; 0
    2ee4:	9c 8b       	std	Y+20, r25	; 0x14
    2ee6:	8b 8b       	std	Y+19, r24	; 0x13
    2ee8:	3f c0       	rjmp	.+126    	; 0x2f68 <main+0x512>
	else if (__tmp > 65535)
    2eea:	6d 89       	ldd	r22, Y+21	; 0x15
    2eec:	7e 89       	ldd	r23, Y+22	; 0x16
    2eee:	8f 89       	ldd	r24, Y+23	; 0x17
    2ef0:	98 8d       	ldd	r25, Y+24	; 0x18
    2ef2:	20 e0       	ldi	r18, 0x00	; 0
    2ef4:	3f ef       	ldi	r19, 0xFF	; 255
    2ef6:	4f e7       	ldi	r20, 0x7F	; 127
    2ef8:	57 e4       	ldi	r21, 0x47	; 71
    2efa:	0e 94 75 10 	call	0x20ea	; 0x20ea <__gtsf2>
    2efe:	18 16       	cp	r1, r24
    2f00:	4c f5       	brge	.+82     	; 0x2f54 <main+0x4fe>
	{
		//	__ticks = requested delay in 1/10 ms
		__ticks = (uint16_t) (__ms * 10.0);
    2f02:	69 8d       	ldd	r22, Y+25	; 0x19
    2f04:	7a 8d       	ldd	r23, Y+26	; 0x1a
    2f06:	8b 8d       	ldd	r24, Y+27	; 0x1b
    2f08:	9c 8d       	ldd	r25, Y+28	; 0x1c
    2f0a:	20 e0       	ldi	r18, 0x00	; 0
    2f0c:	30 e0       	ldi	r19, 0x00	; 0
    2f0e:	40 e2       	ldi	r20, 0x20	; 32
    2f10:	51 e4       	ldi	r21, 0x41	; 65
    2f12:	0e 94 7b 0f 	call	0x1ef6	; 0x1ef6 <__mulsf3>
    2f16:	dc 01       	movw	r26, r24
    2f18:	cb 01       	movw	r24, r22
    2f1a:	bc 01       	movw	r22, r24
    2f1c:	cd 01       	movw	r24, r26
    2f1e:	0e 94 c0 00 	call	0x180	; 0x180 <__fixunssfsi>
    2f22:	dc 01       	movw	r26, r24
    2f24:	cb 01       	movw	r24, r22
    2f26:	9c 8b       	std	Y+20, r25	; 0x14
    2f28:	8b 8b       	std	Y+19, r24	; 0x13
    2f2a:	0f c0       	rjmp	.+30     	; 0x2f4a <main+0x4f4>
    2f2c:	88 ec       	ldi	r24, 0xC8	; 200
    2f2e:	90 e0       	ldi	r25, 0x00	; 0
    2f30:	9a 8b       	std	Y+18, r25	; 0x12
    2f32:	89 8b       	std	Y+17, r24	; 0x11
    2f34:	89 89       	ldd	r24, Y+17	; 0x11
    2f36:	9a 89       	ldd	r25, Y+18	; 0x12
    2f38:	01 97       	sbiw	r24, 0x01	; 1
    2f3a:	f1 f7       	brne	.-4      	; 0x2f38 <main+0x4e2>
    2f3c:	9a 8b       	std	Y+18, r25	; 0x12
    2f3e:	89 8b       	std	Y+17, r24	; 0x11
		while(__ticks)
		{
			// wait 1/10 ms
			_delay_loop_2(((F_CPU) / 4e3) / 10);
			__ticks --;
    2f40:	8b 89       	ldd	r24, Y+19	; 0x13
    2f42:	9c 89       	ldd	r25, Y+20	; 0x14
    2f44:	01 97       	sbiw	r24, 0x01	; 1
    2f46:	9c 8b       	std	Y+20, r25	; 0x14
    2f48:	8b 8b       	std	Y+19, r24	; 0x13
		__ticks = 1;
	else if (__tmp > 65535)
	{
		//	__ticks = requested delay in 1/10 ms
		__ticks = (uint16_t) (__ms * 10.0);
		while(__ticks)
    2f4a:	8b 89       	ldd	r24, Y+19	; 0x13
    2f4c:	9c 89       	ldd	r25, Y+20	; 0x14
    2f4e:	00 97       	sbiw	r24, 0x00	; 0
    2f50:	69 f7       	brne	.-38     	; 0x2f2c <main+0x4d6>
    2f52:	14 c0       	rjmp	.+40     	; 0x2f7c <main+0x526>
			__ticks --;
		}
		return;
	}
	else
		__ticks = (uint16_t)__tmp;
    2f54:	6d 89       	ldd	r22, Y+21	; 0x15
    2f56:	7e 89       	ldd	r23, Y+22	; 0x16
    2f58:	8f 89       	ldd	r24, Y+23	; 0x17
    2f5a:	98 8d       	ldd	r25, Y+24	; 0x18
    2f5c:	0e 94 c0 00 	call	0x180	; 0x180 <__fixunssfsi>
    2f60:	dc 01       	movw	r26, r24
    2f62:	cb 01       	movw	r24, r22
    2f64:	9c 8b       	std	Y+20, r25	; 0x14
    2f66:	8b 8b       	std	Y+19, r24	; 0x13
    2f68:	8b 89       	ldd	r24, Y+19	; 0x13
    2f6a:	9c 89       	ldd	r25, Y+20	; 0x14
    2f6c:	98 8b       	std	Y+16, r25	; 0x10
    2f6e:	8f 87       	std	Y+15, r24	; 0x0f
    2f70:	8f 85       	ldd	r24, Y+15	; 0x0f
    2f72:	98 89       	ldd	r25, Y+16	; 0x10
    2f74:	01 97       	sbiw	r24, 0x01	; 1
    2f76:	f1 f7       	brne	.-4      	; 0x2f74 <main+0x51e>
    2f78:	98 8b       	std	Y+16, r25	; 0x10
    2f7a:	8f 87       	std	Y+15, r24	; 0x0f

			}
			_delay_ms(100);
			Log_input[i]=LOC_input;
    2f7c:	88 a9       	ldd	r24, Y+48	; 0x30
    2f7e:	28 2f       	mov	r18, r24
    2f80:	30 e0       	ldi	r19, 0x00	; 0
    2f82:	ce 01       	movw	r24, r28
    2f84:	8d 5b       	subi	r24, 0xBD	; 189
    2f86:	9f 4f       	sbci	r25, 0xFF	; 255
    2f88:	fc 01       	movw	r30, r24
    2f8a:	e2 0f       	add	r30, r18
    2f8c:	f3 1f       	adc	r31, r19
    2f8e:	8b a5       	ldd	r24, Y+43	; 0x2b
    2f90:	80 83       	st	Z, r24
			i++;
    2f92:	88 a9       	ldd	r24, Y+48	; 0x30
    2f94:	8f 5f       	subi	r24, 0xFF	; 255
    2f96:	88 ab       	std	Y+48, r24	; 0x30
			if(i==3 && login_flag == 0)
    2f98:	88 a9       	ldd	r24, Y+48	; 0x30
    2f9a:	83 30       	cpi	r24, 0x03	; 3
    2f9c:	09 f0       	breq	.+2      	; 0x2fa0 <main+0x54a>
    2f9e:	f0 c0       	rjmp	.+480    	; 0x3180 <main+0x72a>
    2fa0:	8f a5       	ldd	r24, Y+47	; 0x2f
    2fa2:	88 23       	and	r24, r24
    2fa4:	09 f0       	breq	.+2      	; 0x2fa8 <main+0x552>
    2fa6:	ec c0       	rjmp	.+472    	; 0x3180 <main+0x72a>
    2fa8:	80 e0       	ldi	r24, 0x00	; 0
    2faa:	90 e0       	ldi	r25, 0x00	; 0
    2fac:	aa e7       	ldi	r26, 0x7A	; 122
    2fae:	b4 e4       	ldi	r27, 0x44	; 68
    2fb0:	8b 87       	std	Y+11, r24	; 0x0b
    2fb2:	9c 87       	std	Y+12, r25	; 0x0c
    2fb4:	ad 87       	std	Y+13, r26	; 0x0d
    2fb6:	be 87       	std	Y+14, r27	; 0x0e
 */
void
_delay_ms(double __ms)
{
	uint16_t __ticks;
	double __tmp = ((F_CPU) / 4e3) * __ms;
    2fb8:	6b 85       	ldd	r22, Y+11	; 0x0b
    2fba:	7c 85       	ldd	r23, Y+12	; 0x0c
    2fbc:	8d 85       	ldd	r24, Y+13	; 0x0d
    2fbe:	9e 85       	ldd	r25, Y+14	; 0x0e
    2fc0:	20 e0       	ldi	r18, 0x00	; 0
    2fc2:	30 e0       	ldi	r19, 0x00	; 0
    2fc4:	4a ef       	ldi	r20, 0xFA	; 250
    2fc6:	54 e4       	ldi	r21, 0x44	; 68
    2fc8:	0e 94 7b 0f 	call	0x1ef6	; 0x1ef6 <__mulsf3>
    2fcc:	dc 01       	movw	r26, r24
    2fce:	cb 01       	movw	r24, r22
    2fd0:	8f 83       	std	Y+7, r24	; 0x07
    2fd2:	98 87       	std	Y+8, r25	; 0x08
    2fd4:	a9 87       	std	Y+9, r26	; 0x09
    2fd6:	ba 87       	std	Y+10, r27	; 0x0a
	if (__tmp < 1.0)
    2fd8:	6f 81       	ldd	r22, Y+7	; 0x07
    2fda:	78 85       	ldd	r23, Y+8	; 0x08
    2fdc:	89 85       	ldd	r24, Y+9	; 0x09
    2fde:	9a 85       	ldd	r25, Y+10	; 0x0a
    2fe0:	20 e0       	ldi	r18, 0x00	; 0
    2fe2:	30 e0       	ldi	r19, 0x00	; 0
    2fe4:	40 e8       	ldi	r20, 0x80	; 128
    2fe6:	5f e3       	ldi	r21, 0x3F	; 63
    2fe8:	0e 94 d5 10 	call	0x21aa	; 0x21aa <__ltsf2>
    2fec:	88 23       	and	r24, r24
    2fee:	2c f4       	brge	.+10     	; 0x2ffa <main+0x5a4>
		__ticks = 1;
    2ff0:	81 e0       	ldi	r24, 0x01	; 1
    2ff2:	90 e0       	ldi	r25, 0x00	; 0
    2ff4:	9e 83       	std	Y+6, r25	; 0x06
    2ff6:	8d 83       	std	Y+5, r24	; 0x05
    2ff8:	3f c0       	rjmp	.+126    	; 0x3078 <main+0x622>
	else if (__tmp > 65535)
    2ffa:	6f 81       	ldd	r22, Y+7	; 0x07
    2ffc:	78 85       	ldd	r23, Y+8	; 0x08
    2ffe:	89 85       	ldd	r24, Y+9	; 0x09
    3000:	9a 85       	ldd	r25, Y+10	; 0x0a
    3002:	20 e0       	ldi	r18, 0x00	; 0
    3004:	3f ef       	ldi	r19, 0xFF	; 255
    3006:	4f e7       	ldi	r20, 0x7F	; 127
    3008:	57 e4       	ldi	r21, 0x47	; 71
    300a:	0e 94 75 10 	call	0x20ea	; 0x20ea <__gtsf2>
    300e:	18 16       	cp	r1, r24
    3010:	4c f5       	brge	.+82     	; 0x3064 <main+0x60e>
	{
		//	__ticks = requested delay in 1/10 ms
		__ticks = (uint16_t) (__ms * 10.0);
    3012:	6b 85       	ldd	r22, Y+11	; 0x0b
    3014:	7c 85       	ldd	r23, Y+12	; 0x0c
    3016:	8d 85       	ldd	r24, Y+13	; 0x0d
    3018:	9e 85       	ldd	r25, Y+14	; 0x0e
    301a:	20 e0       	ldi	r18, 0x00	; 0
    301c:	30 e0       	ldi	r19, 0x00	; 0
    301e:	40 e2       	ldi	r20, 0x20	; 32
    3020:	51 e4       	ldi	r21, 0x41	; 65
    3022:	0e 94 7b 0f 	call	0x1ef6	; 0x1ef6 <__mulsf3>
    3026:	dc 01       	movw	r26, r24
    3028:	cb 01       	movw	r24, r22
    302a:	bc 01       	movw	r22, r24
    302c:	cd 01       	movw	r24, r26
    302e:	0e 94 c0 00 	call	0x180	; 0x180 <__fixunssfsi>
    3032:	dc 01       	movw	r26, r24
    3034:	cb 01       	movw	r24, r22
    3036:	9e 83       	std	Y+6, r25	; 0x06
    3038:	8d 83       	std	Y+5, r24	; 0x05
    303a:	0f c0       	rjmp	.+30     	; 0x305a <main+0x604>
    303c:	88 ec       	ldi	r24, 0xC8	; 200
    303e:	90 e0       	ldi	r25, 0x00	; 0
    3040:	9c 83       	std	Y+4, r25	; 0x04
    3042:	8b 83       	std	Y+3, r24	; 0x03
    3044:	8b 81       	ldd	r24, Y+3	; 0x03
    3046:	9c 81       	ldd	r25, Y+4	; 0x04
    3048:	01 97       	sbiw	r24, 0x01	; 1
    304a:	f1 f7       	brne	.-4      	; 0x3048 <main+0x5f2>
    304c:	9c 83       	std	Y+4, r25	; 0x04
    304e:	8b 83       	std	Y+3, r24	; 0x03
		while(__ticks)
		{
			// wait 1/10 ms
			_delay_loop_2(((F_CPU) / 4e3) / 10);
			__ticks --;
    3050:	8d 81       	ldd	r24, Y+5	; 0x05
    3052:	9e 81       	ldd	r25, Y+6	; 0x06
    3054:	01 97       	sbiw	r24, 0x01	; 1
    3056:	9e 83       	std	Y+6, r25	; 0x06
    3058:	8d 83       	std	Y+5, r24	; 0x05
		__ticks = 1;
	else if (__tmp > 65535)
	{
		//	__ticks = requested delay in 1/10 ms
		__ticks = (uint16_t) (__ms * 10.0);
		while(__ticks)
    305a:	8d 81       	ldd	r24, Y+5	; 0x05
    305c:	9e 81       	ldd	r25, Y+6	; 0x06
    305e:	00 97       	sbiw	r24, 0x00	; 0
    3060:	69 f7       	brne	.-38     	; 0x303c <main+0x5e6>
    3062:	14 c0       	rjmp	.+40     	; 0x308c <main+0x636>
			__ticks --;
		}
		return;
	}
	else
		__ticks = (uint16_t)__tmp;
    3064:	6f 81       	ldd	r22, Y+7	; 0x07
    3066:	78 85       	ldd	r23, Y+8	; 0x08
    3068:	89 85       	ldd	r24, Y+9	; 0x09
    306a:	9a 85       	ldd	r25, Y+10	; 0x0a
    306c:	0e 94 c0 00 	call	0x180	; 0x180 <__fixunssfsi>
    3070:	dc 01       	movw	r26, r24
    3072:	cb 01       	movw	r24, r22
    3074:	9e 83       	std	Y+6, r25	; 0x06
    3076:	8d 83       	std	Y+5, r24	; 0x05
    3078:	8d 81       	ldd	r24, Y+5	; 0x05
    307a:	9e 81       	ldd	r25, Y+6	; 0x06
    307c:	9a 83       	std	Y+2, r25	; 0x02
    307e:	89 83       	std	Y+1, r24	; 0x01
    3080:	89 81       	ldd	r24, Y+1	; 0x01
    3082:	9a 81       	ldd	r25, Y+2	; 0x02
    3084:	01 97       	sbiw	r24, 0x01	; 1
    3086:	f1 f7       	brne	.-4      	; 0x3084 <main+0x62e>
    3088:	9a 83       	std	Y+2, r25	; 0x02
    308a:	89 83       	std	Y+1, r24	; 0x01
			{


				_delay_ms(1000);

				if(!(mystrcmp(Log_input,user1,3)))
    308c:	ce 01       	movw	r24, r28
    308e:	8d 5b       	subi	r24, 0xBD	; 189
    3090:	9f 4f       	sbci	r25, 0xFF	; 255
    3092:	9e 01       	movw	r18, r28
    3094:	2f 5c       	subi	r18, 0xCF	; 207
    3096:	3f 4f       	sbci	r19, 0xFF	; 255
    3098:	b9 01       	movw	r22, r18
    309a:	43 e0       	ldi	r20, 0x03	; 3
    309c:	0e 94 ac 13 	call	0x2758	; 0x2758 <mystrcmp>
    30a0:	88 23       	and	r24, r24
    30a2:	99 f4       	brne	.+38     	; 0x30ca <main+0x674>
				{

					login_flag=1;
    30a4:	81 e0       	ldi	r24, 0x01	; 1
    30a6:	8f a7       	std	Y+47, r24	; 0x2f
					i=0;
    30a8:	18 aa       	std	Y+48, r1	; 0x30
					CLCD_voidSendCommand(CLCD_CLR);
    30aa:	81 e0       	ldi	r24, 0x01	; 1
    30ac:	0e 94 6d 21 	call	0x42da	; 0x42da <CLCD_voidSendCommand>
					CLCD_voidSetPosition(CLCD_ROW_1,CLCD_COL_1);
    30b0:	81 e0       	ldi	r24, 0x01	; 1
    30b2:	61 e0       	ldi	r22, 0x01	; 1
    30b4:	0e 94 d1 26 	call	0x4da2	; 0x4da2 <CLCD_voidSetPosition>
					CLCD_voidSendString("Enter you Passwd");
    30b8:	8a e7       	ldi	r24, 0x7A	; 122
    30ba:	90 e0       	ldi	r25, 0x00	; 0
    30bc:	0e 94 7d 22 	call	0x44fa	; 0x44fa <CLCD_voidSendString>
					CLCD_voidSetPosition(CLCD_ROW_2,CLCD_COL_1);
    30c0:	82 e0       	ldi	r24, 0x02	; 2
    30c2:	61 e0       	ldi	r22, 0x01	; 1
    30c4:	0e 94 d1 26 	call	0x4da2	; 0x4da2 <CLCD_voidSetPosition>
    30c8:	bf ce       	rjmp	.-642    	; 0x2e48 <main+0x3f2>
				}
				else if(!(mystrcmp(Log_input,user2,3)))
    30ca:	ce 01       	movw	r24, r28
    30cc:	8d 5b       	subi	r24, 0xBD	; 189
    30ce:	9f 4f       	sbci	r25, 0xFF	; 255
    30d0:	9e 01       	movw	r18, r28
    30d2:	2c 5c       	subi	r18, 0xCC	; 204
    30d4:	3f 4f       	sbci	r19, 0xFF	; 255
    30d6:	b9 01       	movw	r22, r18
    30d8:	43 e0       	ldi	r20, 0x03	; 3
    30da:	0e 94 ac 13 	call	0x2758	; 0x2758 <mystrcmp>
    30de:	88 23       	and	r24, r24
    30e0:	99 f4       	brne	.+38     	; 0x3108 <main+0x6b2>
				{
					login_flag=2;
    30e2:	82 e0       	ldi	r24, 0x02	; 2
    30e4:	8f a7       	std	Y+47, r24	; 0x2f
					i=0;
    30e6:	18 aa       	std	Y+48, r1	; 0x30
					CLCD_voidSendCommand(CLCD_CLR);
    30e8:	81 e0       	ldi	r24, 0x01	; 1
    30ea:	0e 94 6d 21 	call	0x42da	; 0x42da <CLCD_voidSendCommand>
					CLCD_voidSetPosition(CLCD_ROW_1,CLCD_COL_1);
    30ee:	81 e0       	ldi	r24, 0x01	; 1
    30f0:	61 e0       	ldi	r22, 0x01	; 1
    30f2:	0e 94 d1 26 	call	0x4da2	; 0x4da2 <CLCD_voidSetPosition>
					CLCD_voidSendString("Enter you Passwd");
    30f6:	8a e7       	ldi	r24, 0x7A	; 122
    30f8:	90 e0       	ldi	r25, 0x00	; 0
    30fa:	0e 94 7d 22 	call	0x44fa	; 0x44fa <CLCD_voidSendString>
					CLCD_voidSetPosition(CLCD_ROW_2,CLCD_COL_1);
    30fe:	82 e0       	ldi	r24, 0x02	; 2
    3100:	61 e0       	ldi	r22, 0x01	; 1
    3102:	0e 94 d1 26 	call	0x4da2	; 0x4da2 <CLCD_voidSetPosition>
    3106:	a0 ce       	rjmp	.-704    	; 0x2e48 <main+0x3f2>
				}
				else if(!(mystrcmp(Log_input,user3,3)))
    3108:	ce 01       	movw	r24, r28
    310a:	8d 5b       	subi	r24, 0xBD	; 189
    310c:	9f 4f       	sbci	r25, 0xFF	; 255
    310e:	9e 01       	movw	r18, r28
    3110:	29 5c       	subi	r18, 0xC9	; 201
    3112:	3f 4f       	sbci	r19, 0xFF	; 255
    3114:	b9 01       	movw	r22, r18
    3116:	43 e0       	ldi	r20, 0x03	; 3
    3118:	0e 94 ac 13 	call	0x2758	; 0x2758 <mystrcmp>
    311c:	88 23       	and	r24, r24
    311e:	99 f4       	brne	.+38     	; 0x3146 <main+0x6f0>
								{
									login_flag=3;
    3120:	83 e0       	ldi	r24, 0x03	; 3
    3122:	8f a7       	std	Y+47, r24	; 0x2f
									i=0;
    3124:	18 aa       	std	Y+48, r1	; 0x30
									CLCD_voidSendCommand(CLCD_CLR);
    3126:	81 e0       	ldi	r24, 0x01	; 1
    3128:	0e 94 6d 21 	call	0x42da	; 0x42da <CLCD_voidSendCommand>
									CLCD_voidSetPosition(CLCD_ROW_1,CLCD_COL_1);
    312c:	81 e0       	ldi	r24, 0x01	; 1
    312e:	61 e0       	ldi	r22, 0x01	; 1
    3130:	0e 94 d1 26 	call	0x4da2	; 0x4da2 <CLCD_voidSetPosition>
									CLCD_voidSendString("Enter you Passwd");
    3134:	8a e7       	ldi	r24, 0x7A	; 122
    3136:	90 e0       	ldi	r25, 0x00	; 0
    3138:	0e 94 7d 22 	call	0x44fa	; 0x44fa <CLCD_voidSendString>
									CLCD_voidSetPosition(CLCD_ROW_2,CLCD_COL_1);
    313c:	82 e0       	ldi	r24, 0x02	; 2
    313e:	61 e0       	ldi	r22, 0x01	; 1
    3140:	0e 94 d1 26 	call	0x4da2	; 0x4da2 <CLCD_voidSetPosition>
    3144:	81 ce       	rjmp	.-766    	; 0x2e48 <main+0x3f2>

								}
				else
				{
					CLCD_voidSendCommand(CLCD_CLR);
    3146:	81 e0       	ldi	r24, 0x01	; 1
    3148:	0e 94 6d 21 	call	0x42da	; 0x42da <CLCD_voidSendCommand>
					CLCD_voidSetPosition(CLCD_ROW_1,CLCD_COL_1);
    314c:	81 e0       	ldi	r24, 0x01	; 1
    314e:	61 e0       	ldi	r22, 0x01	; 1
    3150:	0e 94 d1 26 	call	0x4da2	; 0x4da2 <CLCD_voidSetPosition>
					CLCD_voidSendString("Please try again");
    3154:	8b e8       	ldi	r24, 0x8B	; 139
    3156:	90 e0       	ldi	r25, 0x00	; 0
    3158:	0e 94 7d 22 	call	0x44fa	; 0x44fa <CLCD_voidSendString>
					CLCD_voidSetPosition(CLCD_ROW_2,CLCD_COL_1);
    315c:	82 e0       	ldi	r24, 0x02	; 2
    315e:	61 e0       	ldi	r22, 0x01	; 1
    3160:	0e 94 d1 26 	call	0x4da2	; 0x4da2 <CLCD_voidSetPosition>
					i=0;
    3164:	18 aa       	std	Y+48, r1	; 0x30
					login_err++;
    3166:	8e a5       	ldd	r24, Y+46	; 0x2e
    3168:	8f 5f       	subi	r24, 0xFF	; 255
    316a:	8e a7       	std	Y+46, r24	; 0x2e
					if(login_err==3)
    316c:	8e a5       	ldd	r24, Y+46	; 0x2e
    316e:	83 30       	cpi	r24, 0x03	; 3
    3170:	09 f0       	breq	.+2      	; 0x3174 <main+0x71e>
    3172:	6a ce       	rjmp	.-812    	; 0x2e48 <main+0x3f2>
					{
						CLCD_voidSendCommand(CLCD_DISPOFF);
    3174:	88 e0       	ldi	r24, 0x08	; 8
    3176:	0e 94 6d 21 	call	0x42da	; 0x42da <CLCD_voidSendCommand>
						buzz();
    317a:	0e 94 e5 13 	call	0x27ca	; 0x27ca <buzz>
    317e:	64 ce       	rjmp	.-824    	; 0x2e48 <main+0x3f2>
					}
				}
			}
			else if(login_flag)
    3180:	8f a5       	ldd	r24, Y+47	; 0x2f
    3182:	88 23       	and	r24, r24
    3184:	09 f4       	brne	.+2      	; 0x3188 <main+0x732>
    3186:	60 ce       	rjmp	.-832    	; 0x2e48 <main+0x3f2>
			{

				if(i==3)
    3188:	88 a9       	ldd	r24, Y+48	; 0x30
    318a:	83 30       	cpi	r24, 0x03	; 3
    318c:	09 f0       	breq	.+2      	; 0x3190 <main+0x73a>
    318e:	5c ce       	rjmp	.-840    	; 0x2e48 <main+0x3f2>
				{
				switch (login_flag) {
    3190:	8f a5       	ldd	r24, Y+47	; 0x2f
    3192:	a8 2f       	mov	r26, r24
    3194:	b0 e0       	ldi	r27, 0x00	; 0
    3196:	28 96       	adiw	r28, 0x08	; 8
    3198:	bf af       	std	Y+63, r27	; 0x3f
    319a:	ae af       	std	Y+62, r26	; 0x3e
    319c:	28 97       	sbiw	r28, 0x08	; 8
    319e:	28 96       	adiw	r28, 0x08	; 8
    31a0:	ee ad       	ldd	r30, Y+62	; 0x3e
    31a2:	ff ad       	ldd	r31, Y+63	; 0x3f
    31a4:	28 97       	sbiw	r28, 0x08	; 8
    31a6:	e2 30       	cpi	r30, 0x02	; 2
    31a8:	f1 05       	cpc	r31, r1
    31aa:	09 f4       	brne	.+2      	; 0x31ae <main+0x758>
    31ac:	41 c0       	rjmp	.+130    	; 0x3230 <main+0x7da>
    31ae:	28 96       	adiw	r28, 0x08	; 8
    31b0:	2e ad       	ldd	r18, Y+62	; 0x3e
    31b2:	3f ad       	ldd	r19, Y+63	; 0x3f
    31b4:	28 97       	sbiw	r28, 0x08	; 8
    31b6:	23 30       	cpi	r18, 0x03	; 3
    31b8:	31 05       	cpc	r19, r1
    31ba:	09 f4       	brne	.+2      	; 0x31be <main+0x768>
    31bc:	6a c0       	rjmp	.+212    	; 0x3292 <main+0x83c>
    31be:	28 96       	adiw	r28, 0x08	; 8
    31c0:	8e ad       	ldd	r24, Y+62	; 0x3e
    31c2:	9f ad       	ldd	r25, Y+63	; 0x3f
    31c4:	28 97       	sbiw	r28, 0x08	; 8
    31c6:	81 30       	cpi	r24, 0x01	; 1
    31c8:	91 05       	cpc	r25, r1
    31ca:	09 f0       	breq	.+2      	; 0x31ce <main+0x778>
    31cc:	92 c0       	rjmp	.+292    	; 0x32f2 <main+0x89c>
					case 1:
							if(!mystrcmp(Log_input,pass1,3))
    31ce:	ce 01       	movw	r24, r28
    31d0:	8d 5b       	subi	r24, 0xBD	; 189
    31d2:	9f 4f       	sbci	r25, 0xFF	; 255
    31d4:	9e 01       	movw	r18, r28
    31d6:	26 5c       	subi	r18, 0xC6	; 198
    31d8:	3f 4f       	sbci	r19, 0xFF	; 255
    31da:	b9 01       	movw	r22, r18
    31dc:	43 e0       	ldi	r20, 0x03	; 3
    31de:	0e 94 ac 13 	call	0x2758	; 0x2758 <mystrcmp>
    31e2:	88 23       	and	r24, r24
    31e4:	89 f4       	brne	.+34     	; 0x3208 <main+0x7b2>
							{
								CLCD_voidSendCommand(CLCD_CLR);
    31e6:	81 e0       	ldi	r24, 0x01	; 1
    31e8:	0e 94 6d 21 	call	0x42da	; 0x42da <CLCD_voidSendCommand>
								CLCD_voidSetPosition(CLCD_ROW_1,CLCD_COL_1);
    31ec:	81 e0       	ldi	r24, 0x01	; 1
    31ee:	61 e0       	ldi	r22, 0x01	; 1
    31f0:	0e 94 d1 26 	call	0x4da2	; 0x4da2 <CLCD_voidSetPosition>
								CLCD_voidSendString("Welcome User1");
    31f4:	8c e9       	ldi	r24, 0x9C	; 156
    31f6:	90 e0       	ldi	r25, 0x00	; 0
    31f8:	0e 94 7d 22 	call	0x44fa	; 0x44fa <CLCD_voidSendString>
								enterbuzz();
    31fc:	0e 94 f6 13 	call	0x27ec	; 0x27ec <enterbuzz>
								wedone++;
    3200:	8c a5       	ldd	r24, Y+44	; 0x2c
    3202:	8f 5f       	subi	r24, 0xFF	; 255
    3204:	8c a7       	std	Y+44, r24	; 0x2c
    3206:	75 c0       	rjmp	.+234    	; 0x32f2 <main+0x89c>
							}
							else
							{
								CLCD_voidSendCommand(CLCD_CLR);
    3208:	81 e0       	ldi	r24, 0x01	; 1
    320a:	0e 94 6d 21 	call	0x42da	; 0x42da <CLCD_voidSendCommand>
								CLCD_voidSetPosition(CLCD_ROW_1,CLCD_COL_1);
    320e:	81 e0       	ldi	r24, 0x01	; 1
    3210:	61 e0       	ldi	r22, 0x01	; 1
    3212:	0e 94 d1 26 	call	0x4da2	; 0x4da2 <CLCD_voidSetPosition>
								CLCD_voidSendString("Please try again");
    3216:	8b e8       	ldi	r24, 0x8B	; 139
    3218:	90 e0       	ldi	r25, 0x00	; 0
    321a:	0e 94 7d 22 	call	0x44fa	; 0x44fa <CLCD_voidSendString>
								CLCD_voidSetPosition(CLCD_ROW_2,CLCD_COL_1);
    321e:	82 e0       	ldi	r24, 0x02	; 2
    3220:	61 e0       	ldi	r22, 0x01	; 1
    3222:	0e 94 d1 26 	call	0x4da2	; 0x4da2 <CLCD_voidSetPosition>
								i=0;
    3226:	18 aa       	std	Y+48, r1	; 0x30
								pass_err++;
    3228:	8d a5       	ldd	r24, Y+45	; 0x2d
    322a:	8f 5f       	subi	r24, 0xFF	; 255
    322c:	8d a7       	std	Y+45, r24	; 0x2d
    322e:	61 c0       	rjmp	.+194    	; 0x32f2 <main+0x89c>
							}
						break;
					case 2:
						if(!mystrcmp(Log_input,pass2,3))
    3230:	ce 01       	movw	r24, r28
    3232:	8d 5b       	subi	r24, 0xBD	; 189
    3234:	9f 4f       	sbci	r25, 0xFF	; 255
    3236:	9e 01       	movw	r18, r28
    3238:	23 5c       	subi	r18, 0xC3	; 195
    323a:	3f 4f       	sbci	r19, 0xFF	; 255
    323c:	b9 01       	movw	r22, r18
    323e:	43 e0       	ldi	r20, 0x03	; 3
    3240:	0e 94 ac 13 	call	0x2758	; 0x2758 <mystrcmp>
    3244:	88 23       	and	r24, r24
    3246:	89 f4       	brne	.+34     	; 0x326a <main+0x814>
							{
							    CLCD_voidSendCommand(CLCD_CLR);
    3248:	81 e0       	ldi	r24, 0x01	; 1
    324a:	0e 94 6d 21 	call	0x42da	; 0x42da <CLCD_voidSendCommand>
								CLCD_voidSetPosition(CLCD_ROW_1,CLCD_COL_1);
    324e:	81 e0       	ldi	r24, 0x01	; 1
    3250:	61 e0       	ldi	r22, 0x01	; 1
    3252:	0e 94 d1 26 	call	0x4da2	; 0x4da2 <CLCD_voidSetPosition>
								CLCD_voidSendString("Welcome User2");
    3256:	8a ea       	ldi	r24, 0xAA	; 170
    3258:	90 e0       	ldi	r25, 0x00	; 0
    325a:	0e 94 7d 22 	call	0x44fa	; 0x44fa <CLCD_voidSendString>
								enterbuzz();
    325e:	0e 94 f6 13 	call	0x27ec	; 0x27ec <enterbuzz>
								wedone++;
    3262:	8c a5       	ldd	r24, Y+44	; 0x2c
    3264:	8f 5f       	subi	r24, 0xFF	; 255
    3266:	8c a7       	std	Y+44, r24	; 0x2c
    3268:	44 c0       	rjmp	.+136    	; 0x32f2 <main+0x89c>

							}
						else
							{
							CLCD_voidSendCommand(CLCD_CLR);
    326a:	81 e0       	ldi	r24, 0x01	; 1
    326c:	0e 94 6d 21 	call	0x42da	; 0x42da <CLCD_voidSendCommand>
							CLCD_voidSetPosition(CLCD_ROW_1,CLCD_COL_1);
    3270:	81 e0       	ldi	r24, 0x01	; 1
    3272:	61 e0       	ldi	r22, 0x01	; 1
    3274:	0e 94 d1 26 	call	0x4da2	; 0x4da2 <CLCD_voidSetPosition>
							CLCD_voidSendString("Please try again");
    3278:	8b e8       	ldi	r24, 0x8B	; 139
    327a:	90 e0       	ldi	r25, 0x00	; 0
    327c:	0e 94 7d 22 	call	0x44fa	; 0x44fa <CLCD_voidSendString>
							CLCD_voidSetPosition(CLCD_ROW_2,CLCD_COL_1);
    3280:	82 e0       	ldi	r24, 0x02	; 2
    3282:	61 e0       	ldi	r22, 0x01	; 1
    3284:	0e 94 d1 26 	call	0x4da2	; 0x4da2 <CLCD_voidSetPosition>
							i=0;
    3288:	18 aa       	std	Y+48, r1	; 0x30
							pass_err++;
    328a:	8d a5       	ldd	r24, Y+45	; 0x2d
    328c:	8f 5f       	subi	r24, 0xFF	; 255
    328e:	8d a7       	std	Y+45, r24	; 0x2d
    3290:	30 c0       	rjmp	.+96     	; 0x32f2 <main+0x89c>
							}
						break;
					case 3:
						if(!mystrcmp(Log_input,pass3,3))
    3292:	ce 01       	movw	r24, r28
    3294:	8d 5b       	subi	r24, 0xBD	; 189
    3296:	9f 4f       	sbci	r25, 0xFF	; 255
    3298:	9e 01       	movw	r18, r28
    329a:	20 5c       	subi	r18, 0xC0	; 192
    329c:	3f 4f       	sbci	r19, 0xFF	; 255
    329e:	b9 01       	movw	r22, r18
    32a0:	43 e0       	ldi	r20, 0x03	; 3
    32a2:	0e 94 ac 13 	call	0x2758	; 0x2758 <mystrcmp>
    32a6:	88 23       	and	r24, r24
    32a8:	89 f4       	brne	.+34     	; 0x32cc <main+0x876>
						{
							CLCD_voidSendCommand(CLCD_CLR);
    32aa:	81 e0       	ldi	r24, 0x01	; 1
    32ac:	0e 94 6d 21 	call	0x42da	; 0x42da <CLCD_voidSendCommand>
							CLCD_voidSetPosition(CLCD_ROW_1,CLCD_COL_1);
    32b0:	81 e0       	ldi	r24, 0x01	; 1
    32b2:	61 e0       	ldi	r22, 0x01	; 1
    32b4:	0e 94 d1 26 	call	0x4da2	; 0x4da2 <CLCD_voidSetPosition>
							CLCD_voidSendString("Welcome User3");
    32b8:	88 eb       	ldi	r24, 0xB8	; 184
    32ba:	90 e0       	ldi	r25, 0x00	; 0
    32bc:	0e 94 7d 22 	call	0x44fa	; 0x44fa <CLCD_voidSendString>
							enterbuzz();
    32c0:	0e 94 f6 13 	call	0x27ec	; 0x27ec <enterbuzz>
							wedone++;
    32c4:	8c a5       	ldd	r24, Y+44	; 0x2c
    32c6:	8f 5f       	subi	r24, 0xFF	; 255
    32c8:	8c a7       	std	Y+44, r24	; 0x2c
    32ca:	13 c0       	rjmp	.+38     	; 0x32f2 <main+0x89c>

						}
						else
							{
							CLCD_voidSendCommand(CLCD_CLR);
    32cc:	81 e0       	ldi	r24, 0x01	; 1
    32ce:	0e 94 6d 21 	call	0x42da	; 0x42da <CLCD_voidSendCommand>
							CLCD_voidSetPosition(CLCD_ROW_1,CLCD_COL_1);
    32d2:	81 e0       	ldi	r24, 0x01	; 1
    32d4:	61 e0       	ldi	r22, 0x01	; 1
    32d6:	0e 94 d1 26 	call	0x4da2	; 0x4da2 <CLCD_voidSetPosition>
							CLCD_voidSendString("Please try again");
    32da:	8b e8       	ldi	r24, 0x8B	; 139
    32dc:	90 e0       	ldi	r25, 0x00	; 0
    32de:	0e 94 7d 22 	call	0x44fa	; 0x44fa <CLCD_voidSendString>
							CLCD_voidSetPosition(CLCD_ROW_2,CLCD_COL_1);
    32e2:	82 e0       	ldi	r24, 0x02	; 2
    32e4:	61 e0       	ldi	r22, 0x01	; 1
    32e6:	0e 94 d1 26 	call	0x4da2	; 0x4da2 <CLCD_voidSetPosition>
							i=0;
    32ea:	18 aa       	std	Y+48, r1	; 0x30
							pass_err++;
    32ec:	8d a5       	ldd	r24, Y+45	; 0x2d
    32ee:	8f 5f       	subi	r24, 0xFF	; 255
    32f0:	8d a7       	std	Y+45, r24	; 0x2d

						break;
					default:
						break;
				}
				if(pass_err==3)
    32f2:	8d a5       	ldd	r24, Y+45	; 0x2d
    32f4:	83 30       	cpi	r24, 0x03	; 3
    32f6:	09 f0       	breq	.+2      	; 0x32fa <main+0x8a4>
    32f8:	a7 cd       	rjmp	.-1202   	; 0x2e48 <main+0x3f2>
								{
									CLCD_voidSendCommand(CLCD_DISPOFF);
    32fa:	88 e0       	ldi	r24, 0x08	; 8
    32fc:	0e 94 6d 21 	call	0x42da	; 0x42da <CLCD_voidSendCommand>
									buzz();
    3300:	0e 94 e5 13 	call	0x27ca	; 0x27ca <buzz>
    3304:	a1 cd       	rjmp	.-1214   	; 0x2e48 <main+0x3f2>

00003306 <DIO_enumSetPortDirection>:
#include "DIO_private.h"
#include "DIO_interface.h"


 DIO_ErroStatus DIO_enumSetPortDirection(u8 Copy_u8Port, u8 Copy_u8Direction)
 {
    3306:	df 93       	push	r29
    3308:	cf 93       	push	r28
    330a:	00 d0       	rcall	.+0      	; 0x330c <DIO_enumSetPortDirection+0x6>
    330c:	00 d0       	rcall	.+0      	; 0x330e <DIO_enumSetPortDirection+0x8>
    330e:	0f 92       	push	r0
    3310:	cd b7       	in	r28, 0x3d	; 61
    3312:	de b7       	in	r29, 0x3e	; 62
    3314:	8a 83       	std	Y+2, r24	; 0x02
    3316:	6b 83       	std	Y+3, r22	; 0x03
	 DIO_ErroStatus LOC_enumState=DIO_OK;
    3318:	81 e0       	ldi	r24, 0x01	; 1
    331a:	89 83       	std	Y+1, r24	; 0x01
    switch(Copy_u8Port)
    331c:	8a 81       	ldd	r24, Y+2	; 0x02
    331e:	28 2f       	mov	r18, r24
    3320:	30 e0       	ldi	r19, 0x00	; 0
    3322:	3d 83       	std	Y+5, r19	; 0x05
    3324:	2c 83       	std	Y+4, r18	; 0x04
    3326:	8c 81       	ldd	r24, Y+4	; 0x04
    3328:	9d 81       	ldd	r25, Y+5	; 0x05
    332a:	82 30       	cpi	r24, 0x02	; 2
    332c:	91 05       	cpc	r25, r1
    332e:	39 f1       	breq	.+78     	; 0x337e <DIO_enumSetPortDirection+0x78>
    3330:	2c 81       	ldd	r18, Y+4	; 0x04
    3332:	3d 81       	ldd	r19, Y+5	; 0x05
    3334:	23 30       	cpi	r18, 0x03	; 3
    3336:	31 05       	cpc	r19, r1
    3338:	34 f4       	brge	.+12     	; 0x3346 <DIO_enumSetPortDirection+0x40>
    333a:	8c 81       	ldd	r24, Y+4	; 0x04
    333c:	9d 81       	ldd	r25, Y+5	; 0x05
    333e:	81 30       	cpi	r24, 0x01	; 1
    3340:	91 05       	cpc	r25, r1
    3342:	61 f0       	breq	.+24     	; 0x335c <DIO_enumSetPortDirection+0x56>
    3344:	4f c0       	rjmp	.+158    	; 0x33e4 <DIO_enumSetPortDirection+0xde>
    3346:	2c 81       	ldd	r18, Y+4	; 0x04
    3348:	3d 81       	ldd	r19, Y+5	; 0x05
    334a:	23 30       	cpi	r18, 0x03	; 3
    334c:	31 05       	cpc	r19, r1
    334e:	41 f1       	breq	.+80     	; 0x33a0 <DIO_enumSetPortDirection+0x9a>
    3350:	8c 81       	ldd	r24, Y+4	; 0x04
    3352:	9d 81       	ldd	r25, Y+5	; 0x05
    3354:	84 30       	cpi	r24, 0x04	; 4
    3356:	91 05       	cpc	r25, r1
    3358:	a1 f1       	breq	.+104    	; 0x33c2 <DIO_enumSetPortDirection+0xbc>
    335a:	44 c0       	rjmp	.+136    	; 0x33e4 <DIO_enumSetPortDirection+0xde>
    {

        case DIO_PORTA : 
                        if(Copy_u8Direction == DIO_OUTPUT)
    335c:	8b 81       	ldd	r24, Y+3	; 0x03
    335e:	81 30       	cpi	r24, 0x01	; 1
    3360:	29 f4       	brne	.+10     	; 0x336c <DIO_enumSetPortDirection+0x66>
                           {
                                DDRA_REG =0xff; 
    3362:	ea e3       	ldi	r30, 0x3A	; 58
    3364:	f0 e0       	ldi	r31, 0x00	; 0
    3366:	8f ef       	ldi	r24, 0xFF	; 255
    3368:	80 83       	st	Z, r24
    336a:	3d c0       	rjmp	.+122    	; 0x33e6 <DIO_enumSetPortDirection+0xe0>
                           } 
                        else if(Copy_u8Direction == DIO_INPUT)
    336c:	8b 81       	ldd	r24, Y+3	; 0x03
    336e:	88 23       	and	r24, r24
    3370:	21 f4       	brne	.+8      	; 0x337a <DIO_enumSetPortDirection+0x74>
                          {  
                                DDRA_REG=0x00;
    3372:	ea e3       	ldi	r30, 0x3A	; 58
    3374:	f0 e0       	ldi	r31, 0x00	; 0
    3376:	10 82       	st	Z, r1
    3378:	36 c0       	rjmp	.+108    	; 0x33e6 <DIO_enumSetPortDirection+0xe0>
                          }
                          else
                          {
                            /**/
                        	  LOC_enumState=DIO_NOK;
    337a:	19 82       	std	Y+1, r1	; 0x01
    337c:	34 c0       	rjmp	.+104    	; 0x33e6 <DIO_enumSetPortDirection+0xe0>
                          }
                    break;
        case DIO_PORTB :
                        if(Copy_u8Direction == DIO_OUTPUT)
    337e:	8b 81       	ldd	r24, Y+3	; 0x03
    3380:	81 30       	cpi	r24, 0x01	; 1
    3382:	29 f4       	brne	.+10     	; 0x338e <DIO_enumSetPortDirection+0x88>
                            {
                                DDRB_REG =0xff; 
    3384:	e7 e3       	ldi	r30, 0x37	; 55
    3386:	f0 e0       	ldi	r31, 0x00	; 0
    3388:	8f ef       	ldi	r24, 0xFF	; 255
    338a:	80 83       	st	Z, r24
    338c:	2c c0       	rjmp	.+88     	; 0x33e6 <DIO_enumSetPortDirection+0xe0>
                            }
                        else if(Copy_u8Direction == DIO_INPUT)
    338e:	8b 81       	ldd	r24, Y+3	; 0x03
    3390:	88 23       	and	r24, r24
    3392:	21 f4       	brne	.+8      	; 0x339c <DIO_enumSetPortDirection+0x96>
                            {
                                DDRB_REG=0x00;
    3394:	e7 e3       	ldi	r30, 0x37	; 55
    3396:	f0 e0       	ldi	r31, 0x00	; 0
    3398:	10 82       	st	Z, r1
    339a:	25 c0       	rjmp	.+74     	; 0x33e6 <DIO_enumSetPortDirection+0xe0>
                            }
                            else
                            {
                                /**/
                          	  LOC_enumState=DIO_NOK;
    339c:	19 82       	std	Y+1, r1	; 0x01
    339e:	23 c0       	rjmp	.+70     	; 0x33e6 <DIO_enumSetPortDirection+0xe0>
                            }
                    break;
        case DIO_PORTC : 
                        if(Copy_u8Direction == DIO_OUTPUT)
    33a0:	8b 81       	ldd	r24, Y+3	; 0x03
    33a2:	81 30       	cpi	r24, 0x01	; 1
    33a4:	29 f4       	brne	.+10     	; 0x33b0 <DIO_enumSetPortDirection+0xaa>
                            {
                                DDRC_REG =0xff; 
    33a6:	e4 e3       	ldi	r30, 0x34	; 52
    33a8:	f0 e0       	ldi	r31, 0x00	; 0
    33aa:	8f ef       	ldi	r24, 0xFF	; 255
    33ac:	80 83       	st	Z, r24
    33ae:	1b c0       	rjmp	.+54     	; 0x33e6 <DIO_enumSetPortDirection+0xe0>
                            }
                        else if (Copy_u8Direction == DIO_INPUT)
    33b0:	8b 81       	ldd	r24, Y+3	; 0x03
    33b2:	88 23       	and	r24, r24
    33b4:	21 f4       	brne	.+8      	; 0x33be <DIO_enumSetPortDirection+0xb8>
                            {
                                DDRC_REG=0x00;
    33b6:	e4 e3       	ldi	r30, 0x34	; 52
    33b8:	f0 e0       	ldi	r31, 0x00	; 0
    33ba:	10 82       	st	Z, r1
    33bc:	14 c0       	rjmp	.+40     	; 0x33e6 <DIO_enumSetPortDirection+0xe0>
                            }
                            else
                            {
                                /**/
                          	  LOC_enumState=DIO_NOK;
    33be:	19 82       	std	Y+1, r1	; 0x01
    33c0:	12 c0       	rjmp	.+36     	; 0x33e6 <DIO_enumSetPortDirection+0xe0>
                            }
                    break;
        case DIO_PORTD : 
                        if(Copy_u8Direction == DIO_OUTPUT)
    33c2:	8b 81       	ldd	r24, Y+3	; 0x03
    33c4:	81 30       	cpi	r24, 0x01	; 1
    33c6:	29 f4       	brne	.+10     	; 0x33d2 <DIO_enumSetPortDirection+0xcc>
                            {
                                DDRD_REG =0xff; 
    33c8:	e1 e3       	ldi	r30, 0x31	; 49
    33ca:	f0 e0       	ldi	r31, 0x00	; 0
    33cc:	8f ef       	ldi	r24, 0xFF	; 255
    33ce:	80 83       	st	Z, r24
    33d0:	0a c0       	rjmp	.+20     	; 0x33e6 <DIO_enumSetPortDirection+0xe0>
                            }
                        else if (Copy_u8Direction==DIO_INPUT)
    33d2:	8b 81       	ldd	r24, Y+3	; 0x03
    33d4:	88 23       	and	r24, r24
    33d6:	21 f4       	brne	.+8      	; 0x33e0 <DIO_enumSetPortDirection+0xda>
                            {
                                DDRD_REG=0x00;
    33d8:	e1 e3       	ldi	r30, 0x31	; 49
    33da:	f0 e0       	ldi	r31, 0x00	; 0
    33dc:	10 82       	st	Z, r1
    33de:	03 c0       	rjmp	.+6      	; 0x33e6 <DIO_enumSetPortDirection+0xe0>
                            }
                            else
                            {
                                /**/
                          	  LOC_enumState=DIO_NOK;
    33e0:	19 82       	std	Y+1, r1	; 0x01
    33e2:	01 c0       	rjmp	.+2      	; 0x33e6 <DIO_enumSetPortDirection+0xe0>
                            }
                    break;

        default:
      	  LOC_enumState=DIO_NOK;
    33e4:	19 82       	std	Y+1, r1	; 0x01

    }
return    LOC_enumState;
    33e6:	89 81       	ldd	r24, Y+1	; 0x01
 }
    33e8:	0f 90       	pop	r0
    33ea:	0f 90       	pop	r0
    33ec:	0f 90       	pop	r0
    33ee:	0f 90       	pop	r0
    33f0:	0f 90       	pop	r0
    33f2:	cf 91       	pop	r28
    33f4:	df 91       	pop	r29
    33f6:	08 95       	ret

000033f8 <DIO_enumSetPortValue>:
 DIO_ErroStatus DIO_enumSetPortValue    (u8 Copy_u8Port, u8 Copy_u8Value    )
 {
    33f8:	df 93       	push	r29
    33fa:	cf 93       	push	r28
    33fc:	00 d0       	rcall	.+0      	; 0x33fe <DIO_enumSetPortValue+0x6>
    33fe:	00 d0       	rcall	.+0      	; 0x3400 <DIO_enumSetPortValue+0x8>
    3400:	0f 92       	push	r0
    3402:	cd b7       	in	r28, 0x3d	; 61
    3404:	de b7       	in	r29, 0x3e	; 62
    3406:	8a 83       	std	Y+2, r24	; 0x02
    3408:	6b 83       	std	Y+3, r22	; 0x03
	 DIO_ErroStatus LOC_enumState=DIO_OK;
    340a:	81 e0       	ldi	r24, 0x01	; 1
    340c:	89 83       	std	Y+1, r24	; 0x01

     switch(Copy_u8Port)
    340e:	8a 81       	ldd	r24, Y+2	; 0x02
    3410:	28 2f       	mov	r18, r24
    3412:	30 e0       	ldi	r19, 0x00	; 0
    3414:	3d 83       	std	Y+5, r19	; 0x05
    3416:	2c 83       	std	Y+4, r18	; 0x04
    3418:	8c 81       	ldd	r24, Y+4	; 0x04
    341a:	9d 81       	ldd	r25, Y+5	; 0x05
    341c:	82 30       	cpi	r24, 0x02	; 2
    341e:	91 05       	cpc	r25, r1
    3420:	d9 f0       	breq	.+54     	; 0x3458 <DIO_enumSetPortValue+0x60>
    3422:	2c 81       	ldd	r18, Y+4	; 0x04
    3424:	3d 81       	ldd	r19, Y+5	; 0x05
    3426:	23 30       	cpi	r18, 0x03	; 3
    3428:	31 05       	cpc	r19, r1
    342a:	34 f4       	brge	.+12     	; 0x3438 <DIO_enumSetPortValue+0x40>
    342c:	8c 81       	ldd	r24, Y+4	; 0x04
    342e:	9d 81       	ldd	r25, Y+5	; 0x05
    3430:	81 30       	cpi	r24, 0x01	; 1
    3432:	91 05       	cpc	r25, r1
    3434:	61 f0       	breq	.+24     	; 0x344e <DIO_enumSetPortValue+0x56>
    3436:	1f c0       	rjmp	.+62     	; 0x3476 <DIO_enumSetPortValue+0x7e>
    3438:	2c 81       	ldd	r18, Y+4	; 0x04
    343a:	3d 81       	ldd	r19, Y+5	; 0x05
    343c:	23 30       	cpi	r18, 0x03	; 3
    343e:	31 05       	cpc	r19, r1
    3440:	81 f0       	breq	.+32     	; 0x3462 <DIO_enumSetPortValue+0x6a>
    3442:	8c 81       	ldd	r24, Y+4	; 0x04
    3444:	9d 81       	ldd	r25, Y+5	; 0x05
    3446:	84 30       	cpi	r24, 0x04	; 4
    3448:	91 05       	cpc	r25, r1
    344a:	81 f0       	breq	.+32     	; 0x346c <DIO_enumSetPortValue+0x74>
    344c:	14 c0       	rjmp	.+40     	; 0x3476 <DIO_enumSetPortValue+0x7e>
    {
        case DIO_PORTA : 
                        if( Copy_u8Value >=0 && Copy_u8Value <= 0xff)
                           {
                                PORTA_REG =Copy_u8Value;
    344e:	eb e3       	ldi	r30, 0x3B	; 59
    3450:	f0 e0       	ldi	r31, 0x00	; 0
    3452:	8b 81       	ldd	r24, Y+3	; 0x03
    3454:	80 83       	st	Z, r24
    3456:	10 c0       	rjmp	.+32     	; 0x3478 <DIO_enumSetPortValue+0x80>
                          }
                    break;
        case DIO_PORTB :
        	  if( Copy_u8Value >=0 && Copy_u8Value <= 0xff)
        	                           {
        	                                PORTB_REG =Copy_u8Value;
    3458:	e8 e3       	ldi	r30, 0x38	; 56
    345a:	f0 e0       	ldi	r31, 0x00	; 0
    345c:	8b 81       	ldd	r24, Y+3	; 0x03
    345e:	80 83       	st	Z, r24
    3460:	0b c0       	rjmp	.+22     	; 0x3478 <DIO_enumSetPortValue+0x80>
        	                          }
        	                    break;
        case DIO_PORTC : 
        	  if( Copy_u8Value >=0 && Copy_u8Value <= 0xff)
        	                           {
        	                                PORTC_REG =Copy_u8Value;
    3462:	e5 e3       	ldi	r30, 0x35	; 53
    3464:	f0 e0       	ldi	r31, 0x00	; 0
    3466:	8b 81       	ldd	r24, Y+3	; 0x03
    3468:	80 83       	st	Z, r24
    346a:	06 c0       	rjmp	.+12     	; 0x3478 <DIO_enumSetPortValue+0x80>
        	                          }
        	                    break;
        case DIO_PORTD : 
        	  if( Copy_u8Value >=0 && Copy_u8Value <= 0xff)
        	                           {
        	                                PORTD_REG =Copy_u8Value;
    346c:	e2 e3       	ldi	r30, 0x32	; 50
    346e:	f0 e0       	ldi	r31, 0x00	; 0
    3470:	8b 81       	ldd	r24, Y+3	; 0x03
    3472:	80 83       	st	Z, r24
    3474:	01 c0       	rjmp	.+2      	; 0x3478 <DIO_enumSetPortValue+0x80>
        	                            /**/
        	                         	  LOC_enumState=DIO_NOK;
        	                          }
        	                    break;
        default:
       	  LOC_enumState=DIO_NOK;
    3476:	19 82       	std	Y+1, r1	; 0x01

     }
 return    LOC_enumState;
    3478:	89 81       	ldd	r24, Y+1	; 0x01
 }
    347a:	0f 90       	pop	r0
    347c:	0f 90       	pop	r0
    347e:	0f 90       	pop	r0
    3480:	0f 90       	pop	r0
    3482:	0f 90       	pop	r0
    3484:	cf 91       	pop	r28
    3486:	df 91       	pop	r29
    3488:	08 95       	ret

0000348a <DIO_enumSetPINDirection>:

 DIO_ErroStatus DIO_enumSetPINDirection(u8 Copy_u8Port,u8 Copy_u8PINNumber, u8 Copy_u8Direction)
 {
    348a:	df 93       	push	r29
    348c:	cf 93       	push	r28
    348e:	00 d0       	rcall	.+0      	; 0x3490 <DIO_enumSetPINDirection+0x6>
    3490:	00 d0       	rcall	.+0      	; 0x3492 <DIO_enumSetPINDirection+0x8>
    3492:	00 d0       	rcall	.+0      	; 0x3494 <DIO_enumSetPINDirection+0xa>
    3494:	cd b7       	in	r28, 0x3d	; 61
    3496:	de b7       	in	r29, 0x3e	; 62
    3498:	8a 83       	std	Y+2, r24	; 0x02
    349a:	6b 83       	std	Y+3, r22	; 0x03
    349c:	4c 83       	std	Y+4, r20	; 0x04
	DIO_ErroStatus LOC_enumState = DIO_OK;
    349e:	81 e0       	ldi	r24, 0x01	; 1
    34a0:	89 83       	std	Y+1, r24	; 0x01
	if((Copy_u8PINNumber>=DIO_PIN0)&& (Copy_u8PINNumber<=DIO_PIN7))
    34a2:	8b 81       	ldd	r24, Y+3	; 0x03
    34a4:	88 30       	cpi	r24, 0x08	; 8
    34a6:	08 f0       	brcs	.+2      	; 0x34aa <DIO_enumSetPINDirection+0x20>
    34a8:	e9 c0       	rjmp	.+466    	; 0x367c <DIO_enumSetPINDirection+0x1f2>
	{
		 switch(Copy_u8Port)
    34aa:	8a 81       	ldd	r24, Y+2	; 0x02
    34ac:	28 2f       	mov	r18, r24
    34ae:	30 e0       	ldi	r19, 0x00	; 0
    34b0:	3e 83       	std	Y+6, r19	; 0x06
    34b2:	2d 83       	std	Y+5, r18	; 0x05
    34b4:	8d 81       	ldd	r24, Y+5	; 0x05
    34b6:	9e 81       	ldd	r25, Y+6	; 0x06
    34b8:	82 30       	cpi	r24, 0x02	; 2
    34ba:	91 05       	cpc	r25, r1
    34bc:	09 f4       	brne	.+2      	; 0x34c0 <DIO_enumSetPINDirection+0x36>
    34be:	49 c0       	rjmp	.+146    	; 0x3552 <DIO_enumSetPINDirection+0xc8>
    34c0:	2d 81       	ldd	r18, Y+5	; 0x05
    34c2:	3e 81       	ldd	r19, Y+6	; 0x06
    34c4:	23 30       	cpi	r18, 0x03	; 3
    34c6:	31 05       	cpc	r19, r1
    34c8:	34 f4       	brge	.+12     	; 0x34d6 <DIO_enumSetPINDirection+0x4c>
    34ca:	8d 81       	ldd	r24, Y+5	; 0x05
    34cc:	9e 81       	ldd	r25, Y+6	; 0x06
    34ce:	81 30       	cpi	r24, 0x01	; 1
    34d0:	91 05       	cpc	r25, r1
    34d2:	71 f0       	breq	.+28     	; 0x34f0 <DIO_enumSetPINDirection+0x66>
    34d4:	d1 c0       	rjmp	.+418    	; 0x3678 <DIO_enumSetPINDirection+0x1ee>
    34d6:	2d 81       	ldd	r18, Y+5	; 0x05
    34d8:	3e 81       	ldd	r19, Y+6	; 0x06
    34da:	23 30       	cpi	r18, 0x03	; 3
    34dc:	31 05       	cpc	r19, r1
    34de:	09 f4       	brne	.+2      	; 0x34e2 <DIO_enumSetPINDirection+0x58>
    34e0:	69 c0       	rjmp	.+210    	; 0x35b4 <DIO_enumSetPINDirection+0x12a>
    34e2:	8d 81       	ldd	r24, Y+5	; 0x05
    34e4:	9e 81       	ldd	r25, Y+6	; 0x06
    34e6:	84 30       	cpi	r24, 0x04	; 4
    34e8:	91 05       	cpc	r25, r1
    34ea:	09 f4       	brne	.+2      	; 0x34ee <DIO_enumSetPINDirection+0x64>
    34ec:	94 c0       	rjmp	.+296    	; 0x3616 <DIO_enumSetPINDirection+0x18c>
    34ee:	c4 c0       	rjmp	.+392    	; 0x3678 <DIO_enumSetPINDirection+0x1ee>
		    {

		        case DIO_PORTA :
		                        if(Copy_u8Direction == DIO_OUTPUT)
    34f0:	8c 81       	ldd	r24, Y+4	; 0x04
    34f2:	81 30       	cpi	r24, 0x01	; 1
    34f4:	a1 f4       	brne	.+40     	; 0x351e <DIO_enumSetPINDirection+0x94>
		                           {
		                                SET_BIT(DDRA_REG,Copy_u8PINNumber);
    34f6:	aa e3       	ldi	r26, 0x3A	; 58
    34f8:	b0 e0       	ldi	r27, 0x00	; 0
    34fa:	ea e3       	ldi	r30, 0x3A	; 58
    34fc:	f0 e0       	ldi	r31, 0x00	; 0
    34fe:	80 81       	ld	r24, Z
    3500:	48 2f       	mov	r20, r24
    3502:	8b 81       	ldd	r24, Y+3	; 0x03
    3504:	28 2f       	mov	r18, r24
    3506:	30 e0       	ldi	r19, 0x00	; 0
    3508:	81 e0       	ldi	r24, 0x01	; 1
    350a:	90 e0       	ldi	r25, 0x00	; 0
    350c:	02 2e       	mov	r0, r18
    350e:	02 c0       	rjmp	.+4      	; 0x3514 <DIO_enumSetPINDirection+0x8a>
    3510:	88 0f       	add	r24, r24
    3512:	99 1f       	adc	r25, r25
    3514:	0a 94       	dec	r0
    3516:	e2 f7       	brpl	.-8      	; 0x3510 <DIO_enumSetPINDirection+0x86>
    3518:	84 2b       	or	r24, r20
    351a:	8c 93       	st	X, r24
    351c:	b0 c0       	rjmp	.+352    	; 0x367e <DIO_enumSetPINDirection+0x1f4>
		                           }
		                        else if(Copy_u8Direction == DIO_INPUT)
    351e:	8c 81       	ldd	r24, Y+4	; 0x04
    3520:	88 23       	and	r24, r24
    3522:	a9 f4       	brne	.+42     	; 0x354e <DIO_enumSetPINDirection+0xc4>
		                          {
		                                CLR_BIT(DDRA_REG,Copy_u8PINNumber);
    3524:	aa e3       	ldi	r26, 0x3A	; 58
    3526:	b0 e0       	ldi	r27, 0x00	; 0
    3528:	ea e3       	ldi	r30, 0x3A	; 58
    352a:	f0 e0       	ldi	r31, 0x00	; 0
    352c:	80 81       	ld	r24, Z
    352e:	48 2f       	mov	r20, r24
    3530:	8b 81       	ldd	r24, Y+3	; 0x03
    3532:	28 2f       	mov	r18, r24
    3534:	30 e0       	ldi	r19, 0x00	; 0
    3536:	81 e0       	ldi	r24, 0x01	; 1
    3538:	90 e0       	ldi	r25, 0x00	; 0
    353a:	02 2e       	mov	r0, r18
    353c:	02 c0       	rjmp	.+4      	; 0x3542 <DIO_enumSetPINDirection+0xb8>
    353e:	88 0f       	add	r24, r24
    3540:	99 1f       	adc	r25, r25
    3542:	0a 94       	dec	r0
    3544:	e2 f7       	brpl	.-8      	; 0x353e <DIO_enumSetPINDirection+0xb4>
    3546:	80 95       	com	r24
    3548:	84 23       	and	r24, r20
    354a:	8c 93       	st	X, r24
    354c:	98 c0       	rjmp	.+304    	; 0x367e <DIO_enumSetPINDirection+0x1f4>
		                          }
		                          else
		                          {
		                            /**/
		                        	  LOC_enumState=DIO_NOK;
    354e:	19 82       	std	Y+1, r1	; 0x01
    3550:	96 c0       	rjmp	.+300    	; 0x367e <DIO_enumSetPINDirection+0x1f4>
		                          }
		                    break;
		        case DIO_PORTB :
		                        if(Copy_u8Direction == DIO_OUTPUT)
    3552:	8c 81       	ldd	r24, Y+4	; 0x04
    3554:	81 30       	cpi	r24, 0x01	; 1
    3556:	a1 f4       	brne	.+40     	; 0x3580 <DIO_enumSetPINDirection+0xf6>
		                            {
		                                SET_BIT(DDRB_REG,Copy_u8PINNumber);
    3558:	a7 e3       	ldi	r26, 0x37	; 55
    355a:	b0 e0       	ldi	r27, 0x00	; 0
    355c:	e7 e3       	ldi	r30, 0x37	; 55
    355e:	f0 e0       	ldi	r31, 0x00	; 0
    3560:	80 81       	ld	r24, Z
    3562:	48 2f       	mov	r20, r24
    3564:	8b 81       	ldd	r24, Y+3	; 0x03
    3566:	28 2f       	mov	r18, r24
    3568:	30 e0       	ldi	r19, 0x00	; 0
    356a:	81 e0       	ldi	r24, 0x01	; 1
    356c:	90 e0       	ldi	r25, 0x00	; 0
    356e:	02 2e       	mov	r0, r18
    3570:	02 c0       	rjmp	.+4      	; 0x3576 <DIO_enumSetPINDirection+0xec>
    3572:	88 0f       	add	r24, r24
    3574:	99 1f       	adc	r25, r25
    3576:	0a 94       	dec	r0
    3578:	e2 f7       	brpl	.-8      	; 0x3572 <DIO_enumSetPINDirection+0xe8>
    357a:	84 2b       	or	r24, r20
    357c:	8c 93       	st	X, r24
    357e:	7f c0       	rjmp	.+254    	; 0x367e <DIO_enumSetPINDirection+0x1f4>
		                            }
		                        else if(Copy_u8Direction == DIO_INPUT)
    3580:	8c 81       	ldd	r24, Y+4	; 0x04
    3582:	88 23       	and	r24, r24
    3584:	a9 f4       	brne	.+42     	; 0x35b0 <DIO_enumSetPINDirection+0x126>
		                            {
	                                    CLR_BIT(DDRB_REG,Copy_u8PINNumber);
    3586:	a7 e3       	ldi	r26, 0x37	; 55
    3588:	b0 e0       	ldi	r27, 0x00	; 0
    358a:	e7 e3       	ldi	r30, 0x37	; 55
    358c:	f0 e0       	ldi	r31, 0x00	; 0
    358e:	80 81       	ld	r24, Z
    3590:	48 2f       	mov	r20, r24
    3592:	8b 81       	ldd	r24, Y+3	; 0x03
    3594:	28 2f       	mov	r18, r24
    3596:	30 e0       	ldi	r19, 0x00	; 0
    3598:	81 e0       	ldi	r24, 0x01	; 1
    359a:	90 e0       	ldi	r25, 0x00	; 0
    359c:	02 2e       	mov	r0, r18
    359e:	02 c0       	rjmp	.+4      	; 0x35a4 <DIO_enumSetPINDirection+0x11a>
    35a0:	88 0f       	add	r24, r24
    35a2:	99 1f       	adc	r25, r25
    35a4:	0a 94       	dec	r0
    35a6:	e2 f7       	brpl	.-8      	; 0x35a0 <DIO_enumSetPINDirection+0x116>
    35a8:	80 95       	com	r24
    35aa:	84 23       	and	r24, r20
    35ac:	8c 93       	st	X, r24
    35ae:	67 c0       	rjmp	.+206    	; 0x367e <DIO_enumSetPINDirection+0x1f4>
		                            }
		                            else
		                            {
		                                /**/
		                          	  LOC_enumState=DIO_NOK;
    35b0:	19 82       	std	Y+1, r1	; 0x01
    35b2:	65 c0       	rjmp	.+202    	; 0x367e <DIO_enumSetPINDirection+0x1f4>
		                            }
		                    break;
		        case DIO_PORTC :
		                        if(Copy_u8Direction == DIO_OUTPUT)
    35b4:	8c 81       	ldd	r24, Y+4	; 0x04
    35b6:	81 30       	cpi	r24, 0x01	; 1
    35b8:	a1 f4       	brne	.+40     	; 0x35e2 <DIO_enumSetPINDirection+0x158>
		                            {
	                                SET_BIT(DDRC_REG,Copy_u8PINNumber);
    35ba:	a4 e3       	ldi	r26, 0x34	; 52
    35bc:	b0 e0       	ldi	r27, 0x00	; 0
    35be:	e4 e3       	ldi	r30, 0x34	; 52
    35c0:	f0 e0       	ldi	r31, 0x00	; 0
    35c2:	80 81       	ld	r24, Z
    35c4:	48 2f       	mov	r20, r24
    35c6:	8b 81       	ldd	r24, Y+3	; 0x03
    35c8:	28 2f       	mov	r18, r24
    35ca:	30 e0       	ldi	r19, 0x00	; 0
    35cc:	81 e0       	ldi	r24, 0x01	; 1
    35ce:	90 e0       	ldi	r25, 0x00	; 0
    35d0:	02 2e       	mov	r0, r18
    35d2:	02 c0       	rjmp	.+4      	; 0x35d8 <DIO_enumSetPINDirection+0x14e>
    35d4:	88 0f       	add	r24, r24
    35d6:	99 1f       	adc	r25, r25
    35d8:	0a 94       	dec	r0
    35da:	e2 f7       	brpl	.-8      	; 0x35d4 <DIO_enumSetPINDirection+0x14a>
    35dc:	84 2b       	or	r24, r20
    35de:	8c 93       	st	X, r24
    35e0:	4e c0       	rjmp	.+156    	; 0x367e <DIO_enumSetPINDirection+0x1f4>
		                            }
		                        else if (Copy_u8Direction == DIO_INPUT)
    35e2:	8c 81       	ldd	r24, Y+4	; 0x04
    35e4:	88 23       	and	r24, r24
    35e6:	a9 f4       	brne	.+42     	; 0x3612 <DIO_enumSetPINDirection+0x188>
		                            {
	                                CLR_BIT(DDRC_REG,Copy_u8PINNumber);
    35e8:	a4 e3       	ldi	r26, 0x34	; 52
    35ea:	b0 e0       	ldi	r27, 0x00	; 0
    35ec:	e4 e3       	ldi	r30, 0x34	; 52
    35ee:	f0 e0       	ldi	r31, 0x00	; 0
    35f0:	80 81       	ld	r24, Z
    35f2:	48 2f       	mov	r20, r24
    35f4:	8b 81       	ldd	r24, Y+3	; 0x03
    35f6:	28 2f       	mov	r18, r24
    35f8:	30 e0       	ldi	r19, 0x00	; 0
    35fa:	81 e0       	ldi	r24, 0x01	; 1
    35fc:	90 e0       	ldi	r25, 0x00	; 0
    35fe:	02 2e       	mov	r0, r18
    3600:	02 c0       	rjmp	.+4      	; 0x3606 <DIO_enumSetPINDirection+0x17c>
    3602:	88 0f       	add	r24, r24
    3604:	99 1f       	adc	r25, r25
    3606:	0a 94       	dec	r0
    3608:	e2 f7       	brpl	.-8      	; 0x3602 <DIO_enumSetPINDirection+0x178>
    360a:	80 95       	com	r24
    360c:	84 23       	and	r24, r20
    360e:	8c 93       	st	X, r24
    3610:	36 c0       	rjmp	.+108    	; 0x367e <DIO_enumSetPINDirection+0x1f4>
		                            }
		                            else
		                            {
		                                /**/
		                          	  LOC_enumState=DIO_NOK;
    3612:	19 82       	std	Y+1, r1	; 0x01
    3614:	34 c0       	rjmp	.+104    	; 0x367e <DIO_enumSetPINDirection+0x1f4>
		                            }
		                    break;
		        case DIO_PORTD :
		                        if(Copy_u8Direction == DIO_OUTPUT)
    3616:	8c 81       	ldd	r24, Y+4	; 0x04
    3618:	81 30       	cpi	r24, 0x01	; 1
    361a:	a1 f4       	brne	.+40     	; 0x3644 <DIO_enumSetPINDirection+0x1ba>
		                            {
	                                SET_BIT(DDRD_REG,Copy_u8PINNumber);
    361c:	a1 e3       	ldi	r26, 0x31	; 49
    361e:	b0 e0       	ldi	r27, 0x00	; 0
    3620:	e1 e3       	ldi	r30, 0x31	; 49
    3622:	f0 e0       	ldi	r31, 0x00	; 0
    3624:	80 81       	ld	r24, Z
    3626:	48 2f       	mov	r20, r24
    3628:	8b 81       	ldd	r24, Y+3	; 0x03
    362a:	28 2f       	mov	r18, r24
    362c:	30 e0       	ldi	r19, 0x00	; 0
    362e:	81 e0       	ldi	r24, 0x01	; 1
    3630:	90 e0       	ldi	r25, 0x00	; 0
    3632:	02 2e       	mov	r0, r18
    3634:	02 c0       	rjmp	.+4      	; 0x363a <DIO_enumSetPINDirection+0x1b0>
    3636:	88 0f       	add	r24, r24
    3638:	99 1f       	adc	r25, r25
    363a:	0a 94       	dec	r0
    363c:	e2 f7       	brpl	.-8      	; 0x3636 <DIO_enumSetPINDirection+0x1ac>
    363e:	84 2b       	or	r24, r20
    3640:	8c 93       	st	X, r24
    3642:	1d c0       	rjmp	.+58     	; 0x367e <DIO_enumSetPINDirection+0x1f4>
		                            }
		                        else if (Copy_u8Direction==DIO_INPUT)
    3644:	8c 81       	ldd	r24, Y+4	; 0x04
    3646:	88 23       	and	r24, r24
    3648:	a9 f4       	brne	.+42     	; 0x3674 <DIO_enumSetPINDirection+0x1ea>
		                            {
	                                CLR_BIT(DDRD_REG,Copy_u8PINNumber);
    364a:	a1 e3       	ldi	r26, 0x31	; 49
    364c:	b0 e0       	ldi	r27, 0x00	; 0
    364e:	e1 e3       	ldi	r30, 0x31	; 49
    3650:	f0 e0       	ldi	r31, 0x00	; 0
    3652:	80 81       	ld	r24, Z
    3654:	48 2f       	mov	r20, r24
    3656:	8b 81       	ldd	r24, Y+3	; 0x03
    3658:	28 2f       	mov	r18, r24
    365a:	30 e0       	ldi	r19, 0x00	; 0
    365c:	81 e0       	ldi	r24, 0x01	; 1
    365e:	90 e0       	ldi	r25, 0x00	; 0
    3660:	02 2e       	mov	r0, r18
    3662:	02 c0       	rjmp	.+4      	; 0x3668 <DIO_enumSetPINDirection+0x1de>
    3664:	88 0f       	add	r24, r24
    3666:	99 1f       	adc	r25, r25
    3668:	0a 94       	dec	r0
    366a:	e2 f7       	brpl	.-8      	; 0x3664 <DIO_enumSetPINDirection+0x1da>
    366c:	80 95       	com	r24
    366e:	84 23       	and	r24, r20
    3670:	8c 93       	st	X, r24
    3672:	05 c0       	rjmp	.+10     	; 0x367e <DIO_enumSetPINDirection+0x1f4>
		                            }
		                            else
		                            {
		                                /**/
		                          	  LOC_enumState=DIO_NOK;
    3674:	19 82       	std	Y+1, r1	; 0x01
    3676:	03 c0       	rjmp	.+6      	; 0x367e <DIO_enumSetPINDirection+0x1f4>
		                            }
		                    break;

		        default:
		      	  LOC_enumState=DIO_NOK;
    3678:	19 82       	std	Y+1, r1	; 0x01
    367a:	01 c0       	rjmp	.+2      	; 0x367e <DIO_enumSetPINDirection+0x1f4>

	}
	}
	else
	{
		LOC_enumState=DIO_NOK;
    367c:	19 82       	std	Y+1, r1	; 0x01
	}



	return LOC_enumState;
    367e:	89 81       	ldd	r24, Y+1	; 0x01
 }
    3680:	26 96       	adiw	r28, 0x06	; 6
    3682:	0f b6       	in	r0, 0x3f	; 63
    3684:	f8 94       	cli
    3686:	de bf       	out	0x3e, r29	; 62
    3688:	0f be       	out	0x3f, r0	; 63
    368a:	cd bf       	out	0x3d, r28	; 61
    368c:	cf 91       	pop	r28
    368e:	df 91       	pop	r29
    3690:	08 95       	ret

00003692 <DIO_enumSetPINValue>:
 DIO_ErroStatus DIO_enumSetPINValue    (u8 Copy_u8Port,u8 Copy_u8PINNumber, u8 Copy_u8Value    )
 {
    3692:	df 93       	push	r29
    3694:	cf 93       	push	r28
    3696:	00 d0       	rcall	.+0      	; 0x3698 <DIO_enumSetPINValue+0x6>
    3698:	00 d0       	rcall	.+0      	; 0x369a <DIO_enumSetPINValue+0x8>
    369a:	00 d0       	rcall	.+0      	; 0x369c <DIO_enumSetPINValue+0xa>
    369c:	cd b7       	in	r28, 0x3d	; 61
    369e:	de b7       	in	r29, 0x3e	; 62
    36a0:	8a 83       	std	Y+2, r24	; 0x02
    36a2:	6b 83       	std	Y+3, r22	; 0x03
    36a4:	4c 83       	std	Y+4, r20	; 0x04
	 DIO_ErroStatus LOC_enumState = DIO_OK;
    36a6:	81 e0       	ldi	r24, 0x01	; 1
    36a8:	89 83       	std	Y+1, r24	; 0x01
	 	if((Copy_u8PINNumber>=DIO_PIN0)&& (Copy_u8PINNumber<=DIO_PIN7))
    36aa:	8b 81       	ldd	r24, Y+3	; 0x03
    36ac:	88 30       	cpi	r24, 0x08	; 8
    36ae:	08 f0       	brcs	.+2      	; 0x36b2 <DIO_enumSetPINValue+0x20>
    36b0:	e9 c0       	rjmp	.+466    	; 0x3884 <DIO_enumSetPINValue+0x1f2>
	 	{
	 		 switch(Copy_u8Port)
    36b2:	8a 81       	ldd	r24, Y+2	; 0x02
    36b4:	28 2f       	mov	r18, r24
    36b6:	30 e0       	ldi	r19, 0x00	; 0
    36b8:	3e 83       	std	Y+6, r19	; 0x06
    36ba:	2d 83       	std	Y+5, r18	; 0x05
    36bc:	8d 81       	ldd	r24, Y+5	; 0x05
    36be:	9e 81       	ldd	r25, Y+6	; 0x06
    36c0:	82 30       	cpi	r24, 0x02	; 2
    36c2:	91 05       	cpc	r25, r1
    36c4:	09 f4       	brne	.+2      	; 0x36c8 <DIO_enumSetPINValue+0x36>
    36c6:	49 c0       	rjmp	.+146    	; 0x375a <DIO_enumSetPINValue+0xc8>
    36c8:	2d 81       	ldd	r18, Y+5	; 0x05
    36ca:	3e 81       	ldd	r19, Y+6	; 0x06
    36cc:	23 30       	cpi	r18, 0x03	; 3
    36ce:	31 05       	cpc	r19, r1
    36d0:	34 f4       	brge	.+12     	; 0x36de <DIO_enumSetPINValue+0x4c>
    36d2:	8d 81       	ldd	r24, Y+5	; 0x05
    36d4:	9e 81       	ldd	r25, Y+6	; 0x06
    36d6:	81 30       	cpi	r24, 0x01	; 1
    36d8:	91 05       	cpc	r25, r1
    36da:	71 f0       	breq	.+28     	; 0x36f8 <DIO_enumSetPINValue+0x66>
    36dc:	d1 c0       	rjmp	.+418    	; 0x3880 <DIO_enumSetPINValue+0x1ee>
    36de:	2d 81       	ldd	r18, Y+5	; 0x05
    36e0:	3e 81       	ldd	r19, Y+6	; 0x06
    36e2:	23 30       	cpi	r18, 0x03	; 3
    36e4:	31 05       	cpc	r19, r1
    36e6:	09 f4       	brne	.+2      	; 0x36ea <DIO_enumSetPINValue+0x58>
    36e8:	69 c0       	rjmp	.+210    	; 0x37bc <DIO_enumSetPINValue+0x12a>
    36ea:	8d 81       	ldd	r24, Y+5	; 0x05
    36ec:	9e 81       	ldd	r25, Y+6	; 0x06
    36ee:	84 30       	cpi	r24, 0x04	; 4
    36f0:	91 05       	cpc	r25, r1
    36f2:	09 f4       	brne	.+2      	; 0x36f6 <DIO_enumSetPINValue+0x64>
    36f4:	94 c0       	rjmp	.+296    	; 0x381e <DIO_enumSetPINValue+0x18c>
    36f6:	c4 c0       	rjmp	.+392    	; 0x3880 <DIO_enumSetPINValue+0x1ee>
	 		    {

	 		        case DIO_PORTA :
	 		                        if(Copy_u8Value == DIO_HIGH)
    36f8:	8c 81       	ldd	r24, Y+4	; 0x04
    36fa:	81 30       	cpi	r24, 0x01	; 1
    36fc:	a1 f4       	brne	.+40     	; 0x3726 <DIO_enumSetPINValue+0x94>
	 		                           {
	 		                                SET_BIT(PORTA_REG,Copy_u8PINNumber);
    36fe:	ab e3       	ldi	r26, 0x3B	; 59
    3700:	b0 e0       	ldi	r27, 0x00	; 0
    3702:	eb e3       	ldi	r30, 0x3B	; 59
    3704:	f0 e0       	ldi	r31, 0x00	; 0
    3706:	80 81       	ld	r24, Z
    3708:	48 2f       	mov	r20, r24
    370a:	8b 81       	ldd	r24, Y+3	; 0x03
    370c:	28 2f       	mov	r18, r24
    370e:	30 e0       	ldi	r19, 0x00	; 0
    3710:	81 e0       	ldi	r24, 0x01	; 1
    3712:	90 e0       	ldi	r25, 0x00	; 0
    3714:	02 2e       	mov	r0, r18
    3716:	02 c0       	rjmp	.+4      	; 0x371c <DIO_enumSetPINValue+0x8a>
    3718:	88 0f       	add	r24, r24
    371a:	99 1f       	adc	r25, r25
    371c:	0a 94       	dec	r0
    371e:	e2 f7       	brpl	.-8      	; 0x3718 <DIO_enumSetPINValue+0x86>
    3720:	84 2b       	or	r24, r20
    3722:	8c 93       	st	X, r24
    3724:	b0 c0       	rjmp	.+352    	; 0x3886 <DIO_enumSetPINValue+0x1f4>
	 		                           }
	 		                        else if(Copy_u8Value == DIO_LOW)
    3726:	8c 81       	ldd	r24, Y+4	; 0x04
    3728:	88 23       	and	r24, r24
    372a:	a9 f4       	brne	.+42     	; 0x3756 <DIO_enumSetPINValue+0xc4>
	 		                          {
	 		                                CLR_BIT(PORTA_REG,Copy_u8PINNumber);
    372c:	ab e3       	ldi	r26, 0x3B	; 59
    372e:	b0 e0       	ldi	r27, 0x00	; 0
    3730:	eb e3       	ldi	r30, 0x3B	; 59
    3732:	f0 e0       	ldi	r31, 0x00	; 0
    3734:	80 81       	ld	r24, Z
    3736:	48 2f       	mov	r20, r24
    3738:	8b 81       	ldd	r24, Y+3	; 0x03
    373a:	28 2f       	mov	r18, r24
    373c:	30 e0       	ldi	r19, 0x00	; 0
    373e:	81 e0       	ldi	r24, 0x01	; 1
    3740:	90 e0       	ldi	r25, 0x00	; 0
    3742:	02 2e       	mov	r0, r18
    3744:	02 c0       	rjmp	.+4      	; 0x374a <DIO_enumSetPINValue+0xb8>
    3746:	88 0f       	add	r24, r24
    3748:	99 1f       	adc	r25, r25
    374a:	0a 94       	dec	r0
    374c:	e2 f7       	brpl	.-8      	; 0x3746 <DIO_enumSetPINValue+0xb4>
    374e:	80 95       	com	r24
    3750:	84 23       	and	r24, r20
    3752:	8c 93       	st	X, r24
    3754:	98 c0       	rjmp	.+304    	; 0x3886 <DIO_enumSetPINValue+0x1f4>
	 		                          }
	 		                          else
	 		                          {
	 		                            /**/
	 		                        	  LOC_enumState=DIO_NOK;
    3756:	19 82       	std	Y+1, r1	; 0x01
    3758:	96 c0       	rjmp	.+300    	; 0x3886 <DIO_enumSetPINValue+0x1f4>
	 		                          }
	 		                    break;
	 		        case DIO_PORTB :
	 		                        if(Copy_u8Value == DIO_HIGH)
    375a:	8c 81       	ldd	r24, Y+4	; 0x04
    375c:	81 30       	cpi	r24, 0x01	; 1
    375e:	a1 f4       	brne	.+40     	; 0x3788 <DIO_enumSetPINValue+0xf6>
	 		                            {
	 		                                SET_BIT(PORTB_REG,Copy_u8PINNumber);
    3760:	a8 e3       	ldi	r26, 0x38	; 56
    3762:	b0 e0       	ldi	r27, 0x00	; 0
    3764:	e8 e3       	ldi	r30, 0x38	; 56
    3766:	f0 e0       	ldi	r31, 0x00	; 0
    3768:	80 81       	ld	r24, Z
    376a:	48 2f       	mov	r20, r24
    376c:	8b 81       	ldd	r24, Y+3	; 0x03
    376e:	28 2f       	mov	r18, r24
    3770:	30 e0       	ldi	r19, 0x00	; 0
    3772:	81 e0       	ldi	r24, 0x01	; 1
    3774:	90 e0       	ldi	r25, 0x00	; 0
    3776:	02 2e       	mov	r0, r18
    3778:	02 c0       	rjmp	.+4      	; 0x377e <DIO_enumSetPINValue+0xec>
    377a:	88 0f       	add	r24, r24
    377c:	99 1f       	adc	r25, r25
    377e:	0a 94       	dec	r0
    3780:	e2 f7       	brpl	.-8      	; 0x377a <DIO_enumSetPINValue+0xe8>
    3782:	84 2b       	or	r24, r20
    3784:	8c 93       	st	X, r24
    3786:	7f c0       	rjmp	.+254    	; 0x3886 <DIO_enumSetPINValue+0x1f4>
	 		                            }
	 		                        else if(Copy_u8Value == DIO_LOW)
    3788:	8c 81       	ldd	r24, Y+4	; 0x04
    378a:	88 23       	and	r24, r24
    378c:	a9 f4       	brne	.+42     	; 0x37b8 <DIO_enumSetPINValue+0x126>
	 		                            {
	 	                                    CLR_BIT(PORTB_REG,Copy_u8PINNumber);
    378e:	a8 e3       	ldi	r26, 0x38	; 56
    3790:	b0 e0       	ldi	r27, 0x00	; 0
    3792:	e8 e3       	ldi	r30, 0x38	; 56
    3794:	f0 e0       	ldi	r31, 0x00	; 0
    3796:	80 81       	ld	r24, Z
    3798:	48 2f       	mov	r20, r24
    379a:	8b 81       	ldd	r24, Y+3	; 0x03
    379c:	28 2f       	mov	r18, r24
    379e:	30 e0       	ldi	r19, 0x00	; 0
    37a0:	81 e0       	ldi	r24, 0x01	; 1
    37a2:	90 e0       	ldi	r25, 0x00	; 0
    37a4:	02 2e       	mov	r0, r18
    37a6:	02 c0       	rjmp	.+4      	; 0x37ac <DIO_enumSetPINValue+0x11a>
    37a8:	88 0f       	add	r24, r24
    37aa:	99 1f       	adc	r25, r25
    37ac:	0a 94       	dec	r0
    37ae:	e2 f7       	brpl	.-8      	; 0x37a8 <DIO_enumSetPINValue+0x116>
    37b0:	80 95       	com	r24
    37b2:	84 23       	and	r24, r20
    37b4:	8c 93       	st	X, r24
    37b6:	67 c0       	rjmp	.+206    	; 0x3886 <DIO_enumSetPINValue+0x1f4>
	 		                            }
	 		                            else
	 		                            {
	 		                                /**/
	 		                          	  LOC_enumState=DIO_NOK;
    37b8:	19 82       	std	Y+1, r1	; 0x01
    37ba:	65 c0       	rjmp	.+202    	; 0x3886 <DIO_enumSetPINValue+0x1f4>
	 		                            }
	 		                    break;
	 		        case DIO_PORTC :
	 		                        if(Copy_u8Value == DIO_HIGH)
    37bc:	8c 81       	ldd	r24, Y+4	; 0x04
    37be:	81 30       	cpi	r24, 0x01	; 1
    37c0:	a1 f4       	brne	.+40     	; 0x37ea <DIO_enumSetPINValue+0x158>
	 		                            {
	 	                                SET_BIT(PORTC_REG,Copy_u8PINNumber);
    37c2:	a5 e3       	ldi	r26, 0x35	; 53
    37c4:	b0 e0       	ldi	r27, 0x00	; 0
    37c6:	e5 e3       	ldi	r30, 0x35	; 53
    37c8:	f0 e0       	ldi	r31, 0x00	; 0
    37ca:	80 81       	ld	r24, Z
    37cc:	48 2f       	mov	r20, r24
    37ce:	8b 81       	ldd	r24, Y+3	; 0x03
    37d0:	28 2f       	mov	r18, r24
    37d2:	30 e0       	ldi	r19, 0x00	; 0
    37d4:	81 e0       	ldi	r24, 0x01	; 1
    37d6:	90 e0       	ldi	r25, 0x00	; 0
    37d8:	02 2e       	mov	r0, r18
    37da:	02 c0       	rjmp	.+4      	; 0x37e0 <DIO_enumSetPINValue+0x14e>
    37dc:	88 0f       	add	r24, r24
    37de:	99 1f       	adc	r25, r25
    37e0:	0a 94       	dec	r0
    37e2:	e2 f7       	brpl	.-8      	; 0x37dc <DIO_enumSetPINValue+0x14a>
    37e4:	84 2b       	or	r24, r20
    37e6:	8c 93       	st	X, r24
    37e8:	4e c0       	rjmp	.+156    	; 0x3886 <DIO_enumSetPINValue+0x1f4>
	 		                            }
	 		                        else if (Copy_u8Value==DIO_LOW)
    37ea:	8c 81       	ldd	r24, Y+4	; 0x04
    37ec:	88 23       	and	r24, r24
    37ee:	a9 f4       	brne	.+42     	; 0x381a <DIO_enumSetPINValue+0x188>
	 		                            {
	 	                                CLR_BIT(PORTC_REG,Copy_u8PINNumber);
    37f0:	a5 e3       	ldi	r26, 0x35	; 53
    37f2:	b0 e0       	ldi	r27, 0x00	; 0
    37f4:	e5 e3       	ldi	r30, 0x35	; 53
    37f6:	f0 e0       	ldi	r31, 0x00	; 0
    37f8:	80 81       	ld	r24, Z
    37fa:	48 2f       	mov	r20, r24
    37fc:	8b 81       	ldd	r24, Y+3	; 0x03
    37fe:	28 2f       	mov	r18, r24
    3800:	30 e0       	ldi	r19, 0x00	; 0
    3802:	81 e0       	ldi	r24, 0x01	; 1
    3804:	90 e0       	ldi	r25, 0x00	; 0
    3806:	02 2e       	mov	r0, r18
    3808:	02 c0       	rjmp	.+4      	; 0x380e <DIO_enumSetPINValue+0x17c>
    380a:	88 0f       	add	r24, r24
    380c:	99 1f       	adc	r25, r25
    380e:	0a 94       	dec	r0
    3810:	e2 f7       	brpl	.-8      	; 0x380a <DIO_enumSetPINValue+0x178>
    3812:	80 95       	com	r24
    3814:	84 23       	and	r24, r20
    3816:	8c 93       	st	X, r24
    3818:	36 c0       	rjmp	.+108    	; 0x3886 <DIO_enumSetPINValue+0x1f4>
	 		                            }
	 		                            else
	 		                            {
	 		                                /**/
	 		                          	  LOC_enumState=DIO_NOK;
    381a:	19 82       	std	Y+1, r1	; 0x01
    381c:	34 c0       	rjmp	.+104    	; 0x3886 <DIO_enumSetPINValue+0x1f4>
	 		                            }
	 		                    break;
	 		        case DIO_PORTD :
	 		                        if(Copy_u8Value == DIO_HIGH)
    381e:	8c 81       	ldd	r24, Y+4	; 0x04
    3820:	81 30       	cpi	r24, 0x01	; 1
    3822:	a1 f4       	brne	.+40     	; 0x384c <DIO_enumSetPINValue+0x1ba>
	 		                            {
	 	                                SET_BIT(PORTD_REG,Copy_u8PINNumber);
    3824:	a2 e3       	ldi	r26, 0x32	; 50
    3826:	b0 e0       	ldi	r27, 0x00	; 0
    3828:	e2 e3       	ldi	r30, 0x32	; 50
    382a:	f0 e0       	ldi	r31, 0x00	; 0
    382c:	80 81       	ld	r24, Z
    382e:	48 2f       	mov	r20, r24
    3830:	8b 81       	ldd	r24, Y+3	; 0x03
    3832:	28 2f       	mov	r18, r24
    3834:	30 e0       	ldi	r19, 0x00	; 0
    3836:	81 e0       	ldi	r24, 0x01	; 1
    3838:	90 e0       	ldi	r25, 0x00	; 0
    383a:	02 2e       	mov	r0, r18
    383c:	02 c0       	rjmp	.+4      	; 0x3842 <DIO_enumSetPINValue+0x1b0>
    383e:	88 0f       	add	r24, r24
    3840:	99 1f       	adc	r25, r25
    3842:	0a 94       	dec	r0
    3844:	e2 f7       	brpl	.-8      	; 0x383e <DIO_enumSetPINValue+0x1ac>
    3846:	84 2b       	or	r24, r20
    3848:	8c 93       	st	X, r24
    384a:	1d c0       	rjmp	.+58     	; 0x3886 <DIO_enumSetPINValue+0x1f4>
	 		                            }
	 		                        else if (Copy_u8Value==DIO_LOW)
    384c:	8c 81       	ldd	r24, Y+4	; 0x04
    384e:	88 23       	and	r24, r24
    3850:	a9 f4       	brne	.+42     	; 0x387c <DIO_enumSetPINValue+0x1ea>
	 		                            {
	 	                                CLR_BIT(PORTD_REG,Copy_u8PINNumber);
    3852:	a2 e3       	ldi	r26, 0x32	; 50
    3854:	b0 e0       	ldi	r27, 0x00	; 0
    3856:	e2 e3       	ldi	r30, 0x32	; 50
    3858:	f0 e0       	ldi	r31, 0x00	; 0
    385a:	80 81       	ld	r24, Z
    385c:	48 2f       	mov	r20, r24
    385e:	8b 81       	ldd	r24, Y+3	; 0x03
    3860:	28 2f       	mov	r18, r24
    3862:	30 e0       	ldi	r19, 0x00	; 0
    3864:	81 e0       	ldi	r24, 0x01	; 1
    3866:	90 e0       	ldi	r25, 0x00	; 0
    3868:	02 2e       	mov	r0, r18
    386a:	02 c0       	rjmp	.+4      	; 0x3870 <DIO_enumSetPINValue+0x1de>
    386c:	88 0f       	add	r24, r24
    386e:	99 1f       	adc	r25, r25
    3870:	0a 94       	dec	r0
    3872:	e2 f7       	brpl	.-8      	; 0x386c <DIO_enumSetPINValue+0x1da>
    3874:	80 95       	com	r24
    3876:	84 23       	and	r24, r20
    3878:	8c 93       	st	X, r24
    387a:	05 c0       	rjmp	.+10     	; 0x3886 <DIO_enumSetPINValue+0x1f4>

	 		                            }
	 		                            else
	 		                            {
	 		                                /**/
	 		                          	  LOC_enumState=DIO_NOK;
    387c:	19 82       	std	Y+1, r1	; 0x01
    387e:	03 c0       	rjmp	.+6      	; 0x3886 <DIO_enumSetPINValue+0x1f4>
	 		                            }
	 		                    break;

	 		        default:
	 		      	  LOC_enumState=DIO_NOK;
    3880:	19 82       	std	Y+1, r1	; 0x01
    3882:	01 c0       	rjmp	.+2      	; 0x3886 <DIO_enumSetPINValue+0x1f4>

	 	}
	 	}
	 	else
	 	{
	 		LOC_enumState=DIO_NOK;
    3884:	19 82       	std	Y+1, r1	; 0x01
	 	}



	 	return LOC_enumState;
    3886:	89 81       	ldd	r24, Y+1	; 0x01
	  }
    3888:	26 96       	adiw	r28, 0x06	; 6
    388a:	0f b6       	in	r0, 0x3f	; 63
    388c:	f8 94       	cli
    388e:	de bf       	out	0x3e, r29	; 62
    3890:	0f be       	out	0x3f, r0	; 63
    3892:	cd bf       	out	0x3d, r28	; 61
    3894:	cf 91       	pop	r28
    3896:	df 91       	pop	r29
    3898:	08 95       	ret

0000389a <DIO_enumGetPortValue>:

 DIO_ErroStatus DIO_enumGetPortValue    (u8 Copy_u8Port, u8 *Copy_ptrData   )
 {
    389a:	df 93       	push	r29
    389c:	cf 93       	push	r28
    389e:	00 d0       	rcall	.+0      	; 0x38a0 <DIO_enumGetPortValue+0x6>
    38a0:	00 d0       	rcall	.+0      	; 0x38a2 <DIO_enumGetPortValue+0x8>
    38a2:	00 d0       	rcall	.+0      	; 0x38a4 <DIO_enumGetPortValue+0xa>
    38a4:	cd b7       	in	r28, 0x3d	; 61
    38a6:	de b7       	in	r29, 0x3e	; 62
    38a8:	8a 83       	std	Y+2, r24	; 0x02
    38aa:	7c 83       	std	Y+4, r23	; 0x04
    38ac:	6b 83       	std	Y+3, r22	; 0x03
	 DIO_ErroStatus LOC_enumState=DIO_OK;
    38ae:	81 e0       	ldi	r24, 0x01	; 1
    38b0:	89 83       	std	Y+1, r24	; 0x01
	 switch (Copy_u8Port) {
    38b2:	8a 81       	ldd	r24, Y+2	; 0x02
    38b4:	28 2f       	mov	r18, r24
    38b6:	30 e0       	ldi	r19, 0x00	; 0
    38b8:	3e 83       	std	Y+6, r19	; 0x06
    38ba:	2d 83       	std	Y+5, r18	; 0x05
    38bc:	8d 81       	ldd	r24, Y+5	; 0x05
    38be:	9e 81       	ldd	r25, Y+6	; 0x06
    38c0:	82 30       	cpi	r24, 0x02	; 2
    38c2:	91 05       	cpc	r25, r1
    38c4:	e9 f0       	breq	.+58     	; 0x3900 <DIO_enumGetPortValue+0x66>
    38c6:	2d 81       	ldd	r18, Y+5	; 0x05
    38c8:	3e 81       	ldd	r19, Y+6	; 0x06
    38ca:	23 30       	cpi	r18, 0x03	; 3
    38cc:	31 05       	cpc	r19, r1
    38ce:	34 f4       	brge	.+12     	; 0x38dc <DIO_enumGetPortValue+0x42>
    38d0:	8d 81       	ldd	r24, Y+5	; 0x05
    38d2:	9e 81       	ldd	r25, Y+6	; 0x06
    38d4:	81 30       	cpi	r24, 0x01	; 1
    38d6:	91 05       	cpc	r25, r1
    38d8:	61 f0       	breq	.+24     	; 0x38f2 <DIO_enumGetPortValue+0x58>
    38da:	27 c0       	rjmp	.+78     	; 0x392a <DIO_enumGetPortValue+0x90>
    38dc:	2d 81       	ldd	r18, Y+5	; 0x05
    38de:	3e 81       	ldd	r19, Y+6	; 0x06
    38e0:	23 30       	cpi	r18, 0x03	; 3
    38e2:	31 05       	cpc	r19, r1
    38e4:	a1 f0       	breq	.+40     	; 0x390e <DIO_enumGetPortValue+0x74>
    38e6:	8d 81       	ldd	r24, Y+5	; 0x05
    38e8:	9e 81       	ldd	r25, Y+6	; 0x06
    38ea:	84 30       	cpi	r24, 0x04	; 4
    38ec:	91 05       	cpc	r25, r1
    38ee:	b1 f0       	breq	.+44     	; 0x391c <DIO_enumGetPortValue+0x82>
    38f0:	1c c0       	rjmp	.+56     	; 0x392a <DIO_enumGetPortValue+0x90>
		case DIO_PORTA: *Copy_ptrData = PINA_REG;
    38f2:	e9 e3       	ldi	r30, 0x39	; 57
    38f4:	f0 e0       	ldi	r31, 0x00	; 0
    38f6:	80 81       	ld	r24, Z
    38f8:	eb 81       	ldd	r30, Y+3	; 0x03
    38fa:	fc 81       	ldd	r31, Y+4	; 0x04
    38fc:	80 83       	st	Z, r24
    38fe:	16 c0       	rjmp	.+44     	; 0x392c <DIO_enumGetPortValue+0x92>
			break;
		case DIO_PORTB: *Copy_ptrData = PINB_REG;
    3900:	e6 e3       	ldi	r30, 0x36	; 54
    3902:	f0 e0       	ldi	r31, 0x00	; 0
    3904:	80 81       	ld	r24, Z
    3906:	eb 81       	ldd	r30, Y+3	; 0x03
    3908:	fc 81       	ldd	r31, Y+4	; 0x04
    390a:	80 83       	st	Z, r24
    390c:	0f c0       	rjmp	.+30     	; 0x392c <DIO_enumGetPortValue+0x92>
					break;
		case DIO_PORTC: *Copy_ptrData = PINC_REG;
    390e:	e3 e3       	ldi	r30, 0x33	; 51
    3910:	f0 e0       	ldi	r31, 0x00	; 0
    3912:	80 81       	ld	r24, Z
    3914:	eb 81       	ldd	r30, Y+3	; 0x03
    3916:	fc 81       	ldd	r31, Y+4	; 0x04
    3918:	80 83       	st	Z, r24
    391a:	08 c0       	rjmp	.+16     	; 0x392c <DIO_enumGetPortValue+0x92>
					break;
		case DIO_PORTD: *Copy_ptrData = PIND_REG;
    391c:	e0 e3       	ldi	r30, 0x30	; 48
    391e:	f0 e0       	ldi	r31, 0x00	; 0
    3920:	80 81       	ld	r24, Z
    3922:	eb 81       	ldd	r30, Y+3	; 0x03
    3924:	fc 81       	ldd	r31, Y+4	; 0x04
    3926:	80 83       	st	Z, r24
    3928:	01 c0       	rjmp	.+2      	; 0x392c <DIO_enumGetPortValue+0x92>
					break;
		default:
			LOC_enumState =DIO_NOK;
    392a:	19 82       	std	Y+1, r1	; 0x01
			break;
	}
	 return LOC_enumState;
    392c:	89 81       	ldd	r24, Y+1	; 0x01


 }
    392e:	26 96       	adiw	r28, 0x06	; 6
    3930:	0f b6       	in	r0, 0x3f	; 63
    3932:	f8 94       	cli
    3934:	de bf       	out	0x3e, r29	; 62
    3936:	0f be       	out	0x3f, r0	; 63
    3938:	cd bf       	out	0x3d, r28	; 61
    393a:	cf 91       	pop	r28
    393c:	df 91       	pop	r29
    393e:	08 95       	ret

00003940 <DIO_enumGetPINValue>:

 DIO_ErroStatus DIO_enumGetPINValue     (u8 Copy_u8Port,u8 Copy_u8PINNumber, u8 *Copy_ptrData   )
 {
    3940:	df 93       	push	r29
    3942:	cf 93       	push	r28
    3944:	cd b7       	in	r28, 0x3d	; 61
    3946:	de b7       	in	r29, 0x3e	; 62
    3948:	27 97       	sbiw	r28, 0x07	; 7
    394a:	0f b6       	in	r0, 0x3f	; 63
    394c:	f8 94       	cli
    394e:	de bf       	out	0x3e, r29	; 62
    3950:	0f be       	out	0x3f, r0	; 63
    3952:	cd bf       	out	0x3d, r28	; 61
    3954:	8a 83       	std	Y+2, r24	; 0x02
    3956:	6b 83       	std	Y+3, r22	; 0x03
    3958:	5d 83       	std	Y+5, r21	; 0x05
    395a:	4c 83       	std	Y+4, r20	; 0x04
	 DIO_ErroStatus LOC_enumState = DIO_OK;
    395c:	81 e0       	ldi	r24, 0x01	; 1
    395e:	89 83       	std	Y+1, r24	; 0x01
		if((Copy_u8PINNumber>=DIO_PIN0)&& (Copy_u8PINNumber<=DIO_PIN7))
    3960:	8b 81       	ldd	r24, Y+3	; 0x03
    3962:	88 30       	cpi	r24, 0x08	; 8
    3964:	08 f0       	brcs	.+2      	; 0x3968 <DIO_enumGetPINValue+0x28>
    3966:	73 c0       	rjmp	.+230    	; 0x3a4e <DIO_enumGetPINValue+0x10e>
		 	{
		 		 switch(Copy_u8Port)
    3968:	8a 81       	ldd	r24, Y+2	; 0x02
    396a:	28 2f       	mov	r18, r24
    396c:	30 e0       	ldi	r19, 0x00	; 0
    396e:	3f 83       	std	Y+7, r19	; 0x07
    3970:	2e 83       	std	Y+6, r18	; 0x06
    3972:	4e 81       	ldd	r20, Y+6	; 0x06
    3974:	5f 81       	ldd	r21, Y+7	; 0x07
    3976:	42 30       	cpi	r20, 0x02	; 2
    3978:	51 05       	cpc	r21, r1
    397a:	59 f1       	breq	.+86     	; 0x39d2 <DIO_enumGetPINValue+0x92>
    397c:	8e 81       	ldd	r24, Y+6	; 0x06
    397e:	9f 81       	ldd	r25, Y+7	; 0x07
    3980:	83 30       	cpi	r24, 0x03	; 3
    3982:	91 05       	cpc	r25, r1
    3984:	34 f4       	brge	.+12     	; 0x3992 <DIO_enumGetPINValue+0x52>
    3986:	2e 81       	ldd	r18, Y+6	; 0x06
    3988:	3f 81       	ldd	r19, Y+7	; 0x07
    398a:	21 30       	cpi	r18, 0x01	; 1
    398c:	31 05       	cpc	r19, r1
    398e:	69 f0       	breq	.+26     	; 0x39aa <DIO_enumGetPINValue+0x6a>
    3990:	5c c0       	rjmp	.+184    	; 0x3a4a <DIO_enumGetPINValue+0x10a>
    3992:	4e 81       	ldd	r20, Y+6	; 0x06
    3994:	5f 81       	ldd	r21, Y+7	; 0x07
    3996:	43 30       	cpi	r20, 0x03	; 3
    3998:	51 05       	cpc	r21, r1
    399a:	79 f1       	breq	.+94     	; 0x39fa <DIO_enumGetPINValue+0xba>
    399c:	8e 81       	ldd	r24, Y+6	; 0x06
    399e:	9f 81       	ldd	r25, Y+7	; 0x07
    39a0:	84 30       	cpi	r24, 0x04	; 4
    39a2:	91 05       	cpc	r25, r1
    39a4:	09 f4       	brne	.+2      	; 0x39a8 <DIO_enumGetPINValue+0x68>
    39a6:	3d c0       	rjmp	.+122    	; 0x3a22 <DIO_enumGetPINValue+0xe2>
    39a8:	50 c0       	rjmp	.+160    	; 0x3a4a <DIO_enumGetPINValue+0x10a>
		 		    {
		 		case DIO_PORTA: *Copy_ptrData = GET_BIT(PINA_REG,Copy_u8PINNumber);
    39aa:	e9 e3       	ldi	r30, 0x39	; 57
    39ac:	f0 e0       	ldi	r31, 0x00	; 0
    39ae:	80 81       	ld	r24, Z
    39b0:	28 2f       	mov	r18, r24
    39b2:	30 e0       	ldi	r19, 0x00	; 0
    39b4:	8b 81       	ldd	r24, Y+3	; 0x03
    39b6:	88 2f       	mov	r24, r24
    39b8:	90 e0       	ldi	r25, 0x00	; 0
    39ba:	a9 01       	movw	r20, r18
    39bc:	02 c0       	rjmp	.+4      	; 0x39c2 <DIO_enumGetPINValue+0x82>
    39be:	55 95       	asr	r21
    39c0:	47 95       	ror	r20
    39c2:	8a 95       	dec	r24
    39c4:	e2 f7       	brpl	.-8      	; 0x39be <DIO_enumGetPINValue+0x7e>
    39c6:	ca 01       	movw	r24, r20
    39c8:	81 70       	andi	r24, 0x01	; 1
    39ca:	ec 81       	ldd	r30, Y+4	; 0x04
    39cc:	fd 81       	ldd	r31, Y+5	; 0x05
    39ce:	80 83       	st	Z, r24
    39d0:	3f c0       	rjmp	.+126    	; 0x3a50 <DIO_enumGetPINValue+0x110>
		 			break;
		 		case DIO_PORTB: *Copy_ptrData = GET_BIT(PINB_REG,Copy_u8PINNumber);
    39d2:	e6 e3       	ldi	r30, 0x36	; 54
    39d4:	f0 e0       	ldi	r31, 0x00	; 0
    39d6:	80 81       	ld	r24, Z
    39d8:	28 2f       	mov	r18, r24
    39da:	30 e0       	ldi	r19, 0x00	; 0
    39dc:	8b 81       	ldd	r24, Y+3	; 0x03
    39de:	88 2f       	mov	r24, r24
    39e0:	90 e0       	ldi	r25, 0x00	; 0
    39e2:	a9 01       	movw	r20, r18
    39e4:	02 c0       	rjmp	.+4      	; 0x39ea <DIO_enumGetPINValue+0xaa>
    39e6:	55 95       	asr	r21
    39e8:	47 95       	ror	r20
    39ea:	8a 95       	dec	r24
    39ec:	e2 f7       	brpl	.-8      	; 0x39e6 <DIO_enumGetPINValue+0xa6>
    39ee:	ca 01       	movw	r24, r20
    39f0:	81 70       	andi	r24, 0x01	; 1
    39f2:	ec 81       	ldd	r30, Y+4	; 0x04
    39f4:	fd 81       	ldd	r31, Y+5	; 0x05
    39f6:	80 83       	st	Z, r24
    39f8:	2b c0       	rjmp	.+86     	; 0x3a50 <DIO_enumGetPINValue+0x110>
		 					break;
		 		case DIO_PORTC: *Copy_ptrData = GET_BIT(PINC_REG,Copy_u8PINNumber);
    39fa:	e3 e3       	ldi	r30, 0x33	; 51
    39fc:	f0 e0       	ldi	r31, 0x00	; 0
    39fe:	80 81       	ld	r24, Z
    3a00:	28 2f       	mov	r18, r24
    3a02:	30 e0       	ldi	r19, 0x00	; 0
    3a04:	8b 81       	ldd	r24, Y+3	; 0x03
    3a06:	88 2f       	mov	r24, r24
    3a08:	90 e0       	ldi	r25, 0x00	; 0
    3a0a:	a9 01       	movw	r20, r18
    3a0c:	02 c0       	rjmp	.+4      	; 0x3a12 <DIO_enumGetPINValue+0xd2>
    3a0e:	55 95       	asr	r21
    3a10:	47 95       	ror	r20
    3a12:	8a 95       	dec	r24
    3a14:	e2 f7       	brpl	.-8      	; 0x3a0e <DIO_enumGetPINValue+0xce>
    3a16:	ca 01       	movw	r24, r20
    3a18:	81 70       	andi	r24, 0x01	; 1
    3a1a:	ec 81       	ldd	r30, Y+4	; 0x04
    3a1c:	fd 81       	ldd	r31, Y+5	; 0x05
    3a1e:	80 83       	st	Z, r24
    3a20:	17 c0       	rjmp	.+46     	; 0x3a50 <DIO_enumGetPINValue+0x110>
		 					break;
		 		case DIO_PORTD: *Copy_ptrData = GET_BIT(PIND_REG,Copy_u8PINNumber);
    3a22:	e0 e3       	ldi	r30, 0x30	; 48
    3a24:	f0 e0       	ldi	r31, 0x00	; 0
    3a26:	80 81       	ld	r24, Z
    3a28:	28 2f       	mov	r18, r24
    3a2a:	30 e0       	ldi	r19, 0x00	; 0
    3a2c:	8b 81       	ldd	r24, Y+3	; 0x03
    3a2e:	88 2f       	mov	r24, r24
    3a30:	90 e0       	ldi	r25, 0x00	; 0
    3a32:	a9 01       	movw	r20, r18
    3a34:	02 c0       	rjmp	.+4      	; 0x3a3a <DIO_enumGetPINValue+0xfa>
    3a36:	55 95       	asr	r21
    3a38:	47 95       	ror	r20
    3a3a:	8a 95       	dec	r24
    3a3c:	e2 f7       	brpl	.-8      	; 0x3a36 <DIO_enumGetPINValue+0xf6>
    3a3e:	ca 01       	movw	r24, r20
    3a40:	81 70       	andi	r24, 0x01	; 1
    3a42:	ec 81       	ldd	r30, Y+4	; 0x04
    3a44:	fd 81       	ldd	r31, Y+5	; 0x05
    3a46:	80 83       	st	Z, r24
    3a48:	03 c0       	rjmp	.+6      	; 0x3a50 <DIO_enumGetPINValue+0x110>
		 					break;
		 		default:
		 			LOC_enumState =DIO_NOK;
    3a4a:	19 82       	std	Y+1, r1	; 0x01
    3a4c:	01 c0       	rjmp	.+2      	; 0x3a50 <DIO_enumGetPINValue+0x110>
		 			break;

		 		    }
		 	}
	 else {
		 LOC_enumState = DIO_NOK;
    3a4e:	19 82       	std	Y+1, r1	; 0x01
	}

	 return LOC_enumState;
    3a50:	89 81       	ldd	r24, Y+1	; 0x01
 }
    3a52:	27 96       	adiw	r28, 0x07	; 7
    3a54:	0f b6       	in	r0, 0x3f	; 63
    3a56:	f8 94       	cli
    3a58:	de bf       	out	0x3e, r29	; 62
    3a5a:	0f be       	out	0x3f, r0	; 63
    3a5c:	cd bf       	out	0x3d, r28	; 61
    3a5e:	cf 91       	pop	r28
    3a60:	df 91       	pop	r29
    3a62:	08 95       	ret

00003a64 <SW_voidInit>:
#include "SW_private.h"
#include "SW_config.h"
#include "../../MCAL/DIO/DIO_interface.h"

void SW_voidInit(SW_Type SW_Config)
{
    3a64:	df 93       	push	r29
    3a66:	cf 93       	push	r28
    3a68:	00 d0       	rcall	.+0      	; 0x3a6a <SW_voidInit+0x6>
    3a6a:	0f 92       	push	r0
    3a6c:	cd b7       	in	r28, 0x3d	; 61
    3a6e:	de b7       	in	r29, 0x3e	; 62
    3a70:	69 83       	std	Y+1, r22	; 0x01
    3a72:	7a 83       	std	Y+2, r23	; 0x02
    3a74:	8b 83       	std	Y+3, r24	; 0x03
    DIO_enumSetPINDirection(SW_Config.Port, SW_Config.Pin, DIO_INPUT);
    3a76:	89 81       	ldd	r24, Y+1	; 0x01
    3a78:	9a 81       	ldd	r25, Y+2	; 0x02
    3a7a:	69 2f       	mov	r22, r25
    3a7c:	40 e0       	ldi	r20, 0x00	; 0
    3a7e:	0e 94 45 1a 	call	0x348a	; 0x348a <DIO_enumSetPINDirection>
    if (SW_Config.Pull_State == SW_PULL_UP)
    3a82:	8b 81       	ldd	r24, Y+3	; 0x03
    3a84:	81 30       	cpi	r24, 0x01	; 1
    3a86:	39 f4       	brne	.+14     	; 0x3a96 <SW_voidInit+0x32>
    {
        DIO_enumSetPINValue(SW_Config.Port, SW_Config.Pin, DIO_HIGH);
    3a88:	89 81       	ldd	r24, Y+1	; 0x01
    3a8a:	9a 81       	ldd	r25, Y+2	; 0x02
    3a8c:	69 2f       	mov	r22, r25
    3a8e:	41 e0       	ldi	r20, 0x01	; 1
    3a90:	0e 94 49 1b 	call	0x3692	; 0x3692 <DIO_enumSetPINValue>
    3a94:	06 c0       	rjmp	.+12     	; 0x3aa2 <SW_voidInit+0x3e>
    }
    else 
    {
        DIO_enumSetPINValue(SW_Config.Port, SW_Config.Pin, DIO_LOW);
    3a96:	89 81       	ldd	r24, Y+1	; 0x01
    3a98:	9a 81       	ldd	r25, Y+2	; 0x02
    3a9a:	69 2f       	mov	r22, r25
    3a9c:	40 e0       	ldi	r20, 0x00	; 0
    3a9e:	0e 94 49 1b 	call	0x3692	; 0x3692 <DIO_enumSetPINValue>
    }
}
    3aa2:	0f 90       	pop	r0
    3aa4:	0f 90       	pop	r0
    3aa6:	0f 90       	pop	r0
    3aa8:	cf 91       	pop	r28
    3aaa:	df 91       	pop	r29
    3aac:	08 95       	ret

00003aae <SW_u8GetPressed>:
u8 SW_u8GetPressed(SW_Type SW_Config)
{
    3aae:	df 93       	push	r29
    3ab0:	cf 93       	push	r28
    3ab2:	00 d0       	rcall	.+0      	; 0x3ab4 <SW_u8GetPressed+0x6>
    3ab4:	00 d0       	rcall	.+0      	; 0x3ab6 <SW_u8GetPressed+0x8>
    3ab6:	cd b7       	in	r28, 0x3d	; 61
    3ab8:	de b7       	in	r29, 0x3e	; 62
    3aba:	6a 83       	std	Y+2, r22	; 0x02
    3abc:	7b 83       	std	Y+3, r23	; 0x03
    3abe:	8c 83       	std	Y+4, r24	; 0x04
    u8 LOC_u8Result = 0;
    3ac0:	19 82       	std	Y+1, r1	; 0x01
    DIO_enumGetPINValue     (SW_Config.Port,SW_Config.Pin, &LOC_u8Result  );
    3ac2:	8a 81       	ldd	r24, Y+2	; 0x02
    3ac4:	9b 81       	ldd	r25, Y+3	; 0x03
    3ac6:	69 2f       	mov	r22, r25
    3ac8:	9e 01       	movw	r18, r28
    3aca:	2f 5f       	subi	r18, 0xFF	; 255
    3acc:	3f 4f       	sbci	r19, 0xFF	; 255
    3ace:	a9 01       	movw	r20, r18
    3ad0:	0e 94 a0 1c 	call	0x3940	; 0x3940 <DIO_enumGetPINValue>

    return LOC_u8Result;
    3ad4:	89 81       	ldd	r24, Y+1	; 0x01
}
    3ad6:	0f 90       	pop	r0
    3ad8:	0f 90       	pop	r0
    3ada:	0f 90       	pop	r0
    3adc:	0f 90       	pop	r0
    3ade:	cf 91       	pop	r28
    3ae0:	df 91       	pop	r29
    3ae2:	08 95       	ret

00003ae4 <SSD_voidInit>:

// all the numbers value frome 0 to 9 Common cathod
const u8 SSD_u8ArrNumbers[10]={ZERO,ONE,TWO,THREE,FOUR,FIVE,SIX,SEVEN,EIGHT,NINE};
// function that sets the data and enables pin direction to output 
void SSD_voidInit(SSD_Type Copy_structSSD_Config)
{
    3ae4:	df 93       	push	r29
    3ae6:	cf 93       	push	r28
    3ae8:	00 d0       	rcall	.+0      	; 0x3aea <SSD_voidInit+0x6>
    3aea:	00 d0       	rcall	.+0      	; 0x3aec <SSD_voidInit+0x8>
    3aec:	cd b7       	in	r28, 0x3d	; 61
    3aee:	de b7       	in	r29, 0x3e	; 62
    3af0:	69 83       	std	Y+1, r22	; 0x01
    3af2:	7a 83       	std	Y+2, r23	; 0x02
    3af4:	8b 83       	std	Y+3, r24	; 0x03
    3af6:	9c 83       	std	Y+4, r25	; 0x04
    DIO_enumSetPortDirection(Copy_structSSD_Config.Data_Port,DIO_OUTPUT);
    3af8:	8a 81       	ldd	r24, Y+2	; 0x02
    3afa:	61 e0       	ldi	r22, 0x01	; 1
    3afc:	0e 94 83 19 	call	0x3306	; 0x3306 <DIO_enumSetPortDirection>
    DIO_enumSetPINDirection(Copy_structSSD_Config.Enable_Port,Copy_structSSD_Config.Enable_Pin,DIO_OUTPUT);
    3b00:	8b 81       	ldd	r24, Y+3	; 0x03
    3b02:	9c 81       	ldd	r25, Y+4	; 0x04
    3b04:	69 2f       	mov	r22, r25
    3b06:	41 e0       	ldi	r20, 0x01	; 1
    3b08:	0e 94 45 1a 	call	0x348a	; 0x348a <DIO_enumSetPINDirection>

}
    3b0c:	0f 90       	pop	r0
    3b0e:	0f 90       	pop	r0
    3b10:	0f 90       	pop	r0
    3b12:	0f 90       	pop	r0
    3b14:	cf 91       	pop	r28
    3b16:	df 91       	pop	r29
    3b18:	08 95       	ret

00003b1a <SSD_voidSendNumber>:
// function thats sends the value of a number on the data port
void SSD_voidSendNumber(SSD_Type Copy_structSSD_Config,u8 Copy_u8Number)
{
    3b1a:	df 93       	push	r29
    3b1c:	cf 93       	push	r28
    3b1e:	00 d0       	rcall	.+0      	; 0x3b20 <SSD_voidSendNumber+0x6>
    3b20:	00 d0       	rcall	.+0      	; 0x3b22 <SSD_voidSendNumber+0x8>
    3b22:	0f 92       	push	r0
    3b24:	cd b7       	in	r28, 0x3d	; 61
    3b26:	de b7       	in	r29, 0x3e	; 62
    3b28:	69 83       	std	Y+1, r22	; 0x01
    3b2a:	7a 83       	std	Y+2, r23	; 0x02
    3b2c:	8b 83       	std	Y+3, r24	; 0x03
    3b2e:	9c 83       	std	Y+4, r25	; 0x04
    3b30:	4d 83       	std	Y+5, r20	; 0x05
    if(Copy_structSSD_Config.Type == SSD_COMMON_CATHODE)
    3b32:	89 81       	ldd	r24, Y+1	; 0x01
    3b34:	88 23       	and	r24, r24
    3b36:	69 f4       	brne	.+26     	; 0x3b52 <SSD_voidSendNumber+0x38>
    {
        DIO_enumSetPortValue(Copy_structSSD_Config.Data_Port, SSD_u8ArrNumbers[Copy_u8Number]);
    3b38:	2a 81       	ldd	r18, Y+2	; 0x02
    3b3a:	8d 81       	ldd	r24, Y+5	; 0x05
    3b3c:	88 2f       	mov	r24, r24
    3b3e:	90 e0       	ldi	r25, 0x00	; 0
    3b40:	fc 01       	movw	r30, r24
    3b42:	e8 5f       	subi	r30, 0xF8	; 248
    3b44:	fd 4f       	sbci	r31, 0xFD	; 253
    3b46:	90 81       	ld	r25, Z
    3b48:	82 2f       	mov	r24, r18
    3b4a:	69 2f       	mov	r22, r25
    3b4c:	0e 94 fc 19 	call	0x33f8	; 0x33f8 <DIO_enumSetPortValue>
    3b50:	11 c0       	rjmp	.+34     	; 0x3b74 <SSD_voidSendNumber+0x5a>

    }
    else if (Copy_structSSD_Config.Type == SSD_COMMON_ANOD)
    3b52:	89 81       	ldd	r24, Y+1	; 0x01
    3b54:	81 30       	cpi	r24, 0x01	; 1
    3b56:	71 f4       	brne	.+28     	; 0x3b74 <SSD_voidSendNumber+0x5a>
    {
        DIO_enumSetPortValue(Copy_structSSD_Config.Data_Port, ~(SSD_u8ArrNumbers[Copy_u8Number]));
    3b58:	2a 81       	ldd	r18, Y+2	; 0x02
    3b5a:	8d 81       	ldd	r24, Y+5	; 0x05
    3b5c:	88 2f       	mov	r24, r24
    3b5e:	90 e0       	ldi	r25, 0x00	; 0
    3b60:	fc 01       	movw	r30, r24
    3b62:	e8 5f       	subi	r30, 0xF8	; 248
    3b64:	fd 4f       	sbci	r31, 0xFD	; 253
    3b66:	80 81       	ld	r24, Z
    3b68:	98 2f       	mov	r25, r24
    3b6a:	90 95       	com	r25
    3b6c:	82 2f       	mov	r24, r18
    3b6e:	69 2f       	mov	r22, r25
    3b70:	0e 94 fc 19 	call	0x33f8	; 0x33f8 <DIO_enumSetPortValue>


    }
}
    3b74:	0f 90       	pop	r0
    3b76:	0f 90       	pop	r0
    3b78:	0f 90       	pop	r0
    3b7a:	0f 90       	pop	r0
    3b7c:	0f 90       	pop	r0
    3b7e:	cf 91       	pop	r28
    3b80:	df 91       	pop	r29
    3b82:	08 95       	ret

00003b84 <SSD_voidEnable>:
// function that sets the enable pin to the value that makes the seven segments on
void SSD_voidEnable    (SSD_Type Copy_structSSD_Config)
{
    3b84:	df 93       	push	r29
    3b86:	cf 93       	push	r28
    3b88:	00 d0       	rcall	.+0      	; 0x3b8a <SSD_voidEnable+0x6>
    3b8a:	00 d0       	rcall	.+0      	; 0x3b8c <SSD_voidEnable+0x8>
    3b8c:	cd b7       	in	r28, 0x3d	; 61
    3b8e:	de b7       	in	r29, 0x3e	; 62
    3b90:	69 83       	std	Y+1, r22	; 0x01
    3b92:	7a 83       	std	Y+2, r23	; 0x02
    3b94:	8b 83       	std	Y+3, r24	; 0x03
    3b96:	9c 83       	std	Y+4, r25	; 0x04
      if(Copy_structSSD_Config.Type == SSD_COMMON_CATHODE)
    3b98:	89 81       	ldd	r24, Y+1	; 0x01
    3b9a:	88 23       	and	r24, r24
    3b9c:	39 f4       	brne	.+14     	; 0x3bac <SSD_voidEnable+0x28>
    {
        DIO_enumSetPINValue(Copy_structSSD_Config.Enable_Port,Copy_structSSD_Config.Enable_Pin,DIO_LOW);
    3b9e:	8b 81       	ldd	r24, Y+3	; 0x03
    3ba0:	9c 81       	ldd	r25, Y+4	; 0x04
    3ba2:	69 2f       	mov	r22, r25
    3ba4:	40 e0       	ldi	r20, 0x00	; 0
    3ba6:	0e 94 49 1b 	call	0x3692	; 0x3692 <DIO_enumSetPINValue>
    3baa:	09 c0       	rjmp	.+18     	; 0x3bbe <SSD_voidEnable+0x3a>

    }
    else if (Copy_structSSD_Config.Type == SSD_COMMON_ANOD)
    3bac:	89 81       	ldd	r24, Y+1	; 0x01
    3bae:	81 30       	cpi	r24, 0x01	; 1
    3bb0:	31 f4       	brne	.+12     	; 0x3bbe <SSD_voidEnable+0x3a>
    {
        DIO_enumSetPINValue(Copy_structSSD_Config.Enable_Port,Copy_structSSD_Config.Enable_Pin,DIO_HIGH);
    3bb2:	8b 81       	ldd	r24, Y+3	; 0x03
    3bb4:	9c 81       	ldd	r25, Y+4	; 0x04
    3bb6:	69 2f       	mov	r22, r25
    3bb8:	41 e0       	ldi	r20, 0x01	; 1
    3bba:	0e 94 49 1b 	call	0x3692	; 0x3692 <DIO_enumSetPINValue>


    }
}
    3bbe:	0f 90       	pop	r0
    3bc0:	0f 90       	pop	r0
    3bc2:	0f 90       	pop	r0
    3bc4:	0f 90       	pop	r0
    3bc6:	cf 91       	pop	r28
    3bc8:	df 91       	pop	r29
    3bca:	08 95       	ret

00003bcc <SSD_voidDisable>:
// function that sets the enable pin to the value that makes the seven segments off

void SSD_voidDisable   (SSD_Type Copy_structSSD_Config)
{
    3bcc:	df 93       	push	r29
    3bce:	cf 93       	push	r28
    3bd0:	00 d0       	rcall	.+0      	; 0x3bd2 <SSD_voidDisable+0x6>
    3bd2:	00 d0       	rcall	.+0      	; 0x3bd4 <SSD_voidDisable+0x8>
    3bd4:	cd b7       	in	r28, 0x3d	; 61
    3bd6:	de b7       	in	r29, 0x3e	; 62
    3bd8:	69 83       	std	Y+1, r22	; 0x01
    3bda:	7a 83       	std	Y+2, r23	; 0x02
    3bdc:	8b 83       	std	Y+3, r24	; 0x03
    3bde:	9c 83       	std	Y+4, r25	; 0x04
        if(Copy_structSSD_Config.Type == SSD_COMMON_CATHODE)
    3be0:	89 81       	ldd	r24, Y+1	; 0x01
    3be2:	88 23       	and	r24, r24
    3be4:	39 f4       	brne	.+14     	; 0x3bf4 <SSD_voidDisable+0x28>
    {
        DIO_enumSetPINValue(Copy_structSSD_Config.Enable_Port,Copy_structSSD_Config.Enable_Pin,DIO_HIGH);
    3be6:	8b 81       	ldd	r24, Y+3	; 0x03
    3be8:	9c 81       	ldd	r25, Y+4	; 0x04
    3bea:	69 2f       	mov	r22, r25
    3bec:	41 e0       	ldi	r20, 0x01	; 1
    3bee:	0e 94 49 1b 	call	0x3692	; 0x3692 <DIO_enumSetPINValue>
    3bf2:	09 c0       	rjmp	.+18     	; 0x3c06 <SSD_voidDisable+0x3a>

    }
    else if (Copy_structSSD_Config.Type == SSD_COMMON_ANOD)
    3bf4:	89 81       	ldd	r24, Y+1	; 0x01
    3bf6:	81 30       	cpi	r24, 0x01	; 1
    3bf8:	31 f4       	brne	.+12     	; 0x3c06 <SSD_voidDisable+0x3a>
    {
        DIO_enumSetPINValue(Copy_structSSD_Config.Enable_Port,Copy_structSSD_Config.Enable_Pin,DIO_LOW);
    3bfa:	8b 81       	ldd	r24, Y+3	; 0x03
    3bfc:	9c 81       	ldd	r25, Y+4	; 0x04
    3bfe:	69 2f       	mov	r22, r25
    3c00:	40 e0       	ldi	r20, 0x00	; 0
    3c02:	0e 94 49 1b 	call	0x3692	; 0x3692 <DIO_enumSetPINValue>


    }
}
    3c06:	0f 90       	pop	r0
    3c08:	0f 90       	pop	r0
    3c0a:	0f 90       	pop	r0
    3c0c:	0f 90       	pop	r0
    3c0e:	cf 91       	pop	r28
    3c10:	df 91       	pop	r29
    3c12:	08 95       	ret

00003c14 <LED_voidInit>:
#include "LED_config.h"



void LED_voidInit(LED_Type LED_Config )
{
    3c14:	df 93       	push	r29
    3c16:	cf 93       	push	r28
    3c18:	00 d0       	rcall	.+0      	; 0x3c1a <LED_voidInit+0x6>
    3c1a:	0f 92       	push	r0
    3c1c:	cd b7       	in	r28, 0x3d	; 61
    3c1e:	de b7       	in	r29, 0x3e	; 62
    3c20:	69 83       	std	Y+1, r22	; 0x01
    3c22:	7a 83       	std	Y+2, r23	; 0x02
    3c24:	8b 83       	std	Y+3, r24	; 0x03
      DIO_enumSetPINDirection(LED_Config.Port,LED_Config.Pin,DIO_OUTPUT);
    3c26:	89 81       	ldd	r24, Y+1	; 0x01
    3c28:	9a 81       	ldd	r25, Y+2	; 0x02
    3c2a:	69 2f       	mov	r22, r25
    3c2c:	41 e0       	ldi	r20, 0x01	; 1
    3c2e:	0e 94 45 1a 	call	0x348a	; 0x348a <DIO_enumSetPINDirection>


}
    3c32:	0f 90       	pop	r0
    3c34:	0f 90       	pop	r0
    3c36:	0f 90       	pop	r0
    3c38:	cf 91       	pop	r28
    3c3a:	df 91       	pop	r29
    3c3c:	08 95       	ret

00003c3e <LED_voidOn>:
void LED_voidOn  (LED_Type LED_Config )
{
    3c3e:	df 93       	push	r29
    3c40:	cf 93       	push	r28
    3c42:	00 d0       	rcall	.+0      	; 0x3c44 <LED_voidOn+0x6>
    3c44:	0f 92       	push	r0
    3c46:	cd b7       	in	r28, 0x3d	; 61
    3c48:	de b7       	in	r29, 0x3e	; 62
    3c4a:	69 83       	std	Y+1, r22	; 0x01
    3c4c:	7a 83       	std	Y+2, r23	; 0x02
    3c4e:	8b 83       	std	Y+3, r24	; 0x03
    if(LED_Config.Active_State == ACTIVE_HIGH)
    3c50:	8b 81       	ldd	r24, Y+3	; 0x03
    3c52:	81 30       	cpi	r24, 0x01	; 1
    3c54:	39 f4       	brne	.+14     	; 0x3c64 <LED_voidOn+0x26>
    {
      
      DIO_enumSetPINValue    (LED_Config.Port,LED_Config.Pin, DIO_HIGH);
    3c56:	89 81       	ldd	r24, Y+1	; 0x01
    3c58:	9a 81       	ldd	r25, Y+2	; 0x02
    3c5a:	69 2f       	mov	r22, r25
    3c5c:	41 e0       	ldi	r20, 0x01	; 1
    3c5e:	0e 94 49 1b 	call	0x3692	; 0x3692 <DIO_enumSetPINValue>
    3c62:	09 c0       	rjmp	.+18     	; 0x3c76 <LED_voidOn+0x38>

    }
    else if(LED_Config.Active_State == ACTIVE_LOW)
    3c64:	8b 81       	ldd	r24, Y+3	; 0x03
    3c66:	88 23       	and	r24, r24
    3c68:	31 f4       	brne	.+12     	; 0x3c76 <LED_voidOn+0x38>
    {

           DIO_enumSetPINValue    (LED_Config.Port,LED_Config.Pin, DIO_LOW);
    3c6a:	89 81       	ldd	r24, Y+1	; 0x01
    3c6c:	9a 81       	ldd	r25, Y+2	; 0x02
    3c6e:	69 2f       	mov	r22, r25
    3c70:	40 e0       	ldi	r20, 0x00	; 0
    3c72:	0e 94 49 1b 	call	0x3692	; 0x3692 <DIO_enumSetPINValue>

    }
}
    3c76:	0f 90       	pop	r0
    3c78:	0f 90       	pop	r0
    3c7a:	0f 90       	pop	r0
    3c7c:	cf 91       	pop	r28
    3c7e:	df 91       	pop	r29
    3c80:	08 95       	ret

00003c82 <LED_voidOff>:
void LED_voidOff (LED_Type LED_Config )
{
    3c82:	df 93       	push	r29
    3c84:	cf 93       	push	r28
    3c86:	00 d0       	rcall	.+0      	; 0x3c88 <LED_voidOff+0x6>
    3c88:	0f 92       	push	r0
    3c8a:	cd b7       	in	r28, 0x3d	; 61
    3c8c:	de b7       	in	r29, 0x3e	; 62
    3c8e:	69 83       	std	Y+1, r22	; 0x01
    3c90:	7a 83       	std	Y+2, r23	; 0x02
    3c92:	8b 83       	std	Y+3, r24	; 0x03
     if(LED_Config.Active_State == ACTIVE_HIGH)
    3c94:	8b 81       	ldd	r24, Y+3	; 0x03
    3c96:	81 30       	cpi	r24, 0x01	; 1
    3c98:	39 f4       	brne	.+14     	; 0x3ca8 <LED_voidOff+0x26>
    {
      
      DIO_enumSetPINValue    (LED_Config.Port,LED_Config.Pin, DIO_LOW);
    3c9a:	89 81       	ldd	r24, Y+1	; 0x01
    3c9c:	9a 81       	ldd	r25, Y+2	; 0x02
    3c9e:	69 2f       	mov	r22, r25
    3ca0:	40 e0       	ldi	r20, 0x00	; 0
    3ca2:	0e 94 49 1b 	call	0x3692	; 0x3692 <DIO_enumSetPINValue>
    3ca6:	09 c0       	rjmp	.+18     	; 0x3cba <LED_voidOff+0x38>

    }
     else if(LED_Config.Active_State == ACTIVE_LOW)
    3ca8:	8b 81       	ldd	r24, Y+3	; 0x03
    3caa:	88 23       	and	r24, r24
    3cac:	31 f4       	brne	.+12     	; 0x3cba <LED_voidOff+0x38>
    {

           DIO_enumSetPINValue    (LED_Config.Port,LED_Config.Pin, DIO_HIGH);
    3cae:	89 81       	ldd	r24, Y+1	; 0x01
    3cb0:	9a 81       	ldd	r25, Y+2	; 0x02
    3cb2:	69 2f       	mov	r22, r25
    3cb4:	41 e0       	ldi	r20, 0x01	; 1
    3cb6:	0e 94 49 1b 	call	0x3692	; 0x3692 <DIO_enumSetPINValue>

    }

}
    3cba:	0f 90       	pop	r0
    3cbc:	0f 90       	pop	r0
    3cbe:	0f 90       	pop	r0
    3cc0:	cf 91       	pop	r28
    3cc2:	df 91       	pop	r29
    3cc4:	08 95       	ret

00003cc6 <CLCD_voidInit>:
#include "CLCD_private.h"



void CLCD_voidInit			(void)
{
    3cc6:	df 93       	push	r29
    3cc8:	cf 93       	push	r28
    3cca:	cd b7       	in	r28, 0x3d	; 61
    3ccc:	de b7       	in	r29, 0x3e	; 62
    3cce:	e8 97       	sbiw	r28, 0x38	; 56
    3cd0:	0f b6       	in	r0, 0x3f	; 63
    3cd2:	f8 94       	cli
    3cd4:	de bf       	out	0x3e, r29	; 62
    3cd6:	0f be       	out	0x3f, r0	; 63
    3cd8:	cd bf       	out	0x3d, r28	; 61
	DIO_enumSetPortDirection(CLCD_DATA_PORT,DIO_OUTPUT			 );
    3cda:	81 e0       	ldi	r24, 0x01	; 1
    3cdc:	61 e0       	ldi	r22, 0x01	; 1
    3cde:	0e 94 83 19 	call	0x3306	; 0x3306 <DIO_enumSetPortDirection>
	DIO_enumSetPINDirection (CLCD_CONTROL_PORT,CLCD_RS,DIO_OUTPUT);
    3ce2:	83 e0       	ldi	r24, 0x03	; 3
    3ce4:	60 e0       	ldi	r22, 0x00	; 0
    3ce6:	41 e0       	ldi	r20, 0x01	; 1
    3ce8:	0e 94 45 1a 	call	0x348a	; 0x348a <DIO_enumSetPINDirection>
	DIO_enumSetPINDirection (CLCD_CONTROL_PORT,CLCD_RW,DIO_OUTPUT);
    3cec:	83 e0       	ldi	r24, 0x03	; 3
    3cee:	61 e0       	ldi	r22, 0x01	; 1
    3cf0:	41 e0       	ldi	r20, 0x01	; 1
    3cf2:	0e 94 45 1a 	call	0x348a	; 0x348a <DIO_enumSetPINDirection>
	DIO_enumSetPINDirection (CLCD_CONTROL_PORT,CLCD_EN,DIO_OUTPUT);
    3cf6:	83 e0       	ldi	r24, 0x03	; 3
    3cf8:	62 e0       	ldi	r22, 0x02	; 2
    3cfa:	41 e0       	ldi	r20, 0x01	; 1
    3cfc:	0e 94 45 1a 	call	0x348a	; 0x348a <DIO_enumSetPINDirection>
    3d00:	80 e0       	ldi	r24, 0x00	; 0
    3d02:	90 e0       	ldi	r25, 0x00	; 0
    3d04:	a8 e4       	ldi	r26, 0x48	; 72
    3d06:	b2 e4       	ldi	r27, 0x42	; 66
    3d08:	8d ab       	std	Y+53, r24	; 0x35
    3d0a:	9e ab       	std	Y+54, r25	; 0x36
    3d0c:	af ab       	std	Y+55, r26	; 0x37
    3d0e:	b8 af       	std	Y+56, r27	; 0x38
 */
void
_delay_ms(double __ms)
{
	uint16_t __ticks;
	double __tmp = ((F_CPU) / 4e3) * __ms;
    3d10:	6d a9       	ldd	r22, Y+53	; 0x35
    3d12:	7e a9       	ldd	r23, Y+54	; 0x36
    3d14:	8f a9       	ldd	r24, Y+55	; 0x37
    3d16:	98 ad       	ldd	r25, Y+56	; 0x38
    3d18:	20 e0       	ldi	r18, 0x00	; 0
    3d1a:	30 e0       	ldi	r19, 0x00	; 0
    3d1c:	4a ef       	ldi	r20, 0xFA	; 250
    3d1e:	54 e4       	ldi	r21, 0x44	; 68
    3d20:	0e 94 7b 0f 	call	0x1ef6	; 0x1ef6 <__mulsf3>
    3d24:	dc 01       	movw	r26, r24
    3d26:	cb 01       	movw	r24, r22
    3d28:	89 ab       	std	Y+49, r24	; 0x31
    3d2a:	9a ab       	std	Y+50, r25	; 0x32
    3d2c:	ab ab       	std	Y+51, r26	; 0x33
    3d2e:	bc ab       	std	Y+52, r27	; 0x34
	if (__tmp < 1.0)
    3d30:	69 a9       	ldd	r22, Y+49	; 0x31
    3d32:	7a a9       	ldd	r23, Y+50	; 0x32
    3d34:	8b a9       	ldd	r24, Y+51	; 0x33
    3d36:	9c a9       	ldd	r25, Y+52	; 0x34
    3d38:	20 e0       	ldi	r18, 0x00	; 0
    3d3a:	30 e0       	ldi	r19, 0x00	; 0
    3d3c:	40 e8       	ldi	r20, 0x80	; 128
    3d3e:	5f e3       	ldi	r21, 0x3F	; 63
    3d40:	0e 94 d5 10 	call	0x21aa	; 0x21aa <__ltsf2>
    3d44:	88 23       	and	r24, r24
    3d46:	2c f4       	brge	.+10     	; 0x3d52 <CLCD_voidInit+0x8c>
		__ticks = 1;
    3d48:	81 e0       	ldi	r24, 0x01	; 1
    3d4a:	90 e0       	ldi	r25, 0x00	; 0
    3d4c:	98 ab       	std	Y+48, r25	; 0x30
    3d4e:	8f a7       	std	Y+47, r24	; 0x2f
    3d50:	3f c0       	rjmp	.+126    	; 0x3dd0 <CLCD_voidInit+0x10a>
	else if (__tmp > 65535)
    3d52:	69 a9       	ldd	r22, Y+49	; 0x31
    3d54:	7a a9       	ldd	r23, Y+50	; 0x32
    3d56:	8b a9       	ldd	r24, Y+51	; 0x33
    3d58:	9c a9       	ldd	r25, Y+52	; 0x34
    3d5a:	20 e0       	ldi	r18, 0x00	; 0
    3d5c:	3f ef       	ldi	r19, 0xFF	; 255
    3d5e:	4f e7       	ldi	r20, 0x7F	; 127
    3d60:	57 e4       	ldi	r21, 0x47	; 71
    3d62:	0e 94 75 10 	call	0x20ea	; 0x20ea <__gtsf2>
    3d66:	18 16       	cp	r1, r24
    3d68:	4c f5       	brge	.+82     	; 0x3dbc <CLCD_voidInit+0xf6>
	{
		//	__ticks = requested delay in 1/10 ms
		__ticks = (uint16_t) (__ms * 10.0);
    3d6a:	6d a9       	ldd	r22, Y+53	; 0x35
    3d6c:	7e a9       	ldd	r23, Y+54	; 0x36
    3d6e:	8f a9       	ldd	r24, Y+55	; 0x37
    3d70:	98 ad       	ldd	r25, Y+56	; 0x38
    3d72:	20 e0       	ldi	r18, 0x00	; 0
    3d74:	30 e0       	ldi	r19, 0x00	; 0
    3d76:	40 e2       	ldi	r20, 0x20	; 32
    3d78:	51 e4       	ldi	r21, 0x41	; 65
    3d7a:	0e 94 7b 0f 	call	0x1ef6	; 0x1ef6 <__mulsf3>
    3d7e:	dc 01       	movw	r26, r24
    3d80:	cb 01       	movw	r24, r22
    3d82:	bc 01       	movw	r22, r24
    3d84:	cd 01       	movw	r24, r26
    3d86:	0e 94 c0 00 	call	0x180	; 0x180 <__fixunssfsi>
    3d8a:	dc 01       	movw	r26, r24
    3d8c:	cb 01       	movw	r24, r22
    3d8e:	98 ab       	std	Y+48, r25	; 0x30
    3d90:	8f a7       	std	Y+47, r24	; 0x2f
    3d92:	0f c0       	rjmp	.+30     	; 0x3db2 <CLCD_voidInit+0xec>
    3d94:	88 ec       	ldi	r24, 0xC8	; 200
    3d96:	90 e0       	ldi	r25, 0x00	; 0
    3d98:	9e a7       	std	Y+46, r25	; 0x2e
    3d9a:	8d a7       	std	Y+45, r24	; 0x2d
    3d9c:	8d a5       	ldd	r24, Y+45	; 0x2d
    3d9e:	9e a5       	ldd	r25, Y+46	; 0x2e
    3da0:	01 97       	sbiw	r24, 0x01	; 1
    3da2:	f1 f7       	brne	.-4      	; 0x3da0 <CLCD_voidInit+0xda>
    3da4:	9e a7       	std	Y+46, r25	; 0x2e
    3da6:	8d a7       	std	Y+45, r24	; 0x2d
		while(__ticks)
		{
			// wait 1/10 ms
			_delay_loop_2(((F_CPU) / 4e3) / 10);
			__ticks --;
    3da8:	8f a5       	ldd	r24, Y+47	; 0x2f
    3daa:	98 a9       	ldd	r25, Y+48	; 0x30
    3dac:	01 97       	sbiw	r24, 0x01	; 1
    3dae:	98 ab       	std	Y+48, r25	; 0x30
    3db0:	8f a7       	std	Y+47, r24	; 0x2f
		__ticks = 1;
	else if (__tmp > 65535)
	{
		//	__ticks = requested delay in 1/10 ms
		__ticks = (uint16_t) (__ms * 10.0);
		while(__ticks)
    3db2:	8f a5       	ldd	r24, Y+47	; 0x2f
    3db4:	98 a9       	ldd	r25, Y+48	; 0x30
    3db6:	00 97       	sbiw	r24, 0x00	; 0
    3db8:	69 f7       	brne	.-38     	; 0x3d94 <CLCD_voidInit+0xce>
    3dba:	14 c0       	rjmp	.+40     	; 0x3de4 <CLCD_voidInit+0x11e>
			__ticks --;
		}
		return;
	}
	else
		__ticks = (uint16_t)__tmp;
    3dbc:	69 a9       	ldd	r22, Y+49	; 0x31
    3dbe:	7a a9       	ldd	r23, Y+50	; 0x32
    3dc0:	8b a9       	ldd	r24, Y+51	; 0x33
    3dc2:	9c a9       	ldd	r25, Y+52	; 0x34
    3dc4:	0e 94 c0 00 	call	0x180	; 0x180 <__fixunssfsi>
    3dc8:	dc 01       	movw	r26, r24
    3dca:	cb 01       	movw	r24, r22
    3dcc:	98 ab       	std	Y+48, r25	; 0x30
    3dce:	8f a7       	std	Y+47, r24	; 0x2f
    3dd0:	8f a5       	ldd	r24, Y+47	; 0x2f
    3dd2:	98 a9       	ldd	r25, Y+48	; 0x30
    3dd4:	9c a7       	std	Y+44, r25	; 0x2c
    3dd6:	8b a7       	std	Y+43, r24	; 0x2b
    3dd8:	8b a5       	ldd	r24, Y+43	; 0x2b
    3dda:	9c a5       	ldd	r25, Y+44	; 0x2c
    3ddc:	01 97       	sbiw	r24, 0x01	; 1
    3dde:	f1 f7       	brne	.-4      	; 0x3ddc <CLCD_voidInit+0x116>
    3de0:	9c a7       	std	Y+44, r25	; 0x2c
    3de2:	8b a7       	std	Y+43, r24	; 0x2b
	_delay_ms(50);
	CLCD_voidSendCommand(CLCD_FUNCSET_8BIT);//Func Set
    3de4:	88 e3       	ldi	r24, 0x38	; 56
    3de6:	0e 94 6d 21 	call	0x42da	; 0x42da <CLCD_voidSendCommand>
    3dea:	80 e0       	ldi	r24, 0x00	; 0
    3dec:	90 e0       	ldi	r25, 0x00	; 0
    3dee:	a0 e8       	ldi	r26, 0x80	; 128
    3df0:	bf e3       	ldi	r27, 0x3F	; 63
    3df2:	8f a3       	std	Y+39, r24	; 0x27
    3df4:	98 a7       	std	Y+40, r25	; 0x28
    3df6:	a9 a7       	std	Y+41, r26	; 0x29
    3df8:	ba a7       	std	Y+42, r27	; 0x2a
 */
void
_delay_ms(double __ms)
{
	uint16_t __ticks;
	double __tmp = ((F_CPU) / 4e3) * __ms;
    3dfa:	6f a1       	ldd	r22, Y+39	; 0x27
    3dfc:	78 a5       	ldd	r23, Y+40	; 0x28
    3dfe:	89 a5       	ldd	r24, Y+41	; 0x29
    3e00:	9a a5       	ldd	r25, Y+42	; 0x2a
    3e02:	20 e0       	ldi	r18, 0x00	; 0
    3e04:	30 e0       	ldi	r19, 0x00	; 0
    3e06:	4a ef       	ldi	r20, 0xFA	; 250
    3e08:	54 e4       	ldi	r21, 0x44	; 68
    3e0a:	0e 94 7b 0f 	call	0x1ef6	; 0x1ef6 <__mulsf3>
    3e0e:	dc 01       	movw	r26, r24
    3e10:	cb 01       	movw	r24, r22
    3e12:	8b a3       	std	Y+35, r24	; 0x23
    3e14:	9c a3       	std	Y+36, r25	; 0x24
    3e16:	ad a3       	std	Y+37, r26	; 0x25
    3e18:	be a3       	std	Y+38, r27	; 0x26
	if (__tmp < 1.0)
    3e1a:	6b a1       	ldd	r22, Y+35	; 0x23
    3e1c:	7c a1       	ldd	r23, Y+36	; 0x24
    3e1e:	8d a1       	ldd	r24, Y+37	; 0x25
    3e20:	9e a1       	ldd	r25, Y+38	; 0x26
    3e22:	20 e0       	ldi	r18, 0x00	; 0
    3e24:	30 e0       	ldi	r19, 0x00	; 0
    3e26:	40 e8       	ldi	r20, 0x80	; 128
    3e28:	5f e3       	ldi	r21, 0x3F	; 63
    3e2a:	0e 94 d5 10 	call	0x21aa	; 0x21aa <__ltsf2>
    3e2e:	88 23       	and	r24, r24
    3e30:	2c f4       	brge	.+10     	; 0x3e3c <CLCD_voidInit+0x176>
		__ticks = 1;
    3e32:	81 e0       	ldi	r24, 0x01	; 1
    3e34:	90 e0       	ldi	r25, 0x00	; 0
    3e36:	9a a3       	std	Y+34, r25	; 0x22
    3e38:	89 a3       	std	Y+33, r24	; 0x21
    3e3a:	3f c0       	rjmp	.+126    	; 0x3eba <CLCD_voidInit+0x1f4>
	else if (__tmp > 65535)
    3e3c:	6b a1       	ldd	r22, Y+35	; 0x23
    3e3e:	7c a1       	ldd	r23, Y+36	; 0x24
    3e40:	8d a1       	ldd	r24, Y+37	; 0x25
    3e42:	9e a1       	ldd	r25, Y+38	; 0x26
    3e44:	20 e0       	ldi	r18, 0x00	; 0
    3e46:	3f ef       	ldi	r19, 0xFF	; 255
    3e48:	4f e7       	ldi	r20, 0x7F	; 127
    3e4a:	57 e4       	ldi	r21, 0x47	; 71
    3e4c:	0e 94 75 10 	call	0x20ea	; 0x20ea <__gtsf2>
    3e50:	18 16       	cp	r1, r24
    3e52:	4c f5       	brge	.+82     	; 0x3ea6 <CLCD_voidInit+0x1e0>
	{
		//	__ticks = requested delay in 1/10 ms
		__ticks = (uint16_t) (__ms * 10.0);
    3e54:	6f a1       	ldd	r22, Y+39	; 0x27
    3e56:	78 a5       	ldd	r23, Y+40	; 0x28
    3e58:	89 a5       	ldd	r24, Y+41	; 0x29
    3e5a:	9a a5       	ldd	r25, Y+42	; 0x2a
    3e5c:	20 e0       	ldi	r18, 0x00	; 0
    3e5e:	30 e0       	ldi	r19, 0x00	; 0
    3e60:	40 e2       	ldi	r20, 0x20	; 32
    3e62:	51 e4       	ldi	r21, 0x41	; 65
    3e64:	0e 94 7b 0f 	call	0x1ef6	; 0x1ef6 <__mulsf3>
    3e68:	dc 01       	movw	r26, r24
    3e6a:	cb 01       	movw	r24, r22
    3e6c:	bc 01       	movw	r22, r24
    3e6e:	cd 01       	movw	r24, r26
    3e70:	0e 94 c0 00 	call	0x180	; 0x180 <__fixunssfsi>
    3e74:	dc 01       	movw	r26, r24
    3e76:	cb 01       	movw	r24, r22
    3e78:	9a a3       	std	Y+34, r25	; 0x22
    3e7a:	89 a3       	std	Y+33, r24	; 0x21
    3e7c:	0f c0       	rjmp	.+30     	; 0x3e9c <CLCD_voidInit+0x1d6>
    3e7e:	88 ec       	ldi	r24, 0xC8	; 200
    3e80:	90 e0       	ldi	r25, 0x00	; 0
    3e82:	98 a3       	std	Y+32, r25	; 0x20
    3e84:	8f 8f       	std	Y+31, r24	; 0x1f
    3e86:	8f 8d       	ldd	r24, Y+31	; 0x1f
    3e88:	98 a1       	ldd	r25, Y+32	; 0x20
    3e8a:	01 97       	sbiw	r24, 0x01	; 1
    3e8c:	f1 f7       	brne	.-4      	; 0x3e8a <CLCD_voidInit+0x1c4>
    3e8e:	98 a3       	std	Y+32, r25	; 0x20
    3e90:	8f 8f       	std	Y+31, r24	; 0x1f
		while(__ticks)
		{
			// wait 1/10 ms
			_delay_loop_2(((F_CPU) / 4e3) / 10);
			__ticks --;
    3e92:	89 a1       	ldd	r24, Y+33	; 0x21
    3e94:	9a a1       	ldd	r25, Y+34	; 0x22
    3e96:	01 97       	sbiw	r24, 0x01	; 1
    3e98:	9a a3       	std	Y+34, r25	; 0x22
    3e9a:	89 a3       	std	Y+33, r24	; 0x21
		__ticks = 1;
	else if (__tmp > 65535)
	{
		//	__ticks = requested delay in 1/10 ms
		__ticks = (uint16_t) (__ms * 10.0);
		while(__ticks)
    3e9c:	89 a1       	ldd	r24, Y+33	; 0x21
    3e9e:	9a a1       	ldd	r25, Y+34	; 0x22
    3ea0:	00 97       	sbiw	r24, 0x00	; 0
    3ea2:	69 f7       	brne	.-38     	; 0x3e7e <CLCD_voidInit+0x1b8>
    3ea4:	14 c0       	rjmp	.+40     	; 0x3ece <CLCD_voidInit+0x208>
			__ticks --;
		}
		return;
	}
	else
		__ticks = (uint16_t)__tmp;
    3ea6:	6b a1       	ldd	r22, Y+35	; 0x23
    3ea8:	7c a1       	ldd	r23, Y+36	; 0x24
    3eaa:	8d a1       	ldd	r24, Y+37	; 0x25
    3eac:	9e a1       	ldd	r25, Y+38	; 0x26
    3eae:	0e 94 c0 00 	call	0x180	; 0x180 <__fixunssfsi>
    3eb2:	dc 01       	movw	r26, r24
    3eb4:	cb 01       	movw	r24, r22
    3eb6:	9a a3       	std	Y+34, r25	; 0x22
    3eb8:	89 a3       	std	Y+33, r24	; 0x21
    3eba:	89 a1       	ldd	r24, Y+33	; 0x21
    3ebc:	9a a1       	ldd	r25, Y+34	; 0x22
    3ebe:	9e 8f       	std	Y+30, r25	; 0x1e
    3ec0:	8d 8f       	std	Y+29, r24	; 0x1d
    3ec2:	8d 8d       	ldd	r24, Y+29	; 0x1d
    3ec4:	9e 8d       	ldd	r25, Y+30	; 0x1e
    3ec6:	01 97       	sbiw	r24, 0x01	; 1
    3ec8:	f1 f7       	brne	.-4      	; 0x3ec6 <CLCD_voidInit+0x200>
    3eca:	9e 8f       	std	Y+30, r25	; 0x1e
    3ecc:	8d 8f       	std	Y+29, r24	; 0x1d
	_delay_ms(1);
	CLCD_voidSendCommand(CLCD_DISPON_CURSOFF);//Display on and cursor off
    3ece:	8c e0       	ldi	r24, 0x0C	; 12
    3ed0:	0e 94 6d 21 	call	0x42da	; 0x42da <CLCD_voidSendCommand>
    3ed4:	80 e0       	ldi	r24, 0x00	; 0
    3ed6:	90 e0       	ldi	r25, 0x00	; 0
    3ed8:	a0 e8       	ldi	r26, 0x80	; 128
    3eda:	bf e3       	ldi	r27, 0x3F	; 63
    3edc:	89 8f       	std	Y+25, r24	; 0x19
    3ede:	9a 8f       	std	Y+26, r25	; 0x1a
    3ee0:	ab 8f       	std	Y+27, r26	; 0x1b
    3ee2:	bc 8f       	std	Y+28, r27	; 0x1c
 */
void
_delay_ms(double __ms)
{
	uint16_t __ticks;
	double __tmp = ((F_CPU) / 4e3) * __ms;
    3ee4:	69 8d       	ldd	r22, Y+25	; 0x19
    3ee6:	7a 8d       	ldd	r23, Y+26	; 0x1a
    3ee8:	8b 8d       	ldd	r24, Y+27	; 0x1b
    3eea:	9c 8d       	ldd	r25, Y+28	; 0x1c
    3eec:	20 e0       	ldi	r18, 0x00	; 0
    3eee:	30 e0       	ldi	r19, 0x00	; 0
    3ef0:	4a ef       	ldi	r20, 0xFA	; 250
    3ef2:	54 e4       	ldi	r21, 0x44	; 68
    3ef4:	0e 94 7b 0f 	call	0x1ef6	; 0x1ef6 <__mulsf3>
    3ef8:	dc 01       	movw	r26, r24
    3efa:	cb 01       	movw	r24, r22
    3efc:	8d 8b       	std	Y+21, r24	; 0x15
    3efe:	9e 8b       	std	Y+22, r25	; 0x16
    3f00:	af 8b       	std	Y+23, r26	; 0x17
    3f02:	b8 8f       	std	Y+24, r27	; 0x18
	if (__tmp < 1.0)
    3f04:	6d 89       	ldd	r22, Y+21	; 0x15
    3f06:	7e 89       	ldd	r23, Y+22	; 0x16
    3f08:	8f 89       	ldd	r24, Y+23	; 0x17
    3f0a:	98 8d       	ldd	r25, Y+24	; 0x18
    3f0c:	20 e0       	ldi	r18, 0x00	; 0
    3f0e:	30 e0       	ldi	r19, 0x00	; 0
    3f10:	40 e8       	ldi	r20, 0x80	; 128
    3f12:	5f e3       	ldi	r21, 0x3F	; 63
    3f14:	0e 94 d5 10 	call	0x21aa	; 0x21aa <__ltsf2>
    3f18:	88 23       	and	r24, r24
    3f1a:	2c f4       	brge	.+10     	; 0x3f26 <CLCD_voidInit+0x260>
		__ticks = 1;
    3f1c:	81 e0       	ldi	r24, 0x01	; 1
    3f1e:	90 e0       	ldi	r25, 0x00	; 0
    3f20:	9c 8b       	std	Y+20, r25	; 0x14
    3f22:	8b 8b       	std	Y+19, r24	; 0x13
    3f24:	3f c0       	rjmp	.+126    	; 0x3fa4 <CLCD_voidInit+0x2de>
	else if (__tmp > 65535)
    3f26:	6d 89       	ldd	r22, Y+21	; 0x15
    3f28:	7e 89       	ldd	r23, Y+22	; 0x16
    3f2a:	8f 89       	ldd	r24, Y+23	; 0x17
    3f2c:	98 8d       	ldd	r25, Y+24	; 0x18
    3f2e:	20 e0       	ldi	r18, 0x00	; 0
    3f30:	3f ef       	ldi	r19, 0xFF	; 255
    3f32:	4f e7       	ldi	r20, 0x7F	; 127
    3f34:	57 e4       	ldi	r21, 0x47	; 71
    3f36:	0e 94 75 10 	call	0x20ea	; 0x20ea <__gtsf2>
    3f3a:	18 16       	cp	r1, r24
    3f3c:	4c f5       	brge	.+82     	; 0x3f90 <CLCD_voidInit+0x2ca>
	{
		//	__ticks = requested delay in 1/10 ms
		__ticks = (uint16_t) (__ms * 10.0);
    3f3e:	69 8d       	ldd	r22, Y+25	; 0x19
    3f40:	7a 8d       	ldd	r23, Y+26	; 0x1a
    3f42:	8b 8d       	ldd	r24, Y+27	; 0x1b
    3f44:	9c 8d       	ldd	r25, Y+28	; 0x1c
    3f46:	20 e0       	ldi	r18, 0x00	; 0
    3f48:	30 e0       	ldi	r19, 0x00	; 0
    3f4a:	40 e2       	ldi	r20, 0x20	; 32
    3f4c:	51 e4       	ldi	r21, 0x41	; 65
    3f4e:	0e 94 7b 0f 	call	0x1ef6	; 0x1ef6 <__mulsf3>
    3f52:	dc 01       	movw	r26, r24
    3f54:	cb 01       	movw	r24, r22
    3f56:	bc 01       	movw	r22, r24
    3f58:	cd 01       	movw	r24, r26
    3f5a:	0e 94 c0 00 	call	0x180	; 0x180 <__fixunssfsi>
    3f5e:	dc 01       	movw	r26, r24
    3f60:	cb 01       	movw	r24, r22
    3f62:	9c 8b       	std	Y+20, r25	; 0x14
    3f64:	8b 8b       	std	Y+19, r24	; 0x13
    3f66:	0f c0       	rjmp	.+30     	; 0x3f86 <CLCD_voidInit+0x2c0>
    3f68:	88 ec       	ldi	r24, 0xC8	; 200
    3f6a:	90 e0       	ldi	r25, 0x00	; 0
    3f6c:	9a 8b       	std	Y+18, r25	; 0x12
    3f6e:	89 8b       	std	Y+17, r24	; 0x11
    3f70:	89 89       	ldd	r24, Y+17	; 0x11
    3f72:	9a 89       	ldd	r25, Y+18	; 0x12
    3f74:	01 97       	sbiw	r24, 0x01	; 1
    3f76:	f1 f7       	brne	.-4      	; 0x3f74 <CLCD_voidInit+0x2ae>
    3f78:	9a 8b       	std	Y+18, r25	; 0x12
    3f7a:	89 8b       	std	Y+17, r24	; 0x11
		while(__ticks)
		{
			// wait 1/10 ms
			_delay_loop_2(((F_CPU) / 4e3) / 10);
			__ticks --;
    3f7c:	8b 89       	ldd	r24, Y+19	; 0x13
    3f7e:	9c 89       	ldd	r25, Y+20	; 0x14
    3f80:	01 97       	sbiw	r24, 0x01	; 1
    3f82:	9c 8b       	std	Y+20, r25	; 0x14
    3f84:	8b 8b       	std	Y+19, r24	; 0x13
		__ticks = 1;
	else if (__tmp > 65535)
	{
		//	__ticks = requested delay in 1/10 ms
		__ticks = (uint16_t) (__ms * 10.0);
		while(__ticks)
    3f86:	8b 89       	ldd	r24, Y+19	; 0x13
    3f88:	9c 89       	ldd	r25, Y+20	; 0x14
    3f8a:	00 97       	sbiw	r24, 0x00	; 0
    3f8c:	69 f7       	brne	.-38     	; 0x3f68 <CLCD_voidInit+0x2a2>
    3f8e:	14 c0       	rjmp	.+40     	; 0x3fb8 <CLCD_voidInit+0x2f2>
			__ticks --;
		}
		return;
	}
	else
		__ticks = (uint16_t)__tmp;
    3f90:	6d 89       	ldd	r22, Y+21	; 0x15
    3f92:	7e 89       	ldd	r23, Y+22	; 0x16
    3f94:	8f 89       	ldd	r24, Y+23	; 0x17
    3f96:	98 8d       	ldd	r25, Y+24	; 0x18
    3f98:	0e 94 c0 00 	call	0x180	; 0x180 <__fixunssfsi>
    3f9c:	dc 01       	movw	r26, r24
    3f9e:	cb 01       	movw	r24, r22
    3fa0:	9c 8b       	std	Y+20, r25	; 0x14
    3fa2:	8b 8b       	std	Y+19, r24	; 0x13
    3fa4:	8b 89       	ldd	r24, Y+19	; 0x13
    3fa6:	9c 89       	ldd	r25, Y+20	; 0x14
    3fa8:	98 8b       	std	Y+16, r25	; 0x10
    3faa:	8f 87       	std	Y+15, r24	; 0x0f
    3fac:	8f 85       	ldd	r24, Y+15	; 0x0f
    3fae:	98 89       	ldd	r25, Y+16	; 0x10
    3fb0:	01 97       	sbiw	r24, 0x01	; 1
    3fb2:	f1 f7       	brne	.-4      	; 0x3fb0 <CLCD_voidInit+0x2ea>
    3fb4:	98 8b       	std	Y+16, r25	; 0x10
    3fb6:	8f 87       	std	Y+15, r24	; 0x0f
	_delay_ms(1);
	CLCD_voidSendCommand(CLCD_CLR);//Display clear
    3fb8:	81 e0       	ldi	r24, 0x01	; 1
    3fba:	0e 94 6d 21 	call	0x42da	; 0x42da <CLCD_voidSendCommand>
    3fbe:	80 e0       	ldi	r24, 0x00	; 0
    3fc0:	90 e0       	ldi	r25, 0x00	; 0
    3fc2:	a0 e0       	ldi	r26, 0x00	; 0
    3fc4:	b0 e4       	ldi	r27, 0x40	; 64
    3fc6:	8b 87       	std	Y+11, r24	; 0x0b
    3fc8:	9c 87       	std	Y+12, r25	; 0x0c
    3fca:	ad 87       	std	Y+13, r26	; 0x0d
    3fcc:	be 87       	std	Y+14, r27	; 0x0e
 */
void
_delay_ms(double __ms)
{
	uint16_t __ticks;
	double __tmp = ((F_CPU) / 4e3) * __ms;
    3fce:	6b 85       	ldd	r22, Y+11	; 0x0b
    3fd0:	7c 85       	ldd	r23, Y+12	; 0x0c
    3fd2:	8d 85       	ldd	r24, Y+13	; 0x0d
    3fd4:	9e 85       	ldd	r25, Y+14	; 0x0e
    3fd6:	20 e0       	ldi	r18, 0x00	; 0
    3fd8:	30 e0       	ldi	r19, 0x00	; 0
    3fda:	4a ef       	ldi	r20, 0xFA	; 250
    3fdc:	54 e4       	ldi	r21, 0x44	; 68
    3fde:	0e 94 7b 0f 	call	0x1ef6	; 0x1ef6 <__mulsf3>
    3fe2:	dc 01       	movw	r26, r24
    3fe4:	cb 01       	movw	r24, r22
    3fe6:	8f 83       	std	Y+7, r24	; 0x07
    3fe8:	98 87       	std	Y+8, r25	; 0x08
    3fea:	a9 87       	std	Y+9, r26	; 0x09
    3fec:	ba 87       	std	Y+10, r27	; 0x0a
	if (__tmp < 1.0)
    3fee:	6f 81       	ldd	r22, Y+7	; 0x07
    3ff0:	78 85       	ldd	r23, Y+8	; 0x08
    3ff2:	89 85       	ldd	r24, Y+9	; 0x09
    3ff4:	9a 85       	ldd	r25, Y+10	; 0x0a
    3ff6:	20 e0       	ldi	r18, 0x00	; 0
    3ff8:	30 e0       	ldi	r19, 0x00	; 0
    3ffa:	40 e8       	ldi	r20, 0x80	; 128
    3ffc:	5f e3       	ldi	r21, 0x3F	; 63
    3ffe:	0e 94 d5 10 	call	0x21aa	; 0x21aa <__ltsf2>
    4002:	88 23       	and	r24, r24
    4004:	2c f4       	brge	.+10     	; 0x4010 <CLCD_voidInit+0x34a>
		__ticks = 1;
    4006:	81 e0       	ldi	r24, 0x01	; 1
    4008:	90 e0       	ldi	r25, 0x00	; 0
    400a:	9e 83       	std	Y+6, r25	; 0x06
    400c:	8d 83       	std	Y+5, r24	; 0x05
    400e:	3f c0       	rjmp	.+126    	; 0x408e <CLCD_voidInit+0x3c8>
	else if (__tmp > 65535)
    4010:	6f 81       	ldd	r22, Y+7	; 0x07
    4012:	78 85       	ldd	r23, Y+8	; 0x08
    4014:	89 85       	ldd	r24, Y+9	; 0x09
    4016:	9a 85       	ldd	r25, Y+10	; 0x0a
    4018:	20 e0       	ldi	r18, 0x00	; 0
    401a:	3f ef       	ldi	r19, 0xFF	; 255
    401c:	4f e7       	ldi	r20, 0x7F	; 127
    401e:	57 e4       	ldi	r21, 0x47	; 71
    4020:	0e 94 75 10 	call	0x20ea	; 0x20ea <__gtsf2>
    4024:	18 16       	cp	r1, r24
    4026:	4c f5       	brge	.+82     	; 0x407a <CLCD_voidInit+0x3b4>
	{
		//	__ticks = requested delay in 1/10 ms
		__ticks = (uint16_t) (__ms * 10.0);
    4028:	6b 85       	ldd	r22, Y+11	; 0x0b
    402a:	7c 85       	ldd	r23, Y+12	; 0x0c
    402c:	8d 85       	ldd	r24, Y+13	; 0x0d
    402e:	9e 85       	ldd	r25, Y+14	; 0x0e
    4030:	20 e0       	ldi	r18, 0x00	; 0
    4032:	30 e0       	ldi	r19, 0x00	; 0
    4034:	40 e2       	ldi	r20, 0x20	; 32
    4036:	51 e4       	ldi	r21, 0x41	; 65
    4038:	0e 94 7b 0f 	call	0x1ef6	; 0x1ef6 <__mulsf3>
    403c:	dc 01       	movw	r26, r24
    403e:	cb 01       	movw	r24, r22
    4040:	bc 01       	movw	r22, r24
    4042:	cd 01       	movw	r24, r26
    4044:	0e 94 c0 00 	call	0x180	; 0x180 <__fixunssfsi>
    4048:	dc 01       	movw	r26, r24
    404a:	cb 01       	movw	r24, r22
    404c:	9e 83       	std	Y+6, r25	; 0x06
    404e:	8d 83       	std	Y+5, r24	; 0x05
    4050:	0f c0       	rjmp	.+30     	; 0x4070 <CLCD_voidInit+0x3aa>
    4052:	88 ec       	ldi	r24, 0xC8	; 200
    4054:	90 e0       	ldi	r25, 0x00	; 0
    4056:	9c 83       	std	Y+4, r25	; 0x04
    4058:	8b 83       	std	Y+3, r24	; 0x03
    405a:	8b 81       	ldd	r24, Y+3	; 0x03
    405c:	9c 81       	ldd	r25, Y+4	; 0x04
    405e:	01 97       	sbiw	r24, 0x01	; 1
    4060:	f1 f7       	brne	.-4      	; 0x405e <CLCD_voidInit+0x398>
    4062:	9c 83       	std	Y+4, r25	; 0x04
    4064:	8b 83       	std	Y+3, r24	; 0x03
		while(__ticks)
		{
			// wait 1/10 ms
			_delay_loop_2(((F_CPU) / 4e3) / 10);
			__ticks --;
    4066:	8d 81       	ldd	r24, Y+5	; 0x05
    4068:	9e 81       	ldd	r25, Y+6	; 0x06
    406a:	01 97       	sbiw	r24, 0x01	; 1
    406c:	9e 83       	std	Y+6, r25	; 0x06
    406e:	8d 83       	std	Y+5, r24	; 0x05
		__ticks = 1;
	else if (__tmp > 65535)
	{
		//	__ticks = requested delay in 1/10 ms
		__ticks = (uint16_t) (__ms * 10.0);
		while(__ticks)
    4070:	8d 81       	ldd	r24, Y+5	; 0x05
    4072:	9e 81       	ldd	r25, Y+6	; 0x06
    4074:	00 97       	sbiw	r24, 0x00	; 0
    4076:	69 f7       	brne	.-38     	; 0x4052 <CLCD_voidInit+0x38c>
    4078:	14 c0       	rjmp	.+40     	; 0x40a2 <CLCD_voidInit+0x3dc>
			__ticks --;
		}
		return;
	}
	else
		__ticks = (uint16_t)__tmp;
    407a:	6f 81       	ldd	r22, Y+7	; 0x07
    407c:	78 85       	ldd	r23, Y+8	; 0x08
    407e:	89 85       	ldd	r24, Y+9	; 0x09
    4080:	9a 85       	ldd	r25, Y+10	; 0x0a
    4082:	0e 94 c0 00 	call	0x180	; 0x180 <__fixunssfsi>
    4086:	dc 01       	movw	r26, r24
    4088:	cb 01       	movw	r24, r22
    408a:	9e 83       	std	Y+6, r25	; 0x06
    408c:	8d 83       	std	Y+5, r24	; 0x05
    408e:	8d 81       	ldd	r24, Y+5	; 0x05
    4090:	9e 81       	ldd	r25, Y+6	; 0x06
    4092:	9a 83       	std	Y+2, r25	; 0x02
    4094:	89 83       	std	Y+1, r24	; 0x01
    4096:	89 81       	ldd	r24, Y+1	; 0x01
    4098:	9a 81       	ldd	r25, Y+2	; 0x02
    409a:	01 97       	sbiw	r24, 0x01	; 1
    409c:	f1 f7       	brne	.-4      	; 0x409a <CLCD_voidInit+0x3d4>
    409e:	9a 83       	std	Y+2, r25	; 0x02
    40a0:	89 83       	std	Y+1, r24	; 0x01
	_delay_ms(2);
	CLCD_voidSendCommand(CLCD_ENTRYMODE);//Entry Mode no shift
    40a2:	86 e0       	ldi	r24, 0x06	; 6
    40a4:	0e 94 6d 21 	call	0x42da	; 0x42da <CLCD_voidSendCommand>





}
    40a8:	e8 96       	adiw	r28, 0x38	; 56
    40aa:	0f b6       	in	r0, 0x3f	; 63
    40ac:	f8 94       	cli
    40ae:	de bf       	out	0x3e, r29	; 62
    40b0:	0f be       	out	0x3f, r0	; 63
    40b2:	cd bf       	out	0x3d, r28	; 61
    40b4:	cf 91       	pop	r28
    40b6:	df 91       	pop	r29
    40b8:	08 95       	ret

000040ba <CLCD_voidSendChar>:
void CLCD_voidSendChar		(u8 Copy_u8Data)
{
    40ba:	df 93       	push	r29
    40bc:	cf 93       	push	r28
    40be:	cd b7       	in	r28, 0x3d	; 61
    40c0:	de b7       	in	r29, 0x3e	; 62
    40c2:	6d 97       	sbiw	r28, 0x1d	; 29
    40c4:	0f b6       	in	r0, 0x3f	; 63
    40c6:	f8 94       	cli
    40c8:	de bf       	out	0x3e, r29	; 62
    40ca:	0f be       	out	0x3f, r0	; 63
    40cc:	cd bf       	out	0x3d, r28	; 61
    40ce:	8d 8f       	std	Y+29, r24	; 0x1d

	DIO_enumSetPortValue(CLCD_DATA_PORT,Copy_u8Data);
    40d0:	81 e0       	ldi	r24, 0x01	; 1
    40d2:	6d 8d       	ldd	r22, Y+29	; 0x1d
    40d4:	0e 94 fc 19 	call	0x33f8	; 0x33f8 <DIO_enumSetPortValue>
	DIO_enumSetPINValue(CLCD_CONTROL_PORT,CLCD_RS,DIO_HIGH);
    40d8:	83 e0       	ldi	r24, 0x03	; 3
    40da:	60 e0       	ldi	r22, 0x00	; 0
    40dc:	41 e0       	ldi	r20, 0x01	; 1
    40de:	0e 94 49 1b 	call	0x3692	; 0x3692 <DIO_enumSetPINValue>
	DIO_enumSetPINValue(CLCD_CONTROL_PORT,CLCD_RW,DIO_LOW);
    40e2:	83 e0       	ldi	r24, 0x03	; 3
    40e4:	61 e0       	ldi	r22, 0x01	; 1
    40e6:	40 e0       	ldi	r20, 0x00	; 0
    40e8:	0e 94 49 1b 	call	0x3692	; 0x3692 <DIO_enumSetPINValue>

	DIO_enumSetPINValue(CLCD_CONTROL_PORT,CLCD_EN,DIO_HIGH);
    40ec:	83 e0       	ldi	r24, 0x03	; 3
    40ee:	62 e0       	ldi	r22, 0x02	; 2
    40f0:	41 e0       	ldi	r20, 0x01	; 1
    40f2:	0e 94 49 1b 	call	0x3692	; 0x3692 <DIO_enumSetPINValue>
    40f6:	80 e0       	ldi	r24, 0x00	; 0
    40f8:	90 e0       	ldi	r25, 0x00	; 0
    40fa:	a0 e8       	ldi	r26, 0x80	; 128
    40fc:	bf e3       	ldi	r27, 0x3F	; 63
    40fe:	89 8f       	std	Y+25, r24	; 0x19
    4100:	9a 8f       	std	Y+26, r25	; 0x1a
    4102:	ab 8f       	std	Y+27, r26	; 0x1b
    4104:	bc 8f       	std	Y+28, r27	; 0x1c
 */
void
_delay_ms(double __ms)
{
	uint16_t __ticks;
	double __tmp = ((F_CPU) / 4e3) * __ms;
    4106:	69 8d       	ldd	r22, Y+25	; 0x19
    4108:	7a 8d       	ldd	r23, Y+26	; 0x1a
    410a:	8b 8d       	ldd	r24, Y+27	; 0x1b
    410c:	9c 8d       	ldd	r25, Y+28	; 0x1c
    410e:	20 e0       	ldi	r18, 0x00	; 0
    4110:	30 e0       	ldi	r19, 0x00	; 0
    4112:	4a ef       	ldi	r20, 0xFA	; 250
    4114:	54 e4       	ldi	r21, 0x44	; 68
    4116:	0e 94 7b 0f 	call	0x1ef6	; 0x1ef6 <__mulsf3>
    411a:	dc 01       	movw	r26, r24
    411c:	cb 01       	movw	r24, r22
    411e:	8d 8b       	std	Y+21, r24	; 0x15
    4120:	9e 8b       	std	Y+22, r25	; 0x16
    4122:	af 8b       	std	Y+23, r26	; 0x17
    4124:	b8 8f       	std	Y+24, r27	; 0x18
	if (__tmp < 1.0)
    4126:	6d 89       	ldd	r22, Y+21	; 0x15
    4128:	7e 89       	ldd	r23, Y+22	; 0x16
    412a:	8f 89       	ldd	r24, Y+23	; 0x17
    412c:	98 8d       	ldd	r25, Y+24	; 0x18
    412e:	20 e0       	ldi	r18, 0x00	; 0
    4130:	30 e0       	ldi	r19, 0x00	; 0
    4132:	40 e8       	ldi	r20, 0x80	; 128
    4134:	5f e3       	ldi	r21, 0x3F	; 63
    4136:	0e 94 d5 10 	call	0x21aa	; 0x21aa <__ltsf2>
    413a:	88 23       	and	r24, r24
    413c:	2c f4       	brge	.+10     	; 0x4148 <CLCD_voidSendChar+0x8e>
		__ticks = 1;
    413e:	81 e0       	ldi	r24, 0x01	; 1
    4140:	90 e0       	ldi	r25, 0x00	; 0
    4142:	9c 8b       	std	Y+20, r25	; 0x14
    4144:	8b 8b       	std	Y+19, r24	; 0x13
    4146:	3f c0       	rjmp	.+126    	; 0x41c6 <CLCD_voidSendChar+0x10c>
	else if (__tmp > 65535)
    4148:	6d 89       	ldd	r22, Y+21	; 0x15
    414a:	7e 89       	ldd	r23, Y+22	; 0x16
    414c:	8f 89       	ldd	r24, Y+23	; 0x17
    414e:	98 8d       	ldd	r25, Y+24	; 0x18
    4150:	20 e0       	ldi	r18, 0x00	; 0
    4152:	3f ef       	ldi	r19, 0xFF	; 255
    4154:	4f e7       	ldi	r20, 0x7F	; 127
    4156:	57 e4       	ldi	r21, 0x47	; 71
    4158:	0e 94 75 10 	call	0x20ea	; 0x20ea <__gtsf2>
    415c:	18 16       	cp	r1, r24
    415e:	4c f5       	brge	.+82     	; 0x41b2 <CLCD_voidSendChar+0xf8>
	{
		//	__ticks = requested delay in 1/10 ms
		__ticks = (uint16_t) (__ms * 10.0);
    4160:	69 8d       	ldd	r22, Y+25	; 0x19
    4162:	7a 8d       	ldd	r23, Y+26	; 0x1a
    4164:	8b 8d       	ldd	r24, Y+27	; 0x1b
    4166:	9c 8d       	ldd	r25, Y+28	; 0x1c
    4168:	20 e0       	ldi	r18, 0x00	; 0
    416a:	30 e0       	ldi	r19, 0x00	; 0
    416c:	40 e2       	ldi	r20, 0x20	; 32
    416e:	51 e4       	ldi	r21, 0x41	; 65
    4170:	0e 94 7b 0f 	call	0x1ef6	; 0x1ef6 <__mulsf3>
    4174:	dc 01       	movw	r26, r24
    4176:	cb 01       	movw	r24, r22
    4178:	bc 01       	movw	r22, r24
    417a:	cd 01       	movw	r24, r26
    417c:	0e 94 c0 00 	call	0x180	; 0x180 <__fixunssfsi>
    4180:	dc 01       	movw	r26, r24
    4182:	cb 01       	movw	r24, r22
    4184:	9c 8b       	std	Y+20, r25	; 0x14
    4186:	8b 8b       	std	Y+19, r24	; 0x13
    4188:	0f c0       	rjmp	.+30     	; 0x41a8 <CLCD_voidSendChar+0xee>
    418a:	88 ec       	ldi	r24, 0xC8	; 200
    418c:	90 e0       	ldi	r25, 0x00	; 0
    418e:	9a 8b       	std	Y+18, r25	; 0x12
    4190:	89 8b       	std	Y+17, r24	; 0x11
    4192:	89 89       	ldd	r24, Y+17	; 0x11
    4194:	9a 89       	ldd	r25, Y+18	; 0x12
    4196:	01 97       	sbiw	r24, 0x01	; 1
    4198:	f1 f7       	brne	.-4      	; 0x4196 <CLCD_voidSendChar+0xdc>
    419a:	9a 8b       	std	Y+18, r25	; 0x12
    419c:	89 8b       	std	Y+17, r24	; 0x11
		while(__ticks)
		{
			// wait 1/10 ms
			_delay_loop_2(((F_CPU) / 4e3) / 10);
			__ticks --;
    419e:	8b 89       	ldd	r24, Y+19	; 0x13
    41a0:	9c 89       	ldd	r25, Y+20	; 0x14
    41a2:	01 97       	sbiw	r24, 0x01	; 1
    41a4:	9c 8b       	std	Y+20, r25	; 0x14
    41a6:	8b 8b       	std	Y+19, r24	; 0x13
		__ticks = 1;
	else if (__tmp > 65535)
	{
		//	__ticks = requested delay in 1/10 ms
		__ticks = (uint16_t) (__ms * 10.0);
		while(__ticks)
    41a8:	8b 89       	ldd	r24, Y+19	; 0x13
    41aa:	9c 89       	ldd	r25, Y+20	; 0x14
    41ac:	00 97       	sbiw	r24, 0x00	; 0
    41ae:	69 f7       	brne	.-38     	; 0x418a <CLCD_voidSendChar+0xd0>
    41b0:	14 c0       	rjmp	.+40     	; 0x41da <CLCD_voidSendChar+0x120>
			__ticks --;
		}
		return;
	}
	else
		__ticks = (uint16_t)__tmp;
    41b2:	6d 89       	ldd	r22, Y+21	; 0x15
    41b4:	7e 89       	ldd	r23, Y+22	; 0x16
    41b6:	8f 89       	ldd	r24, Y+23	; 0x17
    41b8:	98 8d       	ldd	r25, Y+24	; 0x18
    41ba:	0e 94 c0 00 	call	0x180	; 0x180 <__fixunssfsi>
    41be:	dc 01       	movw	r26, r24
    41c0:	cb 01       	movw	r24, r22
    41c2:	9c 8b       	std	Y+20, r25	; 0x14
    41c4:	8b 8b       	std	Y+19, r24	; 0x13
    41c6:	8b 89       	ldd	r24, Y+19	; 0x13
    41c8:	9c 89       	ldd	r25, Y+20	; 0x14
    41ca:	98 8b       	std	Y+16, r25	; 0x10
    41cc:	8f 87       	std	Y+15, r24	; 0x0f
    41ce:	8f 85       	ldd	r24, Y+15	; 0x0f
    41d0:	98 89       	ldd	r25, Y+16	; 0x10
    41d2:	01 97       	sbiw	r24, 0x01	; 1
    41d4:	f1 f7       	brne	.-4      	; 0x41d2 <CLCD_voidSendChar+0x118>
    41d6:	98 8b       	std	Y+16, r25	; 0x10
    41d8:	8f 87       	std	Y+15, r24	; 0x0f
	_delay_ms(1);
	DIO_enumSetPINValue(CLCD_CONTROL_PORT,CLCD_EN,DIO_LOW);
    41da:	83 e0       	ldi	r24, 0x03	; 3
    41dc:	62 e0       	ldi	r22, 0x02	; 2
    41de:	40 e0       	ldi	r20, 0x00	; 0
    41e0:	0e 94 49 1b 	call	0x3692	; 0x3692 <DIO_enumSetPINValue>
    41e4:	80 e0       	ldi	r24, 0x00	; 0
    41e6:	90 e0       	ldi	r25, 0x00	; 0
    41e8:	a0 e8       	ldi	r26, 0x80	; 128
    41ea:	bf e3       	ldi	r27, 0x3F	; 63
    41ec:	8b 87       	std	Y+11, r24	; 0x0b
    41ee:	9c 87       	std	Y+12, r25	; 0x0c
    41f0:	ad 87       	std	Y+13, r26	; 0x0d
    41f2:	be 87       	std	Y+14, r27	; 0x0e
 */
void
_delay_ms(double __ms)
{
	uint16_t __ticks;
	double __tmp = ((F_CPU) / 4e3) * __ms;
    41f4:	6b 85       	ldd	r22, Y+11	; 0x0b
    41f6:	7c 85       	ldd	r23, Y+12	; 0x0c
    41f8:	8d 85       	ldd	r24, Y+13	; 0x0d
    41fa:	9e 85       	ldd	r25, Y+14	; 0x0e
    41fc:	20 e0       	ldi	r18, 0x00	; 0
    41fe:	30 e0       	ldi	r19, 0x00	; 0
    4200:	4a ef       	ldi	r20, 0xFA	; 250
    4202:	54 e4       	ldi	r21, 0x44	; 68
    4204:	0e 94 7b 0f 	call	0x1ef6	; 0x1ef6 <__mulsf3>
    4208:	dc 01       	movw	r26, r24
    420a:	cb 01       	movw	r24, r22
    420c:	8f 83       	std	Y+7, r24	; 0x07
    420e:	98 87       	std	Y+8, r25	; 0x08
    4210:	a9 87       	std	Y+9, r26	; 0x09
    4212:	ba 87       	std	Y+10, r27	; 0x0a
	if (__tmp < 1.0)
    4214:	6f 81       	ldd	r22, Y+7	; 0x07
    4216:	78 85       	ldd	r23, Y+8	; 0x08
    4218:	89 85       	ldd	r24, Y+9	; 0x09
    421a:	9a 85       	ldd	r25, Y+10	; 0x0a
    421c:	20 e0       	ldi	r18, 0x00	; 0
    421e:	30 e0       	ldi	r19, 0x00	; 0
    4220:	40 e8       	ldi	r20, 0x80	; 128
    4222:	5f e3       	ldi	r21, 0x3F	; 63
    4224:	0e 94 d5 10 	call	0x21aa	; 0x21aa <__ltsf2>
    4228:	88 23       	and	r24, r24
    422a:	2c f4       	brge	.+10     	; 0x4236 <CLCD_voidSendChar+0x17c>
		__ticks = 1;
    422c:	81 e0       	ldi	r24, 0x01	; 1
    422e:	90 e0       	ldi	r25, 0x00	; 0
    4230:	9e 83       	std	Y+6, r25	; 0x06
    4232:	8d 83       	std	Y+5, r24	; 0x05
    4234:	3f c0       	rjmp	.+126    	; 0x42b4 <CLCD_voidSendChar+0x1fa>
	else if (__tmp > 65535)
    4236:	6f 81       	ldd	r22, Y+7	; 0x07
    4238:	78 85       	ldd	r23, Y+8	; 0x08
    423a:	89 85       	ldd	r24, Y+9	; 0x09
    423c:	9a 85       	ldd	r25, Y+10	; 0x0a
    423e:	20 e0       	ldi	r18, 0x00	; 0
    4240:	3f ef       	ldi	r19, 0xFF	; 255
    4242:	4f e7       	ldi	r20, 0x7F	; 127
    4244:	57 e4       	ldi	r21, 0x47	; 71
    4246:	0e 94 75 10 	call	0x20ea	; 0x20ea <__gtsf2>
    424a:	18 16       	cp	r1, r24
    424c:	4c f5       	brge	.+82     	; 0x42a0 <CLCD_voidSendChar+0x1e6>
	{
		//	__ticks = requested delay in 1/10 ms
		__ticks = (uint16_t) (__ms * 10.0);
    424e:	6b 85       	ldd	r22, Y+11	; 0x0b
    4250:	7c 85       	ldd	r23, Y+12	; 0x0c
    4252:	8d 85       	ldd	r24, Y+13	; 0x0d
    4254:	9e 85       	ldd	r25, Y+14	; 0x0e
    4256:	20 e0       	ldi	r18, 0x00	; 0
    4258:	30 e0       	ldi	r19, 0x00	; 0
    425a:	40 e2       	ldi	r20, 0x20	; 32
    425c:	51 e4       	ldi	r21, 0x41	; 65
    425e:	0e 94 7b 0f 	call	0x1ef6	; 0x1ef6 <__mulsf3>
    4262:	dc 01       	movw	r26, r24
    4264:	cb 01       	movw	r24, r22
    4266:	bc 01       	movw	r22, r24
    4268:	cd 01       	movw	r24, r26
    426a:	0e 94 c0 00 	call	0x180	; 0x180 <__fixunssfsi>
    426e:	dc 01       	movw	r26, r24
    4270:	cb 01       	movw	r24, r22
    4272:	9e 83       	std	Y+6, r25	; 0x06
    4274:	8d 83       	std	Y+5, r24	; 0x05
    4276:	0f c0       	rjmp	.+30     	; 0x4296 <CLCD_voidSendChar+0x1dc>
    4278:	88 ec       	ldi	r24, 0xC8	; 200
    427a:	90 e0       	ldi	r25, 0x00	; 0
    427c:	9c 83       	std	Y+4, r25	; 0x04
    427e:	8b 83       	std	Y+3, r24	; 0x03
    4280:	8b 81       	ldd	r24, Y+3	; 0x03
    4282:	9c 81       	ldd	r25, Y+4	; 0x04
    4284:	01 97       	sbiw	r24, 0x01	; 1
    4286:	f1 f7       	brne	.-4      	; 0x4284 <CLCD_voidSendChar+0x1ca>
    4288:	9c 83       	std	Y+4, r25	; 0x04
    428a:	8b 83       	std	Y+3, r24	; 0x03
		while(__ticks)
		{
			// wait 1/10 ms
			_delay_loop_2(((F_CPU) / 4e3) / 10);
			__ticks --;
    428c:	8d 81       	ldd	r24, Y+5	; 0x05
    428e:	9e 81       	ldd	r25, Y+6	; 0x06
    4290:	01 97       	sbiw	r24, 0x01	; 1
    4292:	9e 83       	std	Y+6, r25	; 0x06
    4294:	8d 83       	std	Y+5, r24	; 0x05
		__ticks = 1;
	else if (__tmp > 65535)
	{
		//	__ticks = requested delay in 1/10 ms
		__ticks = (uint16_t) (__ms * 10.0);
		while(__ticks)
    4296:	8d 81       	ldd	r24, Y+5	; 0x05
    4298:	9e 81       	ldd	r25, Y+6	; 0x06
    429a:	00 97       	sbiw	r24, 0x00	; 0
    429c:	69 f7       	brne	.-38     	; 0x4278 <CLCD_voidSendChar+0x1be>
    429e:	14 c0       	rjmp	.+40     	; 0x42c8 <CLCD_voidSendChar+0x20e>
			__ticks --;
		}
		return;
	}
	else
		__ticks = (uint16_t)__tmp;
    42a0:	6f 81       	ldd	r22, Y+7	; 0x07
    42a2:	78 85       	ldd	r23, Y+8	; 0x08
    42a4:	89 85       	ldd	r24, Y+9	; 0x09
    42a6:	9a 85       	ldd	r25, Y+10	; 0x0a
    42a8:	0e 94 c0 00 	call	0x180	; 0x180 <__fixunssfsi>
    42ac:	dc 01       	movw	r26, r24
    42ae:	cb 01       	movw	r24, r22
    42b0:	9e 83       	std	Y+6, r25	; 0x06
    42b2:	8d 83       	std	Y+5, r24	; 0x05
    42b4:	8d 81       	ldd	r24, Y+5	; 0x05
    42b6:	9e 81       	ldd	r25, Y+6	; 0x06
    42b8:	9a 83       	std	Y+2, r25	; 0x02
    42ba:	89 83       	std	Y+1, r24	; 0x01
    42bc:	89 81       	ldd	r24, Y+1	; 0x01
    42be:	9a 81       	ldd	r25, Y+2	; 0x02
    42c0:	01 97       	sbiw	r24, 0x01	; 1
    42c2:	f1 f7       	brne	.-4      	; 0x42c0 <CLCD_voidSendChar+0x206>
    42c4:	9a 83       	std	Y+2, r25	; 0x02
    42c6:	89 83       	std	Y+1, r24	; 0x01
	_delay_ms(1);


}
    42c8:	6d 96       	adiw	r28, 0x1d	; 29
    42ca:	0f b6       	in	r0, 0x3f	; 63
    42cc:	f8 94       	cli
    42ce:	de bf       	out	0x3e, r29	; 62
    42d0:	0f be       	out	0x3f, r0	; 63
    42d2:	cd bf       	out	0x3d, r28	; 61
    42d4:	cf 91       	pop	r28
    42d6:	df 91       	pop	r29
    42d8:	08 95       	ret

000042da <CLCD_voidSendCommand>:
void CLCD_voidSendCommand	(u8 Copy_u8Command)
{
    42da:	df 93       	push	r29
    42dc:	cf 93       	push	r28
    42de:	cd b7       	in	r28, 0x3d	; 61
    42e0:	de b7       	in	r29, 0x3e	; 62
    42e2:	6d 97       	sbiw	r28, 0x1d	; 29
    42e4:	0f b6       	in	r0, 0x3f	; 63
    42e6:	f8 94       	cli
    42e8:	de bf       	out	0x3e, r29	; 62
    42ea:	0f be       	out	0x3f, r0	; 63
    42ec:	cd bf       	out	0x3d, r28	; 61
    42ee:	8d 8f       	std	Y+29, r24	; 0x1d
	DIO_enumSetPortValue(CLCD_DATA_PORT,Copy_u8Command);
    42f0:	81 e0       	ldi	r24, 0x01	; 1
    42f2:	6d 8d       	ldd	r22, Y+29	; 0x1d
    42f4:	0e 94 fc 19 	call	0x33f8	; 0x33f8 <DIO_enumSetPortValue>
	DIO_enumSetPINValue(CLCD_CONTROL_PORT,CLCD_RS,DIO_LOW);
    42f8:	83 e0       	ldi	r24, 0x03	; 3
    42fa:	60 e0       	ldi	r22, 0x00	; 0
    42fc:	40 e0       	ldi	r20, 0x00	; 0
    42fe:	0e 94 49 1b 	call	0x3692	; 0x3692 <DIO_enumSetPINValue>
	DIO_enumSetPINValue(CLCD_CONTROL_PORT,CLCD_RW,DIO_LOW);
    4302:	83 e0       	ldi	r24, 0x03	; 3
    4304:	61 e0       	ldi	r22, 0x01	; 1
    4306:	40 e0       	ldi	r20, 0x00	; 0
    4308:	0e 94 49 1b 	call	0x3692	; 0x3692 <DIO_enumSetPINValue>

	DIO_enumSetPINValue(CLCD_CONTROL_PORT,CLCD_EN,DIO_HIGH);
    430c:	83 e0       	ldi	r24, 0x03	; 3
    430e:	62 e0       	ldi	r22, 0x02	; 2
    4310:	41 e0       	ldi	r20, 0x01	; 1
    4312:	0e 94 49 1b 	call	0x3692	; 0x3692 <DIO_enumSetPINValue>
    4316:	80 e0       	ldi	r24, 0x00	; 0
    4318:	90 e0       	ldi	r25, 0x00	; 0
    431a:	a0 e8       	ldi	r26, 0x80	; 128
    431c:	bf e3       	ldi	r27, 0x3F	; 63
    431e:	89 8f       	std	Y+25, r24	; 0x19
    4320:	9a 8f       	std	Y+26, r25	; 0x1a
    4322:	ab 8f       	std	Y+27, r26	; 0x1b
    4324:	bc 8f       	std	Y+28, r27	; 0x1c
 */
void
_delay_ms(double __ms)
{
	uint16_t __ticks;
	double __tmp = ((F_CPU) / 4e3) * __ms;
    4326:	69 8d       	ldd	r22, Y+25	; 0x19
    4328:	7a 8d       	ldd	r23, Y+26	; 0x1a
    432a:	8b 8d       	ldd	r24, Y+27	; 0x1b
    432c:	9c 8d       	ldd	r25, Y+28	; 0x1c
    432e:	20 e0       	ldi	r18, 0x00	; 0
    4330:	30 e0       	ldi	r19, 0x00	; 0
    4332:	4a ef       	ldi	r20, 0xFA	; 250
    4334:	54 e4       	ldi	r21, 0x44	; 68
    4336:	0e 94 7b 0f 	call	0x1ef6	; 0x1ef6 <__mulsf3>
    433a:	dc 01       	movw	r26, r24
    433c:	cb 01       	movw	r24, r22
    433e:	8d 8b       	std	Y+21, r24	; 0x15
    4340:	9e 8b       	std	Y+22, r25	; 0x16
    4342:	af 8b       	std	Y+23, r26	; 0x17
    4344:	b8 8f       	std	Y+24, r27	; 0x18
	if (__tmp < 1.0)
    4346:	6d 89       	ldd	r22, Y+21	; 0x15
    4348:	7e 89       	ldd	r23, Y+22	; 0x16
    434a:	8f 89       	ldd	r24, Y+23	; 0x17
    434c:	98 8d       	ldd	r25, Y+24	; 0x18
    434e:	20 e0       	ldi	r18, 0x00	; 0
    4350:	30 e0       	ldi	r19, 0x00	; 0
    4352:	40 e8       	ldi	r20, 0x80	; 128
    4354:	5f e3       	ldi	r21, 0x3F	; 63
    4356:	0e 94 d5 10 	call	0x21aa	; 0x21aa <__ltsf2>
    435a:	88 23       	and	r24, r24
    435c:	2c f4       	brge	.+10     	; 0x4368 <CLCD_voidSendCommand+0x8e>
		__ticks = 1;
    435e:	81 e0       	ldi	r24, 0x01	; 1
    4360:	90 e0       	ldi	r25, 0x00	; 0
    4362:	9c 8b       	std	Y+20, r25	; 0x14
    4364:	8b 8b       	std	Y+19, r24	; 0x13
    4366:	3f c0       	rjmp	.+126    	; 0x43e6 <CLCD_voidSendCommand+0x10c>
	else if (__tmp > 65535)
    4368:	6d 89       	ldd	r22, Y+21	; 0x15
    436a:	7e 89       	ldd	r23, Y+22	; 0x16
    436c:	8f 89       	ldd	r24, Y+23	; 0x17
    436e:	98 8d       	ldd	r25, Y+24	; 0x18
    4370:	20 e0       	ldi	r18, 0x00	; 0
    4372:	3f ef       	ldi	r19, 0xFF	; 255
    4374:	4f e7       	ldi	r20, 0x7F	; 127
    4376:	57 e4       	ldi	r21, 0x47	; 71
    4378:	0e 94 75 10 	call	0x20ea	; 0x20ea <__gtsf2>
    437c:	18 16       	cp	r1, r24
    437e:	4c f5       	brge	.+82     	; 0x43d2 <CLCD_voidSendCommand+0xf8>
	{
		//	__ticks = requested delay in 1/10 ms
		__ticks = (uint16_t) (__ms * 10.0);
    4380:	69 8d       	ldd	r22, Y+25	; 0x19
    4382:	7a 8d       	ldd	r23, Y+26	; 0x1a
    4384:	8b 8d       	ldd	r24, Y+27	; 0x1b
    4386:	9c 8d       	ldd	r25, Y+28	; 0x1c
    4388:	20 e0       	ldi	r18, 0x00	; 0
    438a:	30 e0       	ldi	r19, 0x00	; 0
    438c:	40 e2       	ldi	r20, 0x20	; 32
    438e:	51 e4       	ldi	r21, 0x41	; 65
    4390:	0e 94 7b 0f 	call	0x1ef6	; 0x1ef6 <__mulsf3>
    4394:	dc 01       	movw	r26, r24
    4396:	cb 01       	movw	r24, r22
    4398:	bc 01       	movw	r22, r24
    439a:	cd 01       	movw	r24, r26
    439c:	0e 94 c0 00 	call	0x180	; 0x180 <__fixunssfsi>
    43a0:	dc 01       	movw	r26, r24
    43a2:	cb 01       	movw	r24, r22
    43a4:	9c 8b       	std	Y+20, r25	; 0x14
    43a6:	8b 8b       	std	Y+19, r24	; 0x13
    43a8:	0f c0       	rjmp	.+30     	; 0x43c8 <CLCD_voidSendCommand+0xee>
    43aa:	88 ec       	ldi	r24, 0xC8	; 200
    43ac:	90 e0       	ldi	r25, 0x00	; 0
    43ae:	9a 8b       	std	Y+18, r25	; 0x12
    43b0:	89 8b       	std	Y+17, r24	; 0x11
    43b2:	89 89       	ldd	r24, Y+17	; 0x11
    43b4:	9a 89       	ldd	r25, Y+18	; 0x12
    43b6:	01 97       	sbiw	r24, 0x01	; 1
    43b8:	f1 f7       	brne	.-4      	; 0x43b6 <CLCD_voidSendCommand+0xdc>
    43ba:	9a 8b       	std	Y+18, r25	; 0x12
    43bc:	89 8b       	std	Y+17, r24	; 0x11
		while(__ticks)
		{
			// wait 1/10 ms
			_delay_loop_2(((F_CPU) / 4e3) / 10);
			__ticks --;
    43be:	8b 89       	ldd	r24, Y+19	; 0x13
    43c0:	9c 89       	ldd	r25, Y+20	; 0x14
    43c2:	01 97       	sbiw	r24, 0x01	; 1
    43c4:	9c 8b       	std	Y+20, r25	; 0x14
    43c6:	8b 8b       	std	Y+19, r24	; 0x13
		__ticks = 1;
	else if (__tmp > 65535)
	{
		//	__ticks = requested delay in 1/10 ms
		__ticks = (uint16_t) (__ms * 10.0);
		while(__ticks)
    43c8:	8b 89       	ldd	r24, Y+19	; 0x13
    43ca:	9c 89       	ldd	r25, Y+20	; 0x14
    43cc:	00 97       	sbiw	r24, 0x00	; 0
    43ce:	69 f7       	brne	.-38     	; 0x43aa <CLCD_voidSendCommand+0xd0>
    43d0:	14 c0       	rjmp	.+40     	; 0x43fa <CLCD_voidSendCommand+0x120>
			__ticks --;
		}
		return;
	}
	else
		__ticks = (uint16_t)__tmp;
    43d2:	6d 89       	ldd	r22, Y+21	; 0x15
    43d4:	7e 89       	ldd	r23, Y+22	; 0x16
    43d6:	8f 89       	ldd	r24, Y+23	; 0x17
    43d8:	98 8d       	ldd	r25, Y+24	; 0x18
    43da:	0e 94 c0 00 	call	0x180	; 0x180 <__fixunssfsi>
    43de:	dc 01       	movw	r26, r24
    43e0:	cb 01       	movw	r24, r22
    43e2:	9c 8b       	std	Y+20, r25	; 0x14
    43e4:	8b 8b       	std	Y+19, r24	; 0x13
    43e6:	8b 89       	ldd	r24, Y+19	; 0x13
    43e8:	9c 89       	ldd	r25, Y+20	; 0x14
    43ea:	98 8b       	std	Y+16, r25	; 0x10
    43ec:	8f 87       	std	Y+15, r24	; 0x0f
    43ee:	8f 85       	ldd	r24, Y+15	; 0x0f
    43f0:	98 89       	ldd	r25, Y+16	; 0x10
    43f2:	01 97       	sbiw	r24, 0x01	; 1
    43f4:	f1 f7       	brne	.-4      	; 0x43f2 <CLCD_voidSendCommand+0x118>
    43f6:	98 8b       	std	Y+16, r25	; 0x10
    43f8:	8f 87       	std	Y+15, r24	; 0x0f
	_delay_ms(1);
	DIO_enumSetPINValue(CLCD_CONTROL_PORT,CLCD_EN,DIO_LOW);
    43fa:	83 e0       	ldi	r24, 0x03	; 3
    43fc:	62 e0       	ldi	r22, 0x02	; 2
    43fe:	40 e0       	ldi	r20, 0x00	; 0
    4400:	0e 94 49 1b 	call	0x3692	; 0x3692 <DIO_enumSetPINValue>
    4404:	80 e0       	ldi	r24, 0x00	; 0
    4406:	90 e0       	ldi	r25, 0x00	; 0
    4408:	a0 e8       	ldi	r26, 0x80	; 128
    440a:	bf e3       	ldi	r27, 0x3F	; 63
    440c:	8b 87       	std	Y+11, r24	; 0x0b
    440e:	9c 87       	std	Y+12, r25	; 0x0c
    4410:	ad 87       	std	Y+13, r26	; 0x0d
    4412:	be 87       	std	Y+14, r27	; 0x0e
 */
void
_delay_ms(double __ms)
{
	uint16_t __ticks;
	double __tmp = ((F_CPU) / 4e3) * __ms;
    4414:	6b 85       	ldd	r22, Y+11	; 0x0b
    4416:	7c 85       	ldd	r23, Y+12	; 0x0c
    4418:	8d 85       	ldd	r24, Y+13	; 0x0d
    441a:	9e 85       	ldd	r25, Y+14	; 0x0e
    441c:	20 e0       	ldi	r18, 0x00	; 0
    441e:	30 e0       	ldi	r19, 0x00	; 0
    4420:	4a ef       	ldi	r20, 0xFA	; 250
    4422:	54 e4       	ldi	r21, 0x44	; 68
    4424:	0e 94 7b 0f 	call	0x1ef6	; 0x1ef6 <__mulsf3>
    4428:	dc 01       	movw	r26, r24
    442a:	cb 01       	movw	r24, r22
    442c:	8f 83       	std	Y+7, r24	; 0x07
    442e:	98 87       	std	Y+8, r25	; 0x08
    4430:	a9 87       	std	Y+9, r26	; 0x09
    4432:	ba 87       	std	Y+10, r27	; 0x0a
	if (__tmp < 1.0)
    4434:	6f 81       	ldd	r22, Y+7	; 0x07
    4436:	78 85       	ldd	r23, Y+8	; 0x08
    4438:	89 85       	ldd	r24, Y+9	; 0x09
    443a:	9a 85       	ldd	r25, Y+10	; 0x0a
    443c:	20 e0       	ldi	r18, 0x00	; 0
    443e:	30 e0       	ldi	r19, 0x00	; 0
    4440:	40 e8       	ldi	r20, 0x80	; 128
    4442:	5f e3       	ldi	r21, 0x3F	; 63
    4444:	0e 94 d5 10 	call	0x21aa	; 0x21aa <__ltsf2>
    4448:	88 23       	and	r24, r24
    444a:	2c f4       	brge	.+10     	; 0x4456 <CLCD_voidSendCommand+0x17c>
		__ticks = 1;
    444c:	81 e0       	ldi	r24, 0x01	; 1
    444e:	90 e0       	ldi	r25, 0x00	; 0
    4450:	9e 83       	std	Y+6, r25	; 0x06
    4452:	8d 83       	std	Y+5, r24	; 0x05
    4454:	3f c0       	rjmp	.+126    	; 0x44d4 <CLCD_voidSendCommand+0x1fa>
	else if (__tmp > 65535)
    4456:	6f 81       	ldd	r22, Y+7	; 0x07
    4458:	78 85       	ldd	r23, Y+8	; 0x08
    445a:	89 85       	ldd	r24, Y+9	; 0x09
    445c:	9a 85       	ldd	r25, Y+10	; 0x0a
    445e:	20 e0       	ldi	r18, 0x00	; 0
    4460:	3f ef       	ldi	r19, 0xFF	; 255
    4462:	4f e7       	ldi	r20, 0x7F	; 127
    4464:	57 e4       	ldi	r21, 0x47	; 71
    4466:	0e 94 75 10 	call	0x20ea	; 0x20ea <__gtsf2>
    446a:	18 16       	cp	r1, r24
    446c:	4c f5       	brge	.+82     	; 0x44c0 <CLCD_voidSendCommand+0x1e6>
	{
		//	__ticks = requested delay in 1/10 ms
		__ticks = (uint16_t) (__ms * 10.0);
    446e:	6b 85       	ldd	r22, Y+11	; 0x0b
    4470:	7c 85       	ldd	r23, Y+12	; 0x0c
    4472:	8d 85       	ldd	r24, Y+13	; 0x0d
    4474:	9e 85       	ldd	r25, Y+14	; 0x0e
    4476:	20 e0       	ldi	r18, 0x00	; 0
    4478:	30 e0       	ldi	r19, 0x00	; 0
    447a:	40 e2       	ldi	r20, 0x20	; 32
    447c:	51 e4       	ldi	r21, 0x41	; 65
    447e:	0e 94 7b 0f 	call	0x1ef6	; 0x1ef6 <__mulsf3>
    4482:	dc 01       	movw	r26, r24
    4484:	cb 01       	movw	r24, r22
    4486:	bc 01       	movw	r22, r24
    4488:	cd 01       	movw	r24, r26
    448a:	0e 94 c0 00 	call	0x180	; 0x180 <__fixunssfsi>
    448e:	dc 01       	movw	r26, r24
    4490:	cb 01       	movw	r24, r22
    4492:	9e 83       	std	Y+6, r25	; 0x06
    4494:	8d 83       	std	Y+5, r24	; 0x05
    4496:	0f c0       	rjmp	.+30     	; 0x44b6 <CLCD_voidSendCommand+0x1dc>
    4498:	88 ec       	ldi	r24, 0xC8	; 200
    449a:	90 e0       	ldi	r25, 0x00	; 0
    449c:	9c 83       	std	Y+4, r25	; 0x04
    449e:	8b 83       	std	Y+3, r24	; 0x03
    44a0:	8b 81       	ldd	r24, Y+3	; 0x03
    44a2:	9c 81       	ldd	r25, Y+4	; 0x04
    44a4:	01 97       	sbiw	r24, 0x01	; 1
    44a6:	f1 f7       	brne	.-4      	; 0x44a4 <CLCD_voidSendCommand+0x1ca>
    44a8:	9c 83       	std	Y+4, r25	; 0x04
    44aa:	8b 83       	std	Y+3, r24	; 0x03
		while(__ticks)
		{
			// wait 1/10 ms
			_delay_loop_2(((F_CPU) / 4e3) / 10);
			__ticks --;
    44ac:	8d 81       	ldd	r24, Y+5	; 0x05
    44ae:	9e 81       	ldd	r25, Y+6	; 0x06
    44b0:	01 97       	sbiw	r24, 0x01	; 1
    44b2:	9e 83       	std	Y+6, r25	; 0x06
    44b4:	8d 83       	std	Y+5, r24	; 0x05
		__ticks = 1;
	else if (__tmp > 65535)
	{
		//	__ticks = requested delay in 1/10 ms
		__ticks = (uint16_t) (__ms * 10.0);
		while(__ticks)
    44b6:	8d 81       	ldd	r24, Y+5	; 0x05
    44b8:	9e 81       	ldd	r25, Y+6	; 0x06
    44ba:	00 97       	sbiw	r24, 0x00	; 0
    44bc:	69 f7       	brne	.-38     	; 0x4498 <CLCD_voidSendCommand+0x1be>
    44be:	14 c0       	rjmp	.+40     	; 0x44e8 <CLCD_voidSendCommand+0x20e>
			__ticks --;
		}
		return;
	}
	else
		__ticks = (uint16_t)__tmp;
    44c0:	6f 81       	ldd	r22, Y+7	; 0x07
    44c2:	78 85       	ldd	r23, Y+8	; 0x08
    44c4:	89 85       	ldd	r24, Y+9	; 0x09
    44c6:	9a 85       	ldd	r25, Y+10	; 0x0a
    44c8:	0e 94 c0 00 	call	0x180	; 0x180 <__fixunssfsi>
    44cc:	dc 01       	movw	r26, r24
    44ce:	cb 01       	movw	r24, r22
    44d0:	9e 83       	std	Y+6, r25	; 0x06
    44d2:	8d 83       	std	Y+5, r24	; 0x05
    44d4:	8d 81       	ldd	r24, Y+5	; 0x05
    44d6:	9e 81       	ldd	r25, Y+6	; 0x06
    44d8:	9a 83       	std	Y+2, r25	; 0x02
    44da:	89 83       	std	Y+1, r24	; 0x01
    44dc:	89 81       	ldd	r24, Y+1	; 0x01
    44de:	9a 81       	ldd	r25, Y+2	; 0x02
    44e0:	01 97       	sbiw	r24, 0x01	; 1
    44e2:	f1 f7       	brne	.-4      	; 0x44e0 <CLCD_voidSendCommand+0x206>
    44e4:	9a 83       	std	Y+2, r25	; 0x02
    44e6:	89 83       	std	Y+1, r24	; 0x01
	_delay_ms(1);


}
    44e8:	6d 96       	adiw	r28, 0x1d	; 29
    44ea:	0f b6       	in	r0, 0x3f	; 63
    44ec:	f8 94       	cli
    44ee:	de bf       	out	0x3e, r29	; 62
    44f0:	0f be       	out	0x3f, r0	; 63
    44f2:	cd bf       	out	0x3d, r28	; 61
    44f4:	cf 91       	pop	r28
    44f6:	df 91       	pop	r29
    44f8:	08 95       	ret

000044fa <CLCD_voidSendString>:
void CLCD_voidSendString(u8* string)
{
    44fa:	df 93       	push	r29
    44fc:	cf 93       	push	r28
    44fe:	00 d0       	rcall	.+0      	; 0x4500 <CLCD_voidSendString+0x6>
    4500:	0f 92       	push	r0
    4502:	cd b7       	in	r28, 0x3d	; 61
    4504:	de b7       	in	r29, 0x3e	; 62
    4506:	9b 83       	std	Y+3, r25	; 0x03
    4508:	8a 83       	std	Y+2, r24	; 0x02

	u8 i =0;
    450a:	19 82       	std	Y+1, r1	; 0x01
    450c:	0e c0       	rjmp	.+28     	; 0x452a <CLCD_voidSendString+0x30>
	while(string[i] != '\0')
	{
		CLCD_voidSendChar(string[i]);
    450e:	89 81       	ldd	r24, Y+1	; 0x01
    4510:	28 2f       	mov	r18, r24
    4512:	30 e0       	ldi	r19, 0x00	; 0
    4514:	8a 81       	ldd	r24, Y+2	; 0x02
    4516:	9b 81       	ldd	r25, Y+3	; 0x03
    4518:	fc 01       	movw	r30, r24
    451a:	e2 0f       	add	r30, r18
    451c:	f3 1f       	adc	r31, r19
    451e:	80 81       	ld	r24, Z
    4520:	0e 94 5d 20 	call	0x40ba	; 0x40ba <CLCD_voidSendChar>
		i++;
    4524:	89 81       	ldd	r24, Y+1	; 0x01
    4526:	8f 5f       	subi	r24, 0xFF	; 255
    4528:	89 83       	std	Y+1, r24	; 0x01
}
void CLCD_voidSendString(u8* string)
{

	u8 i =0;
	while(string[i] != '\0')
    452a:	89 81       	ldd	r24, Y+1	; 0x01
    452c:	28 2f       	mov	r18, r24
    452e:	30 e0       	ldi	r19, 0x00	; 0
    4530:	8a 81       	ldd	r24, Y+2	; 0x02
    4532:	9b 81       	ldd	r25, Y+3	; 0x03
    4534:	fc 01       	movw	r30, r24
    4536:	e2 0f       	add	r30, r18
    4538:	f3 1f       	adc	r31, r19
    453a:	80 81       	ld	r24, Z
    453c:	88 23       	and	r24, r24
    453e:	39 f7       	brne	.-50     	; 0x450e <CLCD_voidSendString+0x14>
	{
		CLCD_voidSendChar(string[i]);
		i++;

	}
}
    4540:	0f 90       	pop	r0
    4542:	0f 90       	pop	r0
    4544:	0f 90       	pop	r0
    4546:	cf 91       	pop	r28
    4548:	df 91       	pop	r29
    454a:	08 95       	ret

0000454c <CLCD_voidSendNumber>:

void CLCD_voidSendNumber(u64 Copy_u64Number)
{
    454c:	af 92       	push	r10
    454e:	bf 92       	push	r11
    4550:	cf 92       	push	r12
    4552:	df 92       	push	r13
    4554:	ef 92       	push	r14
    4556:	ff 92       	push	r15
    4558:	0f 93       	push	r16
    455a:	1f 93       	push	r17
    455c:	df 93       	push	r29
    455e:	cf 93       	push	r28
    4560:	cd b7       	in	r28, 0x3d	; 61
    4562:	de b7       	in	r29, 0x3e	; 62
    4564:	c7 56       	subi	r28, 0x67	; 103
    4566:	d0 40       	sbci	r29, 0x00	; 0
    4568:	0f b6       	in	r0, 0x3f	; 63
    456a:	f8 94       	cli
    456c:	de bf       	out	0x3e, r29	; 62
    456e:	0f be       	out	0x3f, r0	; 63
    4570:	cd bf       	out	0x3d, r28	; 61
    4572:	2a 87       	std	Y+10, r18	; 0x0a
    4574:	3b 87       	std	Y+11, r19	; 0x0b
    4576:	4c 87       	std	Y+12, r20	; 0x0c
    4578:	5d 87       	std	Y+13, r21	; 0x0d
    457a:	6e 87       	std	Y+14, r22	; 0x0e
    457c:	7f 87       	std	Y+15, r23	; 0x0f
    457e:	88 8b       	std	Y+16, r24	; 0x10
    4580:	99 8b       	std	Y+17, r25	; 0x11
	u64 LOC_u64R_Number=0;
    4582:	1a 82       	std	Y+2, r1	; 0x02
    4584:	1b 82       	std	Y+3, r1	; 0x03
    4586:	1c 82       	std	Y+4, r1	; 0x04
    4588:	1d 82       	std	Y+5, r1	; 0x05
    458a:	1e 82       	std	Y+6, r1	; 0x06
    458c:	1f 82       	std	Y+7, r1	; 0x07
    458e:	18 86       	std	Y+8, r1	; 0x08
    4590:	19 86       	std	Y+9, r1	; 0x09
    4592:	6e c3       	rjmp	.+1756   	; 0x4c70 <CLCD_voidSendNumber+0x724>
		while(Copy_u64Number!=0)
		{
			LOC_u64R_Number=LOC_u64R_Number+(Copy_u64Number%10);
    4594:	aa 84       	ldd	r10, Y+10	; 0x0a
    4596:	bb 84       	ldd	r11, Y+11	; 0x0b
    4598:	cc 84       	ldd	r12, Y+12	; 0x0c
    459a:	dd 84       	ldd	r13, Y+13	; 0x0d
    459c:	ee 84       	ldd	r14, Y+14	; 0x0e
    459e:	ff 84       	ldd	r15, Y+15	; 0x0f
    45a0:	08 89       	ldd	r16, Y+16	; 0x10
    45a2:	19 89       	ldd	r17, Y+17	; 0x11
    45a4:	2a 2d       	mov	r18, r10
    45a6:	3b 2d       	mov	r19, r11
    45a8:	4c 2d       	mov	r20, r12
    45aa:	5d 2d       	mov	r21, r13
    45ac:	6e 2d       	mov	r22, r14
    45ae:	7f 2d       	mov	r23, r15
    45b0:	80 2f       	mov	r24, r16
    45b2:	91 2f       	mov	r25, r17
    45b4:	0f 2e       	mov	r0, r31
    45b6:	fa e0       	ldi	r31, 0x0A	; 10
    45b8:	af 2e       	mov	r10, r31
    45ba:	f0 2d       	mov	r31, r0
    45bc:	bb 24       	eor	r11, r11
    45be:	cc 24       	eor	r12, r12
    45c0:	dd 24       	eor	r13, r13
    45c2:	ee 24       	eor	r14, r14
    45c4:	ff 24       	eor	r15, r15
    45c6:	00 e0       	ldi	r16, 0x00	; 0
    45c8:	10 e0       	ldi	r17, 0x00	; 0
    45ca:	0e 94 61 07 	call	0xec2	; 0xec2 <__umoddi3>
    45ce:	a2 2e       	mov	r10, r18
    45d0:	b3 2e       	mov	r11, r19
    45d2:	c4 2e       	mov	r12, r20
    45d4:	d5 2e       	mov	r13, r21
    45d6:	e6 2e       	mov	r14, r22
    45d8:	f7 2e       	mov	r15, r23
    45da:	08 2f       	mov	r16, r24
    45dc:	19 2f       	mov	r17, r25
    45de:	aa 8a       	std	Y+18, r10	; 0x12
    45e0:	bb 8a       	std	Y+19, r11	; 0x13
    45e2:	cc 8a       	std	Y+20, r12	; 0x14
    45e4:	dd 8a       	std	Y+21, r13	; 0x15
    45e6:	ee 8a       	std	Y+22, r14	; 0x16
    45e8:	ff 8a       	std	Y+23, r15	; 0x17
    45ea:	08 8f       	std	Y+24, r16	; 0x18
    45ec:	19 8f       	std	Y+25, r17	; 0x19
    45ee:	8a 81       	ldd	r24, Y+2	; 0x02
    45f0:	8a 8f       	std	Y+26, r24	; 0x1a
    45f2:	9b 81       	ldd	r25, Y+3	; 0x03
    45f4:	9b 8f       	std	Y+27, r25	; 0x1b
    45f6:	8c 81       	ldd	r24, Y+4	; 0x04
    45f8:	8c 8f       	std	Y+28, r24	; 0x1c
    45fa:	9d 81       	ldd	r25, Y+5	; 0x05
    45fc:	9d 8f       	std	Y+29, r25	; 0x1d
    45fe:	8e 81       	ldd	r24, Y+6	; 0x06
    4600:	8e 8f       	std	Y+30, r24	; 0x1e
    4602:	9f 81       	ldd	r25, Y+7	; 0x07
    4604:	9f 8f       	std	Y+31, r25	; 0x1f
    4606:	88 85       	ldd	r24, Y+8	; 0x08
    4608:	88 a3       	std	Y+32, r24	; 0x20
    460a:	99 85       	ldd	r25, Y+9	; 0x09
    460c:	99 a3       	std	Y+33, r25	; 0x21
    460e:	8a 8d       	ldd	r24, Y+26	; 0x1a
    4610:	9a 89       	ldd	r25, Y+18	; 0x12
    4612:	89 0f       	add	r24, r25
    4614:	8a a3       	std	Y+34, r24	; 0x22
    4616:	81 e0       	ldi	r24, 0x01	; 1
    4618:	8a a7       	std	Y+42, r24	; 0x2a
    461a:	9a a1       	ldd	r25, Y+34	; 0x22
    461c:	8a 8d       	ldd	r24, Y+26	; 0x1a
    461e:	98 17       	cp	r25, r24
    4620:	08 f0       	brcs	.+2      	; 0x4624 <CLCD_voidSendNumber+0xd8>
    4622:	1a a6       	std	Y+42, r1	; 0x2a
    4624:	9b 8d       	ldd	r25, Y+27	; 0x1b
    4626:	8b 89       	ldd	r24, Y+19	; 0x13
    4628:	98 0f       	add	r25, r24
    462a:	9b a3       	std	Y+35, r25	; 0x23
    462c:	91 e0       	ldi	r25, 0x01	; 1
    462e:	9b a7       	std	Y+43, r25	; 0x2b
    4630:	8b a1       	ldd	r24, Y+35	; 0x23
    4632:	9b 8d       	ldd	r25, Y+27	; 0x1b
    4634:	89 17       	cp	r24, r25
    4636:	08 f0       	brcs	.+2      	; 0x463a <CLCD_voidSendNumber+0xee>
    4638:	1b a6       	std	Y+43, r1	; 0x2b
    463a:	8a a5       	ldd	r24, Y+42	; 0x2a
    463c:	9b a1       	ldd	r25, Y+35	; 0x23
    463e:	89 0f       	add	r24, r25
    4640:	8c a7       	std	Y+44, r24	; 0x2c
    4642:	81 e0       	ldi	r24, 0x01	; 1
    4644:	8d a7       	std	Y+45, r24	; 0x2d
    4646:	9c a5       	ldd	r25, Y+44	; 0x2c
    4648:	8b a1       	ldd	r24, Y+35	; 0x23
    464a:	98 17       	cp	r25, r24
    464c:	08 f0       	brcs	.+2      	; 0x4650 <CLCD_voidSendNumber+0x104>
    464e:	1d a6       	std	Y+45, r1	; 0x2d
    4650:	9b a5       	ldd	r25, Y+43	; 0x2b
    4652:	8d a5       	ldd	r24, Y+45	; 0x2d
    4654:	98 2b       	or	r25, r24
    4656:	9b a7       	std	Y+43, r25	; 0x2b
    4658:	9c a5       	ldd	r25, Y+44	; 0x2c
    465a:	9b a3       	std	Y+35, r25	; 0x23
    465c:	8c 8d       	ldd	r24, Y+28	; 0x1c
    465e:	9c 89       	ldd	r25, Y+20	; 0x14
    4660:	89 0f       	add	r24, r25
    4662:	8c a3       	std	Y+36, r24	; 0x24
    4664:	81 e0       	ldi	r24, 0x01	; 1
    4666:	8e a7       	std	Y+46, r24	; 0x2e
    4668:	9c a1       	ldd	r25, Y+36	; 0x24
    466a:	8c 8d       	ldd	r24, Y+28	; 0x1c
    466c:	98 17       	cp	r25, r24
    466e:	08 f0       	brcs	.+2      	; 0x4672 <CLCD_voidSendNumber+0x126>
    4670:	1e a6       	std	Y+46, r1	; 0x2e
    4672:	9b a5       	ldd	r25, Y+43	; 0x2b
    4674:	8c a1       	ldd	r24, Y+36	; 0x24
    4676:	98 0f       	add	r25, r24
    4678:	9f a7       	std	Y+47, r25	; 0x2f
    467a:	91 e0       	ldi	r25, 0x01	; 1
    467c:	98 ab       	std	Y+48, r25	; 0x30
    467e:	8f a5       	ldd	r24, Y+47	; 0x2f
    4680:	9c a1       	ldd	r25, Y+36	; 0x24
    4682:	89 17       	cp	r24, r25
    4684:	08 f0       	brcs	.+2      	; 0x4688 <CLCD_voidSendNumber+0x13c>
    4686:	18 aa       	std	Y+48, r1	; 0x30
    4688:	8e a5       	ldd	r24, Y+46	; 0x2e
    468a:	98 a9       	ldd	r25, Y+48	; 0x30
    468c:	89 2b       	or	r24, r25
    468e:	8e a7       	std	Y+46, r24	; 0x2e
    4690:	8f a5       	ldd	r24, Y+47	; 0x2f
    4692:	8c a3       	std	Y+36, r24	; 0x24
    4694:	9d 8d       	ldd	r25, Y+29	; 0x1d
    4696:	8d 89       	ldd	r24, Y+21	; 0x15
    4698:	98 0f       	add	r25, r24
    469a:	9d a3       	std	Y+37, r25	; 0x25
    469c:	91 e0       	ldi	r25, 0x01	; 1
    469e:	99 ab       	std	Y+49, r25	; 0x31
    46a0:	8d a1       	ldd	r24, Y+37	; 0x25
    46a2:	9d 8d       	ldd	r25, Y+29	; 0x1d
    46a4:	89 17       	cp	r24, r25
    46a6:	08 f0       	brcs	.+2      	; 0x46aa <CLCD_voidSendNumber+0x15e>
    46a8:	19 aa       	std	Y+49, r1	; 0x31
    46aa:	8e a5       	ldd	r24, Y+46	; 0x2e
    46ac:	9d a1       	ldd	r25, Y+37	; 0x25
    46ae:	89 0f       	add	r24, r25
    46b0:	8a ab       	std	Y+50, r24	; 0x32
    46b2:	81 e0       	ldi	r24, 0x01	; 1
    46b4:	8b ab       	std	Y+51, r24	; 0x33
    46b6:	9a a9       	ldd	r25, Y+50	; 0x32
    46b8:	8d a1       	ldd	r24, Y+37	; 0x25
    46ba:	98 17       	cp	r25, r24
    46bc:	08 f0       	brcs	.+2      	; 0x46c0 <CLCD_voidSendNumber+0x174>
    46be:	1b aa       	std	Y+51, r1	; 0x33
    46c0:	99 a9       	ldd	r25, Y+49	; 0x31
    46c2:	8b a9       	ldd	r24, Y+51	; 0x33
    46c4:	98 2b       	or	r25, r24
    46c6:	99 ab       	std	Y+49, r25	; 0x31
    46c8:	9a a9       	ldd	r25, Y+50	; 0x32
    46ca:	9d a3       	std	Y+37, r25	; 0x25
    46cc:	8e 8d       	ldd	r24, Y+30	; 0x1e
    46ce:	9e 89       	ldd	r25, Y+22	; 0x16
    46d0:	89 0f       	add	r24, r25
    46d2:	8e a3       	std	Y+38, r24	; 0x26
    46d4:	81 e0       	ldi	r24, 0x01	; 1
    46d6:	8c ab       	std	Y+52, r24	; 0x34
    46d8:	9e a1       	ldd	r25, Y+38	; 0x26
    46da:	8e 8d       	ldd	r24, Y+30	; 0x1e
    46dc:	98 17       	cp	r25, r24
    46de:	08 f0       	brcs	.+2      	; 0x46e2 <CLCD_voidSendNumber+0x196>
    46e0:	1c aa       	std	Y+52, r1	; 0x34
    46e2:	99 a9       	ldd	r25, Y+49	; 0x31
    46e4:	8e a1       	ldd	r24, Y+38	; 0x26
    46e6:	98 0f       	add	r25, r24
    46e8:	9d ab       	std	Y+53, r25	; 0x35
    46ea:	91 e0       	ldi	r25, 0x01	; 1
    46ec:	9e ab       	std	Y+54, r25	; 0x36
    46ee:	8d a9       	ldd	r24, Y+53	; 0x35
    46f0:	9e a1       	ldd	r25, Y+38	; 0x26
    46f2:	89 17       	cp	r24, r25
    46f4:	08 f0       	brcs	.+2      	; 0x46f8 <CLCD_voidSendNumber+0x1ac>
    46f6:	1e aa       	std	Y+54, r1	; 0x36
    46f8:	8c a9       	ldd	r24, Y+52	; 0x34
    46fa:	9e a9       	ldd	r25, Y+54	; 0x36
    46fc:	89 2b       	or	r24, r25
    46fe:	8c ab       	std	Y+52, r24	; 0x34
    4700:	8d a9       	ldd	r24, Y+53	; 0x35
    4702:	8e a3       	std	Y+38, r24	; 0x26
    4704:	9f 8d       	ldd	r25, Y+31	; 0x1f
    4706:	8f 89       	ldd	r24, Y+23	; 0x17
    4708:	98 0f       	add	r25, r24
    470a:	9f a3       	std	Y+39, r25	; 0x27
    470c:	91 e0       	ldi	r25, 0x01	; 1
    470e:	9f ab       	std	Y+55, r25	; 0x37
    4710:	8f a1       	ldd	r24, Y+39	; 0x27
    4712:	9f 8d       	ldd	r25, Y+31	; 0x1f
    4714:	89 17       	cp	r24, r25
    4716:	08 f0       	brcs	.+2      	; 0x471a <CLCD_voidSendNumber+0x1ce>
    4718:	1f aa       	std	Y+55, r1	; 0x37
    471a:	8c a9       	ldd	r24, Y+52	; 0x34
    471c:	9f a1       	ldd	r25, Y+39	; 0x27
    471e:	89 0f       	add	r24, r25
    4720:	88 af       	std	Y+56, r24	; 0x38
    4722:	81 e0       	ldi	r24, 0x01	; 1
    4724:	89 af       	std	Y+57, r24	; 0x39
    4726:	98 ad       	ldd	r25, Y+56	; 0x38
    4728:	8f a1       	ldd	r24, Y+39	; 0x27
    472a:	98 17       	cp	r25, r24
    472c:	08 f0       	brcs	.+2      	; 0x4730 <CLCD_voidSendNumber+0x1e4>
    472e:	19 ae       	std	Y+57, r1	; 0x39
    4730:	9f a9       	ldd	r25, Y+55	; 0x37
    4732:	89 ad       	ldd	r24, Y+57	; 0x39
    4734:	98 2b       	or	r25, r24
    4736:	9f ab       	std	Y+55, r25	; 0x37
    4738:	98 ad       	ldd	r25, Y+56	; 0x38
    473a:	9f a3       	std	Y+39, r25	; 0x27
    473c:	88 a1       	ldd	r24, Y+32	; 0x20
    473e:	98 8d       	ldd	r25, Y+24	; 0x18
    4740:	89 0f       	add	r24, r25
    4742:	88 a7       	std	Y+40, r24	; 0x28
    4744:	81 e0       	ldi	r24, 0x01	; 1
    4746:	8a af       	std	Y+58, r24	; 0x3a
    4748:	98 a5       	ldd	r25, Y+40	; 0x28
    474a:	88 a1       	ldd	r24, Y+32	; 0x20
    474c:	98 17       	cp	r25, r24
    474e:	08 f0       	brcs	.+2      	; 0x4752 <CLCD_voidSendNumber+0x206>
    4750:	1a ae       	std	Y+58, r1	; 0x3a
    4752:	9f a9       	ldd	r25, Y+55	; 0x37
    4754:	88 a5       	ldd	r24, Y+40	; 0x28
    4756:	98 0f       	add	r25, r24
    4758:	9b af       	std	Y+59, r25	; 0x3b
    475a:	91 e0       	ldi	r25, 0x01	; 1
    475c:	9c af       	std	Y+60, r25	; 0x3c
    475e:	8b ad       	ldd	r24, Y+59	; 0x3b
    4760:	98 a5       	ldd	r25, Y+40	; 0x28
    4762:	89 17       	cp	r24, r25
    4764:	08 f0       	brcs	.+2      	; 0x4768 <CLCD_voidSendNumber+0x21c>
    4766:	1c ae       	std	Y+60, r1	; 0x3c
    4768:	8a ad       	ldd	r24, Y+58	; 0x3a
    476a:	9c ad       	ldd	r25, Y+60	; 0x3c
    476c:	89 2b       	or	r24, r25
    476e:	8a af       	std	Y+58, r24	; 0x3a
    4770:	8b ad       	ldd	r24, Y+59	; 0x3b
    4772:	88 a7       	std	Y+40, r24	; 0x28
    4774:	99 a1       	ldd	r25, Y+33	; 0x21
    4776:	89 8d       	ldd	r24, Y+25	; 0x19
    4778:	98 0f       	add	r25, r24
    477a:	99 a7       	std	Y+41, r25	; 0x29
    477c:	8a ad       	ldd	r24, Y+58	; 0x3a
    477e:	99 a5       	ldd	r25, Y+41	; 0x29
    4780:	89 0f       	add	r24, r25
    4782:	89 a7       	std	Y+41, r24	; 0x29
    4784:	8a a1       	ldd	r24, Y+34	; 0x22
    4786:	8a 83       	std	Y+2, r24	; 0x02
    4788:	9b a1       	ldd	r25, Y+35	; 0x23
    478a:	9b 83       	std	Y+3, r25	; 0x03
    478c:	8c a1       	ldd	r24, Y+36	; 0x24
    478e:	8c 83       	std	Y+4, r24	; 0x04
    4790:	9d a1       	ldd	r25, Y+37	; 0x25
    4792:	9d 83       	std	Y+5, r25	; 0x05
    4794:	8e a1       	ldd	r24, Y+38	; 0x26
    4796:	8e 83       	std	Y+6, r24	; 0x06
    4798:	9f a1       	ldd	r25, Y+39	; 0x27
    479a:	9f 83       	std	Y+7, r25	; 0x07
    479c:	88 a5       	ldd	r24, Y+40	; 0x28
    479e:	88 87       	std	Y+8, r24	; 0x08
    47a0:	99 a5       	ldd	r25, Y+41	; 0x29
    47a2:	99 87       	std	Y+9, r25	; 0x09
			Copy_u64Number/=10;
    47a4:	aa 84       	ldd	r10, Y+10	; 0x0a
    47a6:	bb 84       	ldd	r11, Y+11	; 0x0b
    47a8:	cc 84       	ldd	r12, Y+12	; 0x0c
    47aa:	dd 84       	ldd	r13, Y+13	; 0x0d
    47ac:	ee 84       	ldd	r14, Y+14	; 0x0e
    47ae:	ff 84       	ldd	r15, Y+15	; 0x0f
    47b0:	08 89       	ldd	r16, Y+16	; 0x10
    47b2:	19 89       	ldd	r17, Y+17	; 0x11
    47b4:	2a 2d       	mov	r18, r10
    47b6:	3b 2d       	mov	r19, r11
    47b8:	4c 2d       	mov	r20, r12
    47ba:	5d 2d       	mov	r21, r13
    47bc:	6e 2d       	mov	r22, r14
    47be:	7f 2d       	mov	r23, r15
    47c0:	80 2f       	mov	r24, r16
    47c2:	91 2f       	mov	r25, r17
    47c4:	0f 2e       	mov	r0, r31
    47c6:	fa e0       	ldi	r31, 0x0A	; 10
    47c8:	af 2e       	mov	r10, r31
    47ca:	f0 2d       	mov	r31, r0
    47cc:	bb 24       	eor	r11, r11
    47ce:	cc 24       	eor	r12, r12
    47d0:	dd 24       	eor	r13, r13
    47d2:	ee 24       	eor	r14, r14
    47d4:	ff 24       	eor	r15, r15
    47d6:	00 e0       	ldi	r16, 0x00	; 0
    47d8:	10 e0       	ldi	r17, 0x00	; 0
    47da:	0e 94 ec 00 	call	0x1d8	; 0x1d8 <__udivdi3>
    47de:	a2 2e       	mov	r10, r18
    47e0:	b3 2e       	mov	r11, r19
    47e2:	c4 2e       	mov	r12, r20
    47e4:	d5 2e       	mov	r13, r21
    47e6:	e6 2e       	mov	r14, r22
    47e8:	f7 2e       	mov	r15, r23
    47ea:	08 2f       	mov	r16, r24
    47ec:	19 2f       	mov	r17, r25
    47ee:	aa 86       	std	Y+10, r10	; 0x0a
    47f0:	bb 86       	std	Y+11, r11	; 0x0b
    47f2:	cc 86       	std	Y+12, r12	; 0x0c
    47f4:	dd 86       	std	Y+13, r13	; 0x0d
    47f6:	ee 86       	std	Y+14, r14	; 0x0e
    47f8:	ff 86       	std	Y+15, r15	; 0x0f
    47fa:	08 8b       	std	Y+16, r16	; 0x10
    47fc:	19 8b       	std	Y+17, r17	; 0x11
			if(Copy_u64Number != 0)
    47fe:	8a 85       	ldd	r24, Y+10	; 0x0a
    4800:	9b 85       	ldd	r25, Y+11	; 0x0b
    4802:	89 2b       	or	r24, r25
    4804:	9c 85       	ldd	r25, Y+12	; 0x0c
    4806:	89 2b       	or	r24, r25
    4808:	9d 85       	ldd	r25, Y+13	; 0x0d
    480a:	89 2b       	or	r24, r25
    480c:	9e 85       	ldd	r25, Y+14	; 0x0e
    480e:	89 2b       	or	r24, r25
    4810:	9f 85       	ldd	r25, Y+15	; 0x0f
    4812:	89 2b       	or	r24, r25
    4814:	98 89       	ldd	r25, Y+16	; 0x10
    4816:	89 2b       	or	r24, r25
    4818:	99 89       	ldd	r25, Y+17	; 0x11
    481a:	89 2b       	or	r24, r25
    481c:	88 23       	and	r24, r24
    481e:	09 f4       	brne	.+2      	; 0x4822 <CLCD_voidSendNumber+0x2d6>
    4820:	27 c2       	rjmp	.+1102   	; 0x4c70 <CLCD_voidSendNumber+0x724>
				LOC_u64R_Number*=10;
    4822:	2a 81       	ldd	r18, Y+2	; 0x02
    4824:	3b 81       	ldd	r19, Y+3	; 0x03
    4826:	4c 81       	ldd	r20, Y+4	; 0x04
    4828:	5d 81       	ldd	r21, Y+5	; 0x05
    482a:	6e 81       	ldd	r22, Y+6	; 0x06
    482c:	7f 81       	ldd	r23, Y+7	; 0x07
    482e:	88 85       	ldd	r24, Y+8	; 0x08
    4830:	99 85       	ldd	r25, Y+9	; 0x09
    4832:	a2 2e       	mov	r10, r18
    4834:	b3 2e       	mov	r11, r19
    4836:	c4 2e       	mov	r12, r20
    4838:	d5 2e       	mov	r13, r21
    483a:	e6 2e       	mov	r14, r22
    483c:	f7 2e       	mov	r15, r23
    483e:	08 2f       	mov	r16, r24
    4840:	19 2f       	mov	r17, r25
    4842:	2a 2d       	mov	r18, r10
    4844:	3b 2d       	mov	r19, r11
    4846:	4c 2d       	mov	r20, r12
    4848:	5d 2d       	mov	r21, r13
    484a:	6e 2d       	mov	r22, r14
    484c:	7f 2d       	mov	r23, r15
    484e:	80 2f       	mov	r24, r16
    4850:	91 2f       	mov	r25, r17
    4852:	01 e0       	ldi	r16, 0x01	; 1
    4854:	0e 94 41 00 	call	0x82	; 0x82 <__ashldi3>
    4858:	2d af       	std	Y+61, r18	; 0x3d
    485a:	3e af       	std	Y+62, r19	; 0x3e
    485c:	4f af       	std	Y+63, r20	; 0x3f
    485e:	21 96       	adiw	r28, 0x01	; 1
    4860:	5f af       	std	Y+63, r21	; 0x3f
    4862:	21 97       	sbiw	r28, 0x01	; 1
    4864:	22 96       	adiw	r28, 0x02	; 2
    4866:	6f af       	std	Y+63, r22	; 0x3f
    4868:	22 97       	sbiw	r28, 0x02	; 2
    486a:	23 96       	adiw	r28, 0x03	; 3
    486c:	7f af       	std	Y+63, r23	; 0x3f
    486e:	23 97       	sbiw	r28, 0x03	; 3
    4870:	24 96       	adiw	r28, 0x04	; 4
    4872:	8f af       	std	Y+63, r24	; 0x3f
    4874:	24 97       	sbiw	r28, 0x04	; 4
    4876:	25 96       	adiw	r28, 0x05	; 5
    4878:	9f af       	std	Y+63, r25	; 0x3f
    487a:	25 97       	sbiw	r28, 0x05	; 5
    487c:	2d ad       	ldd	r18, Y+61	; 0x3d
    487e:	3e ad       	ldd	r19, Y+62	; 0x3e
    4880:	4f ad       	ldd	r20, Y+63	; 0x3f
    4882:	21 96       	adiw	r28, 0x01	; 1
    4884:	5f ad       	ldd	r21, Y+63	; 0x3f
    4886:	21 97       	sbiw	r28, 0x01	; 1
    4888:	22 96       	adiw	r28, 0x02	; 2
    488a:	6f ad       	ldd	r22, Y+63	; 0x3f
    488c:	22 97       	sbiw	r28, 0x02	; 2
    488e:	23 96       	adiw	r28, 0x03	; 3
    4890:	7f ad       	ldd	r23, Y+63	; 0x3f
    4892:	23 97       	sbiw	r28, 0x03	; 3
    4894:	24 96       	adiw	r28, 0x04	; 4
    4896:	8f ad       	ldd	r24, Y+63	; 0x3f
    4898:	24 97       	sbiw	r28, 0x04	; 4
    489a:	25 96       	adiw	r28, 0x05	; 5
    489c:	9f ad       	ldd	r25, Y+63	; 0x3f
    489e:	25 97       	sbiw	r28, 0x05	; 5
    48a0:	02 e0       	ldi	r16, 0x02	; 2
    48a2:	0e 94 41 00 	call	0x82	; 0x82 <__ashldi3>
    48a6:	26 96       	adiw	r28, 0x06	; 6
    48a8:	2f af       	std	Y+63, r18	; 0x3f
    48aa:	26 97       	sbiw	r28, 0x06	; 6
    48ac:	27 96       	adiw	r28, 0x07	; 7
    48ae:	3f af       	std	Y+63, r19	; 0x3f
    48b0:	27 97       	sbiw	r28, 0x07	; 7
    48b2:	28 96       	adiw	r28, 0x08	; 8
    48b4:	4f af       	std	Y+63, r20	; 0x3f
    48b6:	28 97       	sbiw	r28, 0x08	; 8
    48b8:	29 96       	adiw	r28, 0x09	; 9
    48ba:	5f af       	std	Y+63, r21	; 0x3f
    48bc:	29 97       	sbiw	r28, 0x09	; 9
    48be:	2a 96       	adiw	r28, 0x0a	; 10
    48c0:	6f af       	std	Y+63, r22	; 0x3f
    48c2:	2a 97       	sbiw	r28, 0x0a	; 10
    48c4:	2b 96       	adiw	r28, 0x0b	; 11
    48c6:	7f af       	std	Y+63, r23	; 0x3f
    48c8:	2b 97       	sbiw	r28, 0x0b	; 11
    48ca:	2c 96       	adiw	r28, 0x0c	; 12
    48cc:	8f af       	std	Y+63, r24	; 0x3f
    48ce:	2c 97       	sbiw	r28, 0x0c	; 12
    48d0:	2d 96       	adiw	r28, 0x0d	; 13
    48d2:	9f af       	std	Y+63, r25	; 0x3f
    48d4:	2d 97       	sbiw	r28, 0x0d	; 13
    48d6:	8d ad       	ldd	r24, Y+61	; 0x3d
    48d8:	26 96       	adiw	r28, 0x06	; 6
    48da:	9f ad       	ldd	r25, Y+63	; 0x3f
    48dc:	26 97       	sbiw	r28, 0x06	; 6
    48de:	89 0f       	add	r24, r25
    48e0:	2e 96       	adiw	r28, 0x0e	; 14
    48e2:	8f af       	std	Y+63, r24	; 0x3f
    48e4:	2e 97       	sbiw	r28, 0x0e	; 14
    48e6:	81 e0       	ldi	r24, 0x01	; 1
    48e8:	66 96       	adiw	r28, 0x16	; 22
    48ea:	8f af       	std	Y+63, r24	; 0x3f
    48ec:	66 97       	sbiw	r28, 0x16	; 22
    48ee:	2e 96       	adiw	r28, 0x0e	; 14
    48f0:	9f ad       	ldd	r25, Y+63	; 0x3f
    48f2:	2e 97       	sbiw	r28, 0x0e	; 14
    48f4:	8d ad       	ldd	r24, Y+61	; 0x3d
    48f6:	98 17       	cp	r25, r24
    48f8:	18 f0       	brcs	.+6      	; 0x4900 <CLCD_voidSendNumber+0x3b4>
    48fa:	66 96       	adiw	r28, 0x16	; 22
    48fc:	1f ae       	std	Y+63, r1	; 0x3f
    48fe:	66 97       	sbiw	r28, 0x16	; 22
    4900:	9e ad       	ldd	r25, Y+62	; 0x3e
    4902:	27 96       	adiw	r28, 0x07	; 7
    4904:	8f ad       	ldd	r24, Y+63	; 0x3f
    4906:	27 97       	sbiw	r28, 0x07	; 7
    4908:	98 0f       	add	r25, r24
    490a:	2f 96       	adiw	r28, 0x0f	; 15
    490c:	9f af       	std	Y+63, r25	; 0x3f
    490e:	2f 97       	sbiw	r28, 0x0f	; 15
    4910:	91 e0       	ldi	r25, 0x01	; 1
    4912:	67 96       	adiw	r28, 0x17	; 23
    4914:	9f af       	std	Y+63, r25	; 0x3f
    4916:	67 97       	sbiw	r28, 0x17	; 23
    4918:	2f 96       	adiw	r28, 0x0f	; 15
    491a:	8f ad       	ldd	r24, Y+63	; 0x3f
    491c:	2f 97       	sbiw	r28, 0x0f	; 15
    491e:	9e ad       	ldd	r25, Y+62	; 0x3e
    4920:	89 17       	cp	r24, r25
    4922:	18 f0       	brcs	.+6      	; 0x492a <CLCD_voidSendNumber+0x3de>
    4924:	67 96       	adiw	r28, 0x17	; 23
    4926:	1f ae       	std	Y+63, r1	; 0x3f
    4928:	67 97       	sbiw	r28, 0x17	; 23
    492a:	66 96       	adiw	r28, 0x16	; 22
    492c:	8f ad       	ldd	r24, Y+63	; 0x3f
    492e:	66 97       	sbiw	r28, 0x16	; 22
    4930:	2f 96       	adiw	r28, 0x0f	; 15
    4932:	9f ad       	ldd	r25, Y+63	; 0x3f
    4934:	2f 97       	sbiw	r28, 0x0f	; 15
    4936:	89 0f       	add	r24, r25
    4938:	68 96       	adiw	r28, 0x18	; 24
    493a:	8f af       	std	Y+63, r24	; 0x3f
    493c:	68 97       	sbiw	r28, 0x18	; 24
    493e:	81 e0       	ldi	r24, 0x01	; 1
    4940:	69 96       	adiw	r28, 0x19	; 25
    4942:	8f af       	std	Y+63, r24	; 0x3f
    4944:	69 97       	sbiw	r28, 0x19	; 25
    4946:	68 96       	adiw	r28, 0x18	; 24
    4948:	9f ad       	ldd	r25, Y+63	; 0x3f
    494a:	68 97       	sbiw	r28, 0x18	; 24
    494c:	2f 96       	adiw	r28, 0x0f	; 15
    494e:	8f ad       	ldd	r24, Y+63	; 0x3f
    4950:	2f 97       	sbiw	r28, 0x0f	; 15
    4952:	98 17       	cp	r25, r24
    4954:	18 f0       	brcs	.+6      	; 0x495c <CLCD_voidSendNumber+0x410>
    4956:	69 96       	adiw	r28, 0x19	; 25
    4958:	1f ae       	std	Y+63, r1	; 0x3f
    495a:	69 97       	sbiw	r28, 0x19	; 25
    495c:	67 96       	adiw	r28, 0x17	; 23
    495e:	9f ad       	ldd	r25, Y+63	; 0x3f
    4960:	67 97       	sbiw	r28, 0x17	; 23
    4962:	69 96       	adiw	r28, 0x19	; 25
    4964:	8f ad       	ldd	r24, Y+63	; 0x3f
    4966:	69 97       	sbiw	r28, 0x19	; 25
    4968:	98 2b       	or	r25, r24
    496a:	67 96       	adiw	r28, 0x17	; 23
    496c:	9f af       	std	Y+63, r25	; 0x3f
    496e:	67 97       	sbiw	r28, 0x17	; 23
    4970:	68 96       	adiw	r28, 0x18	; 24
    4972:	9f ad       	ldd	r25, Y+63	; 0x3f
    4974:	68 97       	sbiw	r28, 0x18	; 24
    4976:	2f 96       	adiw	r28, 0x0f	; 15
    4978:	9f af       	std	Y+63, r25	; 0x3f
    497a:	2f 97       	sbiw	r28, 0x0f	; 15
    497c:	8f ad       	ldd	r24, Y+63	; 0x3f
    497e:	28 96       	adiw	r28, 0x08	; 8
    4980:	9f ad       	ldd	r25, Y+63	; 0x3f
    4982:	28 97       	sbiw	r28, 0x08	; 8
    4984:	89 0f       	add	r24, r25
    4986:	60 96       	adiw	r28, 0x10	; 16
    4988:	8f af       	std	Y+63, r24	; 0x3f
    498a:	60 97       	sbiw	r28, 0x10	; 16
    498c:	81 e0       	ldi	r24, 0x01	; 1
    498e:	6a 96       	adiw	r28, 0x1a	; 26
    4990:	8f af       	std	Y+63, r24	; 0x3f
    4992:	6a 97       	sbiw	r28, 0x1a	; 26
    4994:	60 96       	adiw	r28, 0x10	; 16
    4996:	9f ad       	ldd	r25, Y+63	; 0x3f
    4998:	60 97       	sbiw	r28, 0x10	; 16
    499a:	8f ad       	ldd	r24, Y+63	; 0x3f
    499c:	98 17       	cp	r25, r24
    499e:	18 f0       	brcs	.+6      	; 0x49a6 <CLCD_voidSendNumber+0x45a>
    49a0:	6a 96       	adiw	r28, 0x1a	; 26
    49a2:	1f ae       	std	Y+63, r1	; 0x3f
    49a4:	6a 97       	sbiw	r28, 0x1a	; 26
    49a6:	67 96       	adiw	r28, 0x17	; 23
    49a8:	9f ad       	ldd	r25, Y+63	; 0x3f
    49aa:	67 97       	sbiw	r28, 0x17	; 23
    49ac:	60 96       	adiw	r28, 0x10	; 16
    49ae:	8f ad       	ldd	r24, Y+63	; 0x3f
    49b0:	60 97       	sbiw	r28, 0x10	; 16
    49b2:	98 0f       	add	r25, r24
    49b4:	6b 96       	adiw	r28, 0x1b	; 27
    49b6:	9f af       	std	Y+63, r25	; 0x3f
    49b8:	6b 97       	sbiw	r28, 0x1b	; 27
    49ba:	91 e0       	ldi	r25, 0x01	; 1
    49bc:	6c 96       	adiw	r28, 0x1c	; 28
    49be:	9f af       	std	Y+63, r25	; 0x3f
    49c0:	6c 97       	sbiw	r28, 0x1c	; 28
    49c2:	6b 96       	adiw	r28, 0x1b	; 27
    49c4:	8f ad       	ldd	r24, Y+63	; 0x3f
    49c6:	6b 97       	sbiw	r28, 0x1b	; 27
    49c8:	60 96       	adiw	r28, 0x10	; 16
    49ca:	9f ad       	ldd	r25, Y+63	; 0x3f
    49cc:	60 97       	sbiw	r28, 0x10	; 16
    49ce:	89 17       	cp	r24, r25
    49d0:	18 f0       	brcs	.+6      	; 0x49d8 <CLCD_voidSendNumber+0x48c>
    49d2:	6c 96       	adiw	r28, 0x1c	; 28
    49d4:	1f ae       	std	Y+63, r1	; 0x3f
    49d6:	6c 97       	sbiw	r28, 0x1c	; 28
    49d8:	6a 96       	adiw	r28, 0x1a	; 26
    49da:	8f ad       	ldd	r24, Y+63	; 0x3f
    49dc:	6a 97       	sbiw	r28, 0x1a	; 26
    49de:	6c 96       	adiw	r28, 0x1c	; 28
    49e0:	9f ad       	ldd	r25, Y+63	; 0x3f
    49e2:	6c 97       	sbiw	r28, 0x1c	; 28
    49e4:	89 2b       	or	r24, r25
    49e6:	6a 96       	adiw	r28, 0x1a	; 26
    49e8:	8f af       	std	Y+63, r24	; 0x3f
    49ea:	6a 97       	sbiw	r28, 0x1a	; 26
    49ec:	6b 96       	adiw	r28, 0x1b	; 27
    49ee:	8f ad       	ldd	r24, Y+63	; 0x3f
    49f0:	6b 97       	sbiw	r28, 0x1b	; 27
    49f2:	60 96       	adiw	r28, 0x10	; 16
    49f4:	8f af       	std	Y+63, r24	; 0x3f
    49f6:	60 97       	sbiw	r28, 0x10	; 16
    49f8:	21 96       	adiw	r28, 0x01	; 1
    49fa:	9f ad       	ldd	r25, Y+63	; 0x3f
    49fc:	21 97       	sbiw	r28, 0x01	; 1
    49fe:	29 96       	adiw	r28, 0x09	; 9
    4a00:	8f ad       	ldd	r24, Y+63	; 0x3f
    4a02:	29 97       	sbiw	r28, 0x09	; 9
    4a04:	98 0f       	add	r25, r24
    4a06:	61 96       	adiw	r28, 0x11	; 17
    4a08:	9f af       	std	Y+63, r25	; 0x3f
    4a0a:	61 97       	sbiw	r28, 0x11	; 17
    4a0c:	91 e0       	ldi	r25, 0x01	; 1
    4a0e:	6d 96       	adiw	r28, 0x1d	; 29
    4a10:	9f af       	std	Y+63, r25	; 0x3f
    4a12:	6d 97       	sbiw	r28, 0x1d	; 29
    4a14:	61 96       	adiw	r28, 0x11	; 17
    4a16:	8f ad       	ldd	r24, Y+63	; 0x3f
    4a18:	61 97       	sbiw	r28, 0x11	; 17
    4a1a:	21 96       	adiw	r28, 0x01	; 1
    4a1c:	9f ad       	ldd	r25, Y+63	; 0x3f
    4a1e:	21 97       	sbiw	r28, 0x01	; 1
    4a20:	89 17       	cp	r24, r25
    4a22:	18 f0       	brcs	.+6      	; 0x4a2a <CLCD_voidSendNumber+0x4de>
    4a24:	6d 96       	adiw	r28, 0x1d	; 29
    4a26:	1f ae       	std	Y+63, r1	; 0x3f
    4a28:	6d 97       	sbiw	r28, 0x1d	; 29
    4a2a:	6a 96       	adiw	r28, 0x1a	; 26
    4a2c:	8f ad       	ldd	r24, Y+63	; 0x3f
    4a2e:	6a 97       	sbiw	r28, 0x1a	; 26
    4a30:	61 96       	adiw	r28, 0x11	; 17
    4a32:	9f ad       	ldd	r25, Y+63	; 0x3f
    4a34:	61 97       	sbiw	r28, 0x11	; 17
    4a36:	89 0f       	add	r24, r25
    4a38:	6e 96       	adiw	r28, 0x1e	; 30
    4a3a:	8f af       	std	Y+63, r24	; 0x3f
    4a3c:	6e 97       	sbiw	r28, 0x1e	; 30
    4a3e:	81 e0       	ldi	r24, 0x01	; 1
    4a40:	6f 96       	adiw	r28, 0x1f	; 31
    4a42:	8f af       	std	Y+63, r24	; 0x3f
    4a44:	6f 97       	sbiw	r28, 0x1f	; 31
    4a46:	6e 96       	adiw	r28, 0x1e	; 30
    4a48:	9f ad       	ldd	r25, Y+63	; 0x3f
    4a4a:	6e 97       	sbiw	r28, 0x1e	; 30
    4a4c:	61 96       	adiw	r28, 0x11	; 17
    4a4e:	8f ad       	ldd	r24, Y+63	; 0x3f
    4a50:	61 97       	sbiw	r28, 0x11	; 17
    4a52:	98 17       	cp	r25, r24
    4a54:	18 f0       	brcs	.+6      	; 0x4a5c <CLCD_voidSendNumber+0x510>
    4a56:	6f 96       	adiw	r28, 0x1f	; 31
    4a58:	1f ae       	std	Y+63, r1	; 0x3f
    4a5a:	6f 97       	sbiw	r28, 0x1f	; 31
    4a5c:	6d 96       	adiw	r28, 0x1d	; 29
    4a5e:	9f ad       	ldd	r25, Y+63	; 0x3f
    4a60:	6d 97       	sbiw	r28, 0x1d	; 29
    4a62:	6f 96       	adiw	r28, 0x1f	; 31
    4a64:	8f ad       	ldd	r24, Y+63	; 0x3f
    4a66:	6f 97       	sbiw	r28, 0x1f	; 31
    4a68:	98 2b       	or	r25, r24
    4a6a:	6d 96       	adiw	r28, 0x1d	; 29
    4a6c:	9f af       	std	Y+63, r25	; 0x3f
    4a6e:	6d 97       	sbiw	r28, 0x1d	; 29
    4a70:	6e 96       	adiw	r28, 0x1e	; 30
    4a72:	9f ad       	ldd	r25, Y+63	; 0x3f
    4a74:	6e 97       	sbiw	r28, 0x1e	; 30
    4a76:	61 96       	adiw	r28, 0x11	; 17
    4a78:	9f af       	std	Y+63, r25	; 0x3f
    4a7a:	61 97       	sbiw	r28, 0x11	; 17
    4a7c:	22 96       	adiw	r28, 0x02	; 2
    4a7e:	8f ad       	ldd	r24, Y+63	; 0x3f
    4a80:	22 97       	sbiw	r28, 0x02	; 2
    4a82:	2a 96       	adiw	r28, 0x0a	; 10
    4a84:	9f ad       	ldd	r25, Y+63	; 0x3f
    4a86:	2a 97       	sbiw	r28, 0x0a	; 10
    4a88:	89 0f       	add	r24, r25
    4a8a:	62 96       	adiw	r28, 0x12	; 18
    4a8c:	8f af       	std	Y+63, r24	; 0x3f
    4a8e:	62 97       	sbiw	r28, 0x12	; 18
    4a90:	81 e0       	ldi	r24, 0x01	; 1
    4a92:	a0 96       	adiw	r28, 0x20	; 32
    4a94:	8f af       	std	Y+63, r24	; 0x3f
    4a96:	a0 97       	sbiw	r28, 0x20	; 32
    4a98:	62 96       	adiw	r28, 0x12	; 18
    4a9a:	9f ad       	ldd	r25, Y+63	; 0x3f
    4a9c:	62 97       	sbiw	r28, 0x12	; 18
    4a9e:	22 96       	adiw	r28, 0x02	; 2
    4aa0:	8f ad       	ldd	r24, Y+63	; 0x3f
    4aa2:	22 97       	sbiw	r28, 0x02	; 2
    4aa4:	98 17       	cp	r25, r24
    4aa6:	18 f0       	brcs	.+6      	; 0x4aae <CLCD_voidSendNumber+0x562>
    4aa8:	a0 96       	adiw	r28, 0x20	; 32
    4aaa:	1f ae       	std	Y+63, r1	; 0x3f
    4aac:	a0 97       	sbiw	r28, 0x20	; 32
    4aae:	6d 96       	adiw	r28, 0x1d	; 29
    4ab0:	9f ad       	ldd	r25, Y+63	; 0x3f
    4ab2:	6d 97       	sbiw	r28, 0x1d	; 29
    4ab4:	62 96       	adiw	r28, 0x12	; 18
    4ab6:	8f ad       	ldd	r24, Y+63	; 0x3f
    4ab8:	62 97       	sbiw	r28, 0x12	; 18
    4aba:	98 0f       	add	r25, r24
    4abc:	a1 96       	adiw	r28, 0x21	; 33
    4abe:	9f af       	std	Y+63, r25	; 0x3f
    4ac0:	a1 97       	sbiw	r28, 0x21	; 33
    4ac2:	91 e0       	ldi	r25, 0x01	; 1
    4ac4:	a2 96       	adiw	r28, 0x22	; 34
    4ac6:	9f af       	std	Y+63, r25	; 0x3f
    4ac8:	a2 97       	sbiw	r28, 0x22	; 34
    4aca:	a1 96       	adiw	r28, 0x21	; 33
    4acc:	8f ad       	ldd	r24, Y+63	; 0x3f
    4ace:	a1 97       	sbiw	r28, 0x21	; 33
    4ad0:	62 96       	adiw	r28, 0x12	; 18
    4ad2:	9f ad       	ldd	r25, Y+63	; 0x3f
    4ad4:	62 97       	sbiw	r28, 0x12	; 18
    4ad6:	89 17       	cp	r24, r25
    4ad8:	18 f0       	brcs	.+6      	; 0x4ae0 <CLCD_voidSendNumber+0x594>
    4ada:	a2 96       	adiw	r28, 0x22	; 34
    4adc:	1f ae       	std	Y+63, r1	; 0x3f
    4ade:	a2 97       	sbiw	r28, 0x22	; 34
    4ae0:	a0 96       	adiw	r28, 0x20	; 32
    4ae2:	8f ad       	ldd	r24, Y+63	; 0x3f
    4ae4:	a0 97       	sbiw	r28, 0x20	; 32
    4ae6:	a2 96       	adiw	r28, 0x22	; 34
    4ae8:	9f ad       	ldd	r25, Y+63	; 0x3f
    4aea:	a2 97       	sbiw	r28, 0x22	; 34
    4aec:	89 2b       	or	r24, r25
    4aee:	a0 96       	adiw	r28, 0x20	; 32
    4af0:	8f af       	std	Y+63, r24	; 0x3f
    4af2:	a0 97       	sbiw	r28, 0x20	; 32
    4af4:	a1 96       	adiw	r28, 0x21	; 33
    4af6:	8f ad       	ldd	r24, Y+63	; 0x3f
    4af8:	a1 97       	sbiw	r28, 0x21	; 33
    4afa:	62 96       	adiw	r28, 0x12	; 18
    4afc:	8f af       	std	Y+63, r24	; 0x3f
    4afe:	62 97       	sbiw	r28, 0x12	; 18
    4b00:	23 96       	adiw	r28, 0x03	; 3
    4b02:	9f ad       	ldd	r25, Y+63	; 0x3f
    4b04:	23 97       	sbiw	r28, 0x03	; 3
    4b06:	2b 96       	adiw	r28, 0x0b	; 11
    4b08:	8f ad       	ldd	r24, Y+63	; 0x3f
    4b0a:	2b 97       	sbiw	r28, 0x0b	; 11
    4b0c:	98 0f       	add	r25, r24
    4b0e:	63 96       	adiw	r28, 0x13	; 19
    4b10:	9f af       	std	Y+63, r25	; 0x3f
    4b12:	63 97       	sbiw	r28, 0x13	; 19
    4b14:	91 e0       	ldi	r25, 0x01	; 1
    4b16:	a3 96       	adiw	r28, 0x23	; 35
    4b18:	9f af       	std	Y+63, r25	; 0x3f
    4b1a:	a3 97       	sbiw	r28, 0x23	; 35
    4b1c:	63 96       	adiw	r28, 0x13	; 19
    4b1e:	8f ad       	ldd	r24, Y+63	; 0x3f
    4b20:	63 97       	sbiw	r28, 0x13	; 19
    4b22:	23 96       	adiw	r28, 0x03	; 3
    4b24:	9f ad       	ldd	r25, Y+63	; 0x3f
    4b26:	23 97       	sbiw	r28, 0x03	; 3
    4b28:	89 17       	cp	r24, r25
    4b2a:	18 f0       	brcs	.+6      	; 0x4b32 <CLCD_voidSendNumber+0x5e6>
    4b2c:	a3 96       	adiw	r28, 0x23	; 35
    4b2e:	1f ae       	std	Y+63, r1	; 0x3f
    4b30:	a3 97       	sbiw	r28, 0x23	; 35
    4b32:	a0 96       	adiw	r28, 0x20	; 32
    4b34:	8f ad       	ldd	r24, Y+63	; 0x3f
    4b36:	a0 97       	sbiw	r28, 0x20	; 32
    4b38:	63 96       	adiw	r28, 0x13	; 19
    4b3a:	9f ad       	ldd	r25, Y+63	; 0x3f
    4b3c:	63 97       	sbiw	r28, 0x13	; 19
    4b3e:	89 0f       	add	r24, r25
    4b40:	a4 96       	adiw	r28, 0x24	; 36
    4b42:	8f af       	std	Y+63, r24	; 0x3f
    4b44:	a4 97       	sbiw	r28, 0x24	; 36
    4b46:	81 e0       	ldi	r24, 0x01	; 1
    4b48:	a5 96       	adiw	r28, 0x25	; 37
    4b4a:	8f af       	std	Y+63, r24	; 0x3f
    4b4c:	a5 97       	sbiw	r28, 0x25	; 37
    4b4e:	a4 96       	adiw	r28, 0x24	; 36
    4b50:	9f ad       	ldd	r25, Y+63	; 0x3f
    4b52:	a4 97       	sbiw	r28, 0x24	; 36
    4b54:	63 96       	adiw	r28, 0x13	; 19
    4b56:	8f ad       	ldd	r24, Y+63	; 0x3f
    4b58:	63 97       	sbiw	r28, 0x13	; 19
    4b5a:	98 17       	cp	r25, r24
    4b5c:	18 f0       	brcs	.+6      	; 0x4b64 <CLCD_voidSendNumber+0x618>
    4b5e:	a5 96       	adiw	r28, 0x25	; 37
    4b60:	1f ae       	std	Y+63, r1	; 0x3f
    4b62:	a5 97       	sbiw	r28, 0x25	; 37
    4b64:	a3 96       	adiw	r28, 0x23	; 35
    4b66:	9f ad       	ldd	r25, Y+63	; 0x3f
    4b68:	a3 97       	sbiw	r28, 0x23	; 35
    4b6a:	a5 96       	adiw	r28, 0x25	; 37
    4b6c:	8f ad       	ldd	r24, Y+63	; 0x3f
    4b6e:	a5 97       	sbiw	r28, 0x25	; 37
    4b70:	98 2b       	or	r25, r24
    4b72:	a3 96       	adiw	r28, 0x23	; 35
    4b74:	9f af       	std	Y+63, r25	; 0x3f
    4b76:	a3 97       	sbiw	r28, 0x23	; 35
    4b78:	a4 96       	adiw	r28, 0x24	; 36
    4b7a:	9f ad       	ldd	r25, Y+63	; 0x3f
    4b7c:	a4 97       	sbiw	r28, 0x24	; 36
    4b7e:	63 96       	adiw	r28, 0x13	; 19
    4b80:	9f af       	std	Y+63, r25	; 0x3f
    4b82:	63 97       	sbiw	r28, 0x13	; 19
    4b84:	24 96       	adiw	r28, 0x04	; 4
    4b86:	8f ad       	ldd	r24, Y+63	; 0x3f
    4b88:	24 97       	sbiw	r28, 0x04	; 4
    4b8a:	2c 96       	adiw	r28, 0x0c	; 12
    4b8c:	9f ad       	ldd	r25, Y+63	; 0x3f
    4b8e:	2c 97       	sbiw	r28, 0x0c	; 12
    4b90:	89 0f       	add	r24, r25
    4b92:	64 96       	adiw	r28, 0x14	; 20
    4b94:	8f af       	std	Y+63, r24	; 0x3f
    4b96:	64 97       	sbiw	r28, 0x14	; 20
    4b98:	81 e0       	ldi	r24, 0x01	; 1
    4b9a:	a6 96       	adiw	r28, 0x26	; 38
    4b9c:	8f af       	std	Y+63, r24	; 0x3f
    4b9e:	a6 97       	sbiw	r28, 0x26	; 38
    4ba0:	64 96       	adiw	r28, 0x14	; 20
    4ba2:	9f ad       	ldd	r25, Y+63	; 0x3f
    4ba4:	64 97       	sbiw	r28, 0x14	; 20
    4ba6:	24 96       	adiw	r28, 0x04	; 4
    4ba8:	8f ad       	ldd	r24, Y+63	; 0x3f
    4baa:	24 97       	sbiw	r28, 0x04	; 4
    4bac:	98 17       	cp	r25, r24
    4bae:	18 f0       	brcs	.+6      	; 0x4bb6 <CLCD_voidSendNumber+0x66a>
    4bb0:	a6 96       	adiw	r28, 0x26	; 38
    4bb2:	1f ae       	std	Y+63, r1	; 0x3f
    4bb4:	a6 97       	sbiw	r28, 0x26	; 38
    4bb6:	a3 96       	adiw	r28, 0x23	; 35
    4bb8:	9f ad       	ldd	r25, Y+63	; 0x3f
    4bba:	a3 97       	sbiw	r28, 0x23	; 35
    4bbc:	64 96       	adiw	r28, 0x14	; 20
    4bbe:	8f ad       	ldd	r24, Y+63	; 0x3f
    4bc0:	64 97       	sbiw	r28, 0x14	; 20
    4bc2:	98 0f       	add	r25, r24
    4bc4:	a7 96       	adiw	r28, 0x27	; 39
    4bc6:	9f af       	std	Y+63, r25	; 0x3f
    4bc8:	a7 97       	sbiw	r28, 0x27	; 39
    4bca:	91 e0       	ldi	r25, 0x01	; 1
    4bcc:	a8 96       	adiw	r28, 0x28	; 40
    4bce:	9f af       	std	Y+63, r25	; 0x3f
    4bd0:	a8 97       	sbiw	r28, 0x28	; 40
    4bd2:	a7 96       	adiw	r28, 0x27	; 39
    4bd4:	8f ad       	ldd	r24, Y+63	; 0x3f
    4bd6:	a7 97       	sbiw	r28, 0x27	; 39
    4bd8:	64 96       	adiw	r28, 0x14	; 20
    4bda:	9f ad       	ldd	r25, Y+63	; 0x3f
    4bdc:	64 97       	sbiw	r28, 0x14	; 20
    4bde:	89 17       	cp	r24, r25
    4be0:	18 f0       	brcs	.+6      	; 0x4be8 <CLCD_voidSendNumber+0x69c>
    4be2:	a8 96       	adiw	r28, 0x28	; 40
    4be4:	1f ae       	std	Y+63, r1	; 0x3f
    4be6:	a8 97       	sbiw	r28, 0x28	; 40
    4be8:	a6 96       	adiw	r28, 0x26	; 38
    4bea:	8f ad       	ldd	r24, Y+63	; 0x3f
    4bec:	a6 97       	sbiw	r28, 0x26	; 38
    4bee:	a8 96       	adiw	r28, 0x28	; 40
    4bf0:	9f ad       	ldd	r25, Y+63	; 0x3f
    4bf2:	a8 97       	sbiw	r28, 0x28	; 40
    4bf4:	89 2b       	or	r24, r25
    4bf6:	a6 96       	adiw	r28, 0x26	; 38
    4bf8:	8f af       	std	Y+63, r24	; 0x3f
    4bfa:	a6 97       	sbiw	r28, 0x26	; 38
    4bfc:	a7 96       	adiw	r28, 0x27	; 39
    4bfe:	8f ad       	ldd	r24, Y+63	; 0x3f
    4c00:	a7 97       	sbiw	r28, 0x27	; 39
    4c02:	64 96       	adiw	r28, 0x14	; 20
    4c04:	8f af       	std	Y+63, r24	; 0x3f
    4c06:	64 97       	sbiw	r28, 0x14	; 20
    4c08:	25 96       	adiw	r28, 0x05	; 5
    4c0a:	9f ad       	ldd	r25, Y+63	; 0x3f
    4c0c:	25 97       	sbiw	r28, 0x05	; 5
    4c0e:	2d 96       	adiw	r28, 0x0d	; 13
    4c10:	8f ad       	ldd	r24, Y+63	; 0x3f
    4c12:	2d 97       	sbiw	r28, 0x0d	; 13
    4c14:	98 0f       	add	r25, r24
    4c16:	65 96       	adiw	r28, 0x15	; 21
    4c18:	9f af       	std	Y+63, r25	; 0x3f
    4c1a:	65 97       	sbiw	r28, 0x15	; 21
    4c1c:	a6 96       	adiw	r28, 0x26	; 38
    4c1e:	8f ad       	ldd	r24, Y+63	; 0x3f
    4c20:	a6 97       	sbiw	r28, 0x26	; 38
    4c22:	65 96       	adiw	r28, 0x15	; 21
    4c24:	9f ad       	ldd	r25, Y+63	; 0x3f
    4c26:	65 97       	sbiw	r28, 0x15	; 21
    4c28:	89 0f       	add	r24, r25
    4c2a:	65 96       	adiw	r28, 0x15	; 21
    4c2c:	8f af       	std	Y+63, r24	; 0x3f
    4c2e:	65 97       	sbiw	r28, 0x15	; 21
    4c30:	2e 96       	adiw	r28, 0x0e	; 14
    4c32:	8f ad       	ldd	r24, Y+63	; 0x3f
    4c34:	2e 97       	sbiw	r28, 0x0e	; 14
    4c36:	8a 83       	std	Y+2, r24	; 0x02
    4c38:	2f 96       	adiw	r28, 0x0f	; 15
    4c3a:	9f ad       	ldd	r25, Y+63	; 0x3f
    4c3c:	2f 97       	sbiw	r28, 0x0f	; 15
    4c3e:	9b 83       	std	Y+3, r25	; 0x03
    4c40:	60 96       	adiw	r28, 0x10	; 16
    4c42:	8f ad       	ldd	r24, Y+63	; 0x3f
    4c44:	60 97       	sbiw	r28, 0x10	; 16
    4c46:	8c 83       	std	Y+4, r24	; 0x04
    4c48:	61 96       	adiw	r28, 0x11	; 17
    4c4a:	9f ad       	ldd	r25, Y+63	; 0x3f
    4c4c:	61 97       	sbiw	r28, 0x11	; 17
    4c4e:	9d 83       	std	Y+5, r25	; 0x05
    4c50:	62 96       	adiw	r28, 0x12	; 18
    4c52:	8f ad       	ldd	r24, Y+63	; 0x3f
    4c54:	62 97       	sbiw	r28, 0x12	; 18
    4c56:	8e 83       	std	Y+6, r24	; 0x06
    4c58:	63 96       	adiw	r28, 0x13	; 19
    4c5a:	9f ad       	ldd	r25, Y+63	; 0x3f
    4c5c:	63 97       	sbiw	r28, 0x13	; 19
    4c5e:	9f 83       	std	Y+7, r25	; 0x07
    4c60:	64 96       	adiw	r28, 0x14	; 20
    4c62:	8f ad       	ldd	r24, Y+63	; 0x3f
    4c64:	64 97       	sbiw	r28, 0x14	; 20
    4c66:	88 87       	std	Y+8, r24	; 0x08
    4c68:	65 96       	adiw	r28, 0x15	; 21
    4c6a:	9f ad       	ldd	r25, Y+63	; 0x3f
    4c6c:	65 97       	sbiw	r28, 0x15	; 21
    4c6e:	99 87       	std	Y+9, r25	; 0x09
}

void CLCD_voidSendNumber(u64 Copy_u64Number)
{
	u64 LOC_u64R_Number=0;
		while(Copy_u64Number!=0)
    4c70:	8a 85       	ldd	r24, Y+10	; 0x0a
    4c72:	9b 85       	ldd	r25, Y+11	; 0x0b
    4c74:	89 2b       	or	r24, r25
    4c76:	9c 85       	ldd	r25, Y+12	; 0x0c
    4c78:	89 2b       	or	r24, r25
    4c7a:	9d 85       	ldd	r25, Y+13	; 0x0d
    4c7c:	89 2b       	or	r24, r25
    4c7e:	9e 85       	ldd	r25, Y+14	; 0x0e
    4c80:	89 2b       	or	r24, r25
    4c82:	9f 85       	ldd	r25, Y+15	; 0x0f
    4c84:	89 2b       	or	r24, r25
    4c86:	98 89       	ldd	r25, Y+16	; 0x10
    4c88:	89 2b       	or	r24, r25
    4c8a:	99 89       	ldd	r25, Y+17	; 0x11
    4c8c:	89 2b       	or	r24, r25
    4c8e:	88 23       	and	r24, r24
    4c90:	09 f0       	breq	.+2      	; 0x4c94 <CLCD_voidSendNumber+0x748>
    4c92:	80 cc       	rjmp	.-1792   	; 0x4594 <CLCD_voidSendNumber+0x48>
			if(Copy_u64Number != 0)
				LOC_u64R_Number*=10;

		}

	u8 Loc_u8NumberToSend =0;
    4c94:	19 82       	std	Y+1, r1	; 0x01
    4c96:	61 c0       	rjmp	.+194    	; 0x4d5a <CLCD_voidSendNumber+0x80e>
	while(LOC_u64R_Number != 0)
	{
		Loc_u8NumberToSend=LOC_u64R_Number%10;
    4c98:	aa 80       	ldd	r10, Y+2	; 0x02
    4c9a:	bb 80       	ldd	r11, Y+3	; 0x03
    4c9c:	cc 80       	ldd	r12, Y+4	; 0x04
    4c9e:	dd 80       	ldd	r13, Y+5	; 0x05
    4ca0:	ee 80       	ldd	r14, Y+6	; 0x06
    4ca2:	ff 80       	ldd	r15, Y+7	; 0x07
    4ca4:	08 85       	ldd	r16, Y+8	; 0x08
    4ca6:	19 85       	ldd	r17, Y+9	; 0x09
    4ca8:	2a 2d       	mov	r18, r10
    4caa:	3b 2d       	mov	r19, r11
    4cac:	4c 2d       	mov	r20, r12
    4cae:	5d 2d       	mov	r21, r13
    4cb0:	6e 2d       	mov	r22, r14
    4cb2:	7f 2d       	mov	r23, r15
    4cb4:	80 2f       	mov	r24, r16
    4cb6:	91 2f       	mov	r25, r17
    4cb8:	0f 2e       	mov	r0, r31
    4cba:	fa e0       	ldi	r31, 0x0A	; 10
    4cbc:	af 2e       	mov	r10, r31
    4cbe:	f0 2d       	mov	r31, r0
    4cc0:	bb 24       	eor	r11, r11
    4cc2:	cc 24       	eor	r12, r12
    4cc4:	dd 24       	eor	r13, r13
    4cc6:	ee 24       	eor	r14, r14
    4cc8:	ff 24       	eor	r15, r15
    4cca:	00 e0       	ldi	r16, 0x00	; 0
    4ccc:	10 e0       	ldi	r17, 0x00	; 0
    4cce:	0e 94 61 07 	call	0xec2	; 0xec2 <__umoddi3>
    4cd2:	a2 2e       	mov	r10, r18
    4cd4:	b3 2e       	mov	r11, r19
    4cd6:	c4 2e       	mov	r12, r20
    4cd8:	d5 2e       	mov	r13, r21
    4cda:	e6 2e       	mov	r14, r22
    4cdc:	f7 2e       	mov	r15, r23
    4cde:	08 2f       	mov	r16, r24
    4ce0:	19 2f       	mov	r17, r25
    4ce2:	2a 2d       	mov	r18, r10
    4ce4:	3b 2d       	mov	r19, r11
    4ce6:	4c 2d       	mov	r20, r12
    4ce8:	5d 2d       	mov	r21, r13
    4cea:	6e 2d       	mov	r22, r14
    4cec:	7f 2d       	mov	r23, r15
    4cee:	80 2f       	mov	r24, r16
    4cf0:	91 2f       	mov	r25, r17
    4cf2:	29 83       	std	Y+1, r18	; 0x01
		LOC_u64R_Number/=10;
    4cf4:	aa 80       	ldd	r10, Y+2	; 0x02
    4cf6:	bb 80       	ldd	r11, Y+3	; 0x03
    4cf8:	cc 80       	ldd	r12, Y+4	; 0x04
    4cfa:	dd 80       	ldd	r13, Y+5	; 0x05
    4cfc:	ee 80       	ldd	r14, Y+6	; 0x06
    4cfe:	ff 80       	ldd	r15, Y+7	; 0x07
    4d00:	08 85       	ldd	r16, Y+8	; 0x08
    4d02:	19 85       	ldd	r17, Y+9	; 0x09
    4d04:	2a 2d       	mov	r18, r10
    4d06:	3b 2d       	mov	r19, r11
    4d08:	4c 2d       	mov	r20, r12
    4d0a:	5d 2d       	mov	r21, r13
    4d0c:	6e 2d       	mov	r22, r14
    4d0e:	7f 2d       	mov	r23, r15
    4d10:	80 2f       	mov	r24, r16
    4d12:	91 2f       	mov	r25, r17
    4d14:	0f 2e       	mov	r0, r31
    4d16:	fa e0       	ldi	r31, 0x0A	; 10
    4d18:	af 2e       	mov	r10, r31
    4d1a:	f0 2d       	mov	r31, r0
    4d1c:	bb 24       	eor	r11, r11
    4d1e:	cc 24       	eor	r12, r12
    4d20:	dd 24       	eor	r13, r13
    4d22:	ee 24       	eor	r14, r14
    4d24:	ff 24       	eor	r15, r15
    4d26:	00 e0       	ldi	r16, 0x00	; 0
    4d28:	10 e0       	ldi	r17, 0x00	; 0
    4d2a:	0e 94 ec 00 	call	0x1d8	; 0x1d8 <__udivdi3>
    4d2e:	a2 2e       	mov	r10, r18
    4d30:	b3 2e       	mov	r11, r19
    4d32:	c4 2e       	mov	r12, r20
    4d34:	d5 2e       	mov	r13, r21
    4d36:	e6 2e       	mov	r14, r22
    4d38:	f7 2e       	mov	r15, r23
    4d3a:	08 2f       	mov	r16, r24
    4d3c:	19 2f       	mov	r17, r25
    4d3e:	aa 82       	std	Y+2, r10	; 0x02
    4d40:	bb 82       	std	Y+3, r11	; 0x03
    4d42:	cc 82       	std	Y+4, r12	; 0x04
    4d44:	dd 82       	std	Y+5, r13	; 0x05
    4d46:	ee 82       	std	Y+6, r14	; 0x06
    4d48:	ff 82       	std	Y+7, r15	; 0x07
    4d4a:	08 87       	std	Y+8, r16	; 0x08
    4d4c:	19 87       	std	Y+9, r17	; 0x09
		Loc_u8NumberToSend+=48;
    4d4e:	89 81       	ldd	r24, Y+1	; 0x01
    4d50:	80 5d       	subi	r24, 0xD0	; 208
    4d52:	89 83       	std	Y+1, r24	; 0x01
		CLCD_voidSendChar(Loc_u8NumberToSend);
    4d54:	89 81       	ldd	r24, Y+1	; 0x01
    4d56:	0e 94 5d 20 	call	0x40ba	; 0x40ba <CLCD_voidSendChar>
				LOC_u64R_Number*=10;

		}

	u8 Loc_u8NumberToSend =0;
	while(LOC_u64R_Number != 0)
    4d5a:	8a 81       	ldd	r24, Y+2	; 0x02
    4d5c:	9b 81       	ldd	r25, Y+3	; 0x03
    4d5e:	89 2b       	or	r24, r25
    4d60:	9c 81       	ldd	r25, Y+4	; 0x04
    4d62:	89 2b       	or	r24, r25
    4d64:	9d 81       	ldd	r25, Y+5	; 0x05
    4d66:	89 2b       	or	r24, r25
    4d68:	9e 81       	ldd	r25, Y+6	; 0x06
    4d6a:	89 2b       	or	r24, r25
    4d6c:	9f 81       	ldd	r25, Y+7	; 0x07
    4d6e:	89 2b       	or	r24, r25
    4d70:	98 85       	ldd	r25, Y+8	; 0x08
    4d72:	89 2b       	or	r24, r25
    4d74:	99 85       	ldd	r25, Y+9	; 0x09
    4d76:	89 2b       	or	r24, r25
    4d78:	88 23       	and	r24, r24
    4d7a:	09 f0       	breq	.+2      	; 0x4d7e <CLCD_voidSendNumber+0x832>
    4d7c:	8d cf       	rjmp	.-230    	; 0x4c98 <CLCD_voidSendNumber+0x74c>
		LOC_u64R_Number/=10;
		Loc_u8NumberToSend+=48;
		CLCD_voidSendChar(Loc_u8NumberToSend);
	}

}
    4d7e:	c9 59       	subi	r28, 0x99	; 153
    4d80:	df 4f       	sbci	r29, 0xFF	; 255
    4d82:	0f b6       	in	r0, 0x3f	; 63
    4d84:	f8 94       	cli
    4d86:	de bf       	out	0x3e, r29	; 62
    4d88:	0f be       	out	0x3f, r0	; 63
    4d8a:	cd bf       	out	0x3d, r28	; 61
    4d8c:	cf 91       	pop	r28
    4d8e:	df 91       	pop	r29
    4d90:	1f 91       	pop	r17
    4d92:	0f 91       	pop	r16
    4d94:	ff 90       	pop	r15
    4d96:	ef 90       	pop	r14
    4d98:	df 90       	pop	r13
    4d9a:	cf 90       	pop	r12
    4d9c:	bf 90       	pop	r11
    4d9e:	af 90       	pop	r10
    4da0:	08 95       	ret

00004da2 <CLCD_voidSetPosition>:

void CLCD_voidSetPosition(u8 Copy_u8Row ,u8 Copy_u8Col)
{
    4da2:	df 93       	push	r29
    4da4:	cf 93       	push	r28
    4da6:	00 d0       	rcall	.+0      	; 0x4da8 <CLCD_voidSetPosition+0x6>
    4da8:	cd b7       	in	r28, 0x3d	; 61
    4daa:	de b7       	in	r29, 0x3e	; 62
    4dac:	89 83       	std	Y+1, r24	; 0x01
    4dae:	6a 83       	std	Y+2, r22	; 0x02

	if(Copy_u8Row == CLCD_ROW_1)
    4db0:	89 81       	ldd	r24, Y+1	; 0x01
    4db2:	81 30       	cpi	r24, 0x01	; 1
    4db4:	29 f4       	brne	.+10     	; 0x4dc0 <CLCD_voidSetPosition+0x1e>
	{
			CLCD_voidSendCommand(CLCD_ROW_1_ADD +(Copy_u8Col-1));
    4db6:	8a 81       	ldd	r24, Y+2	; 0x02
    4db8:	81 58       	subi	r24, 0x81	; 129
    4dba:	0e 94 6d 21 	call	0x42da	; 0x42da <CLCD_voidSendCommand>
    4dbe:	07 c0       	rjmp	.+14     	; 0x4dce <CLCD_voidSetPosition+0x2c>

	}
	else if(Copy_u8Row == CLCD_ROW_2)
    4dc0:	89 81       	ldd	r24, Y+1	; 0x01
    4dc2:	82 30       	cpi	r24, 0x02	; 2
    4dc4:	21 f4       	brne	.+8      	; 0x4dce <CLCD_voidSetPosition+0x2c>
	{
		CLCD_voidSendCommand(CLCD_ROW_2_ADD+(Copy_u8Col-1));
    4dc6:	8a 81       	ldd	r24, Y+2	; 0x02
    4dc8:	81 54       	subi	r24, 0x41	; 65
    4dca:	0e 94 6d 21 	call	0x42da	; 0x42da <CLCD_voidSendCommand>
	}
}
    4dce:	0f 90       	pop	r0
    4dd0:	0f 90       	pop	r0
    4dd2:	cf 91       	pop	r28
    4dd4:	df 91       	pop	r29
    4dd6:	08 95       	ret

00004dd8 <CLCD_voidCustomChar>:
void CLCD_voidCustomChar(void)
{
    4dd8:	df 93       	push	r29
    4dda:	cf 93       	push	r28
    4ddc:	0f 92       	push	r0
    4dde:	cd b7       	in	r28, 0x3d	; 61
    4de0:	de b7       	in	r29, 0x3e	; 62
CLCD_voidSendCommand(CLCD_CGRAM_ADD);
    4de2:	80 e4       	ldi	r24, 0x40	; 64
    4de4:	0e 94 6d 21 	call	0x42da	; 0x42da <CLCD_voidSendCommand>
for(u8 i =0;i<sizeof(CustomeChar)/sizeof(CustomeChar[0]);i++)
    4de8:	19 82       	std	Y+1, r1	; 0x01
    4dea:	0c c0       	rjmp	.+24     	; 0x4e04 <CLCD_voidCustomChar+0x2c>
{
	CLCD_voidSendChar(CustomeChar[i]);
    4dec:	89 81       	ldd	r24, Y+1	; 0x01
    4dee:	88 2f       	mov	r24, r24
    4df0:	90 e0       	ldi	r25, 0x00	; 0
    4df2:	fc 01       	movw	r30, r24
    4df4:	e2 53       	subi	r30, 0x32	; 50
    4df6:	fe 4f       	sbci	r31, 0xFE	; 254
    4df8:	80 81       	ld	r24, Z
    4dfa:	0e 94 5d 20 	call	0x40ba	; 0x40ba <CLCD_voidSendChar>
	}
}
void CLCD_voidCustomChar(void)
{
CLCD_voidSendCommand(CLCD_CGRAM_ADD);
for(u8 i =0;i<sizeof(CustomeChar)/sizeof(CustomeChar[0]);i++)
    4dfe:	89 81       	ldd	r24, Y+1	; 0x01
    4e00:	8f 5f       	subi	r24, 0xFF	; 255
    4e02:	89 83       	std	Y+1, r24	; 0x01
    4e04:	89 81       	ldd	r24, Y+1	; 0x01
    4e06:	88 31       	cpi	r24, 0x18	; 24
    4e08:	88 f3       	brcs	.-30     	; 0x4dec <CLCD_voidCustomChar+0x14>
{
	CLCD_voidSendChar(CustomeChar[i]);


}
CLCD_voidSetPosition(CLCD_ROW_1,CLCD_COL_1);
    4e0a:	81 e0       	ldi	r24, 0x01	; 1
    4e0c:	61 e0       	ldi	r22, 0x01	; 1
    4e0e:	0e 94 d1 26 	call	0x4da2	; 0x4da2 <CLCD_voidSetPosition>
}
    4e12:	0f 90       	pop	r0
    4e14:	cf 91       	pop	r28
    4e16:	df 91       	pop	r29
    4e18:	08 95       	ret

00004e1a <KPD_voidInit>:
#include "KPD_private.h"
#include "KPD_config.h"


void KPD_voidInit(void)
{
    4e1a:	df 93       	push	r29
    4e1c:	cf 93       	push	r28
    4e1e:	cd b7       	in	r28, 0x3d	; 61
    4e20:	de b7       	in	r29, 0x3e	; 62
	DIO_enumSetPINDirection(KPD_PORT,KPD_R0,DIO_INPUT);
    4e22:	84 e0       	ldi	r24, 0x04	; 4
    4e24:	60 e0       	ldi	r22, 0x00	; 0
    4e26:	40 e0       	ldi	r20, 0x00	; 0
    4e28:	0e 94 45 1a 	call	0x348a	; 0x348a <DIO_enumSetPINDirection>
	DIO_enumSetPINDirection(KPD_PORT,KPD_R1,DIO_INPUT);
    4e2c:	84 e0       	ldi	r24, 0x04	; 4
    4e2e:	61 e0       	ldi	r22, 0x01	; 1
    4e30:	40 e0       	ldi	r20, 0x00	; 0
    4e32:	0e 94 45 1a 	call	0x348a	; 0x348a <DIO_enumSetPINDirection>
	DIO_enumSetPINDirection(KPD_PORT,KPD_R2,DIO_INPUT);
    4e36:	84 e0       	ldi	r24, 0x04	; 4
    4e38:	62 e0       	ldi	r22, 0x02	; 2
    4e3a:	40 e0       	ldi	r20, 0x00	; 0
    4e3c:	0e 94 45 1a 	call	0x348a	; 0x348a <DIO_enumSetPINDirection>
	DIO_enumSetPINDirection(KPD_PORT,KPD_R3,DIO_INPUT);
    4e40:	84 e0       	ldi	r24, 0x04	; 4
    4e42:	63 e0       	ldi	r22, 0x03	; 3
    4e44:	40 e0       	ldi	r20, 0x00	; 0
    4e46:	0e 94 45 1a 	call	0x348a	; 0x348a <DIO_enumSetPINDirection>

	DIO_enumSetPINValue(KPD_PORT,KPD_R0,DIO_HIGH);
    4e4a:	84 e0       	ldi	r24, 0x04	; 4
    4e4c:	60 e0       	ldi	r22, 0x00	; 0
    4e4e:	41 e0       	ldi	r20, 0x01	; 1
    4e50:	0e 94 49 1b 	call	0x3692	; 0x3692 <DIO_enumSetPINValue>
	DIO_enumSetPINValue(KPD_PORT,KPD_R1,DIO_HIGH);
    4e54:	84 e0       	ldi	r24, 0x04	; 4
    4e56:	61 e0       	ldi	r22, 0x01	; 1
    4e58:	41 e0       	ldi	r20, 0x01	; 1
    4e5a:	0e 94 49 1b 	call	0x3692	; 0x3692 <DIO_enumSetPINValue>
	DIO_enumSetPINValue(KPD_PORT,KPD_R2,DIO_HIGH);
    4e5e:	84 e0       	ldi	r24, 0x04	; 4
    4e60:	62 e0       	ldi	r22, 0x02	; 2
    4e62:	41 e0       	ldi	r20, 0x01	; 1
    4e64:	0e 94 49 1b 	call	0x3692	; 0x3692 <DIO_enumSetPINValue>
	DIO_enumSetPINValue(KPD_PORT,KPD_R3,DIO_HIGH);
    4e68:	84 e0       	ldi	r24, 0x04	; 4
    4e6a:	63 e0       	ldi	r22, 0x03	; 3
    4e6c:	41 e0       	ldi	r20, 0x01	; 1
    4e6e:	0e 94 49 1b 	call	0x3692	; 0x3692 <DIO_enumSetPINValue>

	DIO_enumSetPINDirection(KPD_PORT,KPD_C0,DIO_OUTPUT);
    4e72:	84 e0       	ldi	r24, 0x04	; 4
    4e74:	64 e0       	ldi	r22, 0x04	; 4
    4e76:	41 e0       	ldi	r20, 0x01	; 1
    4e78:	0e 94 45 1a 	call	0x348a	; 0x348a <DIO_enumSetPINDirection>
	DIO_enumSetPINDirection(KPD_PORT,KPD_C1,DIO_OUTPUT);
    4e7c:	84 e0       	ldi	r24, 0x04	; 4
    4e7e:	65 e0       	ldi	r22, 0x05	; 5
    4e80:	41 e0       	ldi	r20, 0x01	; 1
    4e82:	0e 94 45 1a 	call	0x348a	; 0x348a <DIO_enumSetPINDirection>
	DIO_enumSetPINDirection(KPD_PORT,KPD_C2,DIO_OUTPUT);
    4e86:	84 e0       	ldi	r24, 0x04	; 4
    4e88:	66 e0       	ldi	r22, 0x06	; 6
    4e8a:	41 e0       	ldi	r20, 0x01	; 1
    4e8c:	0e 94 45 1a 	call	0x348a	; 0x348a <DIO_enumSetPINDirection>
	DIO_enumSetPINDirection(KPD_PORT,KPD_C3,DIO_OUTPUT);
    4e90:	84 e0       	ldi	r24, 0x04	; 4
    4e92:	67 e0       	ldi	r22, 0x07	; 7
    4e94:	41 e0       	ldi	r20, 0x01	; 1
    4e96:	0e 94 45 1a 	call	0x348a	; 0x348a <DIO_enumSetPINDirection>

	DIO_enumSetPINValue(KPD_PORT,KPD_C0,DIO_HIGH);
    4e9a:	84 e0       	ldi	r24, 0x04	; 4
    4e9c:	64 e0       	ldi	r22, 0x04	; 4
    4e9e:	41 e0       	ldi	r20, 0x01	; 1
    4ea0:	0e 94 49 1b 	call	0x3692	; 0x3692 <DIO_enumSetPINValue>
	DIO_enumSetPINValue(KPD_PORT,KPD_C1,DIO_HIGH);
    4ea4:	84 e0       	ldi	r24, 0x04	; 4
    4ea6:	65 e0       	ldi	r22, 0x05	; 5
    4ea8:	41 e0       	ldi	r20, 0x01	; 1
    4eaa:	0e 94 49 1b 	call	0x3692	; 0x3692 <DIO_enumSetPINValue>
	DIO_enumSetPINValue(KPD_PORT,KPD_C2,DIO_HIGH);
    4eae:	84 e0       	ldi	r24, 0x04	; 4
    4eb0:	66 e0       	ldi	r22, 0x06	; 6
    4eb2:	41 e0       	ldi	r20, 0x01	; 1
    4eb4:	0e 94 49 1b 	call	0x3692	; 0x3692 <DIO_enumSetPINValue>
	DIO_enumSetPINValue(KPD_PORT,KPD_C3,DIO_HIGH);
    4eb8:	84 e0       	ldi	r24, 0x04	; 4
    4eba:	67 e0       	ldi	r22, 0x07	; 7
    4ebc:	41 e0       	ldi	r20, 0x01	; 1
    4ebe:	0e 94 49 1b 	call	0x3692	; 0x3692 <DIO_enumSetPINValue>
}
    4ec2:	cf 91       	pop	r28
    4ec4:	df 91       	pop	r29
    4ec6:	08 95       	ret

00004ec8 <KPD_u8GetPressed>:

u8 KPD_u8GetPressed(void)
{
    4ec8:	df 93       	push	r29
    4eca:	cf 93       	push	r28
    4ecc:	cd b7       	in	r28, 0x3d	; 61
    4ece:	de b7       	in	r29, 0x3e	; 62
    4ed0:	62 97       	sbiw	r28, 0x12	; 18
    4ed2:	0f b6       	in	r0, 0x3f	; 63
    4ed4:	f8 94       	cli
    4ed6:	de bf       	out	0x3e, r29	; 62
    4ed8:	0f be       	out	0x3f, r0	; 63
    4eda:	cd bf       	out	0x3d, r28	; 61
	u8 LOC_u8ReturnData = 0 ;
    4edc:	19 8a       	std	Y+17, r1	; 0x11
	u8 LOC_u8PinValue       ;
	u8 LOC_u8ROW            ;
	u8 LOC_u8COL            ;

	for(LOC_u8COL=0 + KPD_COL_INIT; LOC_u8COL < KPD_COL_END + 1 ; LOC_u8COL++) // loop on col pins
    4ede:	84 e0       	ldi	r24, 0x04	; 4
    4ee0:	8f 87       	std	Y+15, r24	; 0x0f
    4ee2:	c9 c0       	rjmp	.+402    	; 0x5076 <KPD_u8GetPressed+0x1ae>
	{
		DIO_enumSetPINValue(KPD_PORT,LOC_u8COL,DIO_LOW); // make col pin low
    4ee4:	84 e0       	ldi	r24, 0x04	; 4
    4ee6:	6f 85       	ldd	r22, Y+15	; 0x0f
    4ee8:	40 e0       	ldi	r20, 0x00	; 0
    4eea:	0e 94 49 1b 	call	0x3692	; 0x3692 <DIO_enumSetPINValue>
		for(LOC_u8ROW = 0 + KPD_ROW_INIT ;LOC_u8ROW < KPD_ROW_END + 1 ;LOC_u8ROW++ ) // loop on rows pins
    4eee:	18 8a       	std	Y+16, r1	; 0x10
    4ef0:	b6 c0       	rjmp	.+364    	; 0x505e <KPD_u8GetPressed+0x196>
		{
			DIO_enumGetPINValue(KPD_PORT,LOC_u8ROW,&LOC_u8PinValue); // read row value
    4ef2:	9e 01       	movw	r18, r28
    4ef4:	2e 5e       	subi	r18, 0xEE	; 238
    4ef6:	3f 4f       	sbci	r19, 0xFF	; 255
    4ef8:	84 e0       	ldi	r24, 0x04	; 4
    4efa:	68 89       	ldd	r22, Y+16	; 0x10
    4efc:	a9 01       	movw	r20, r18
    4efe:	0e 94 a0 1c 	call	0x3940	; 0x3940 <DIO_enumGetPINValue>
			if(LOC_u8PinValue == DIO_LOW)
    4f02:	8a 89       	ldd	r24, Y+18	; 0x12
    4f04:	88 23       	and	r24, r24
    4f06:	09 f0       	breq	.+2      	; 0x4f0a <KPD_u8GetPressed+0x42>
    4f08:	a7 c0       	rjmp	.+334    	; 0x5058 <KPD_u8GetPressed+0x190>
    4f0a:	80 e0       	ldi	r24, 0x00	; 0
    4f0c:	90 e0       	ldi	r25, 0x00	; 0
    4f0e:	a8 e4       	ldi	r26, 0x48	; 72
    4f10:	b2 e4       	ldi	r27, 0x42	; 66
    4f12:	8b 87       	std	Y+11, r24	; 0x0b
    4f14:	9c 87       	std	Y+12, r25	; 0x0c
    4f16:	ad 87       	std	Y+13, r26	; 0x0d
    4f18:	be 87       	std	Y+14, r27	; 0x0e
 */
void
_delay_ms(double __ms)
{
	uint16_t __ticks;
	double __tmp = ((F_CPU) / 4e3) * __ms;
    4f1a:	6b 85       	ldd	r22, Y+11	; 0x0b
    4f1c:	7c 85       	ldd	r23, Y+12	; 0x0c
    4f1e:	8d 85       	ldd	r24, Y+13	; 0x0d
    4f20:	9e 85       	ldd	r25, Y+14	; 0x0e
    4f22:	20 e0       	ldi	r18, 0x00	; 0
    4f24:	30 e0       	ldi	r19, 0x00	; 0
    4f26:	4a ef       	ldi	r20, 0xFA	; 250
    4f28:	54 e4       	ldi	r21, 0x44	; 68
    4f2a:	0e 94 7b 0f 	call	0x1ef6	; 0x1ef6 <__mulsf3>
    4f2e:	dc 01       	movw	r26, r24
    4f30:	cb 01       	movw	r24, r22
    4f32:	8f 83       	std	Y+7, r24	; 0x07
    4f34:	98 87       	std	Y+8, r25	; 0x08
    4f36:	a9 87       	std	Y+9, r26	; 0x09
    4f38:	ba 87       	std	Y+10, r27	; 0x0a
	if (__tmp < 1.0)
    4f3a:	6f 81       	ldd	r22, Y+7	; 0x07
    4f3c:	78 85       	ldd	r23, Y+8	; 0x08
    4f3e:	89 85       	ldd	r24, Y+9	; 0x09
    4f40:	9a 85       	ldd	r25, Y+10	; 0x0a
    4f42:	20 e0       	ldi	r18, 0x00	; 0
    4f44:	30 e0       	ldi	r19, 0x00	; 0
    4f46:	40 e8       	ldi	r20, 0x80	; 128
    4f48:	5f e3       	ldi	r21, 0x3F	; 63
    4f4a:	0e 94 d5 10 	call	0x21aa	; 0x21aa <__ltsf2>
    4f4e:	88 23       	and	r24, r24
    4f50:	2c f4       	brge	.+10     	; 0x4f5c <KPD_u8GetPressed+0x94>
		__ticks = 1;
    4f52:	81 e0       	ldi	r24, 0x01	; 1
    4f54:	90 e0       	ldi	r25, 0x00	; 0
    4f56:	9e 83       	std	Y+6, r25	; 0x06
    4f58:	8d 83       	std	Y+5, r24	; 0x05
    4f5a:	3f c0       	rjmp	.+126    	; 0x4fda <KPD_u8GetPressed+0x112>
	else if (__tmp > 65535)
    4f5c:	6f 81       	ldd	r22, Y+7	; 0x07
    4f5e:	78 85       	ldd	r23, Y+8	; 0x08
    4f60:	89 85       	ldd	r24, Y+9	; 0x09
    4f62:	9a 85       	ldd	r25, Y+10	; 0x0a
    4f64:	20 e0       	ldi	r18, 0x00	; 0
    4f66:	3f ef       	ldi	r19, 0xFF	; 255
    4f68:	4f e7       	ldi	r20, 0x7F	; 127
    4f6a:	57 e4       	ldi	r21, 0x47	; 71
    4f6c:	0e 94 75 10 	call	0x20ea	; 0x20ea <__gtsf2>
    4f70:	18 16       	cp	r1, r24
    4f72:	4c f5       	brge	.+82     	; 0x4fc6 <KPD_u8GetPressed+0xfe>
	{
		//	__ticks = requested delay in 1/10 ms
		__ticks = (uint16_t) (__ms * 10.0);
    4f74:	6b 85       	ldd	r22, Y+11	; 0x0b
    4f76:	7c 85       	ldd	r23, Y+12	; 0x0c
    4f78:	8d 85       	ldd	r24, Y+13	; 0x0d
    4f7a:	9e 85       	ldd	r25, Y+14	; 0x0e
    4f7c:	20 e0       	ldi	r18, 0x00	; 0
    4f7e:	30 e0       	ldi	r19, 0x00	; 0
    4f80:	40 e2       	ldi	r20, 0x20	; 32
    4f82:	51 e4       	ldi	r21, 0x41	; 65
    4f84:	0e 94 7b 0f 	call	0x1ef6	; 0x1ef6 <__mulsf3>
    4f88:	dc 01       	movw	r26, r24
    4f8a:	cb 01       	movw	r24, r22
    4f8c:	bc 01       	movw	r22, r24
    4f8e:	cd 01       	movw	r24, r26
    4f90:	0e 94 c0 00 	call	0x180	; 0x180 <__fixunssfsi>
    4f94:	dc 01       	movw	r26, r24
    4f96:	cb 01       	movw	r24, r22
    4f98:	9e 83       	std	Y+6, r25	; 0x06
    4f9a:	8d 83       	std	Y+5, r24	; 0x05
    4f9c:	0f c0       	rjmp	.+30     	; 0x4fbc <KPD_u8GetPressed+0xf4>
    4f9e:	88 ec       	ldi	r24, 0xC8	; 200
    4fa0:	90 e0       	ldi	r25, 0x00	; 0
    4fa2:	9c 83       	std	Y+4, r25	; 0x04
    4fa4:	8b 83       	std	Y+3, r24	; 0x03
    4fa6:	8b 81       	ldd	r24, Y+3	; 0x03
    4fa8:	9c 81       	ldd	r25, Y+4	; 0x04
    4faa:	01 97       	sbiw	r24, 0x01	; 1
    4fac:	f1 f7       	brne	.-4      	; 0x4faa <KPD_u8GetPressed+0xe2>
    4fae:	9c 83       	std	Y+4, r25	; 0x04
    4fb0:	8b 83       	std	Y+3, r24	; 0x03
		while(__ticks)
		{
			// wait 1/10 ms
			_delay_loop_2(((F_CPU) / 4e3) / 10);
			__ticks --;
    4fb2:	8d 81       	ldd	r24, Y+5	; 0x05
    4fb4:	9e 81       	ldd	r25, Y+6	; 0x06
    4fb6:	01 97       	sbiw	r24, 0x01	; 1
    4fb8:	9e 83       	std	Y+6, r25	; 0x06
    4fba:	8d 83       	std	Y+5, r24	; 0x05
		__ticks = 1;
	else if (__tmp > 65535)
	{
		//	__ticks = requested delay in 1/10 ms
		__ticks = (uint16_t) (__ms * 10.0);
		while(__ticks)
    4fbc:	8d 81       	ldd	r24, Y+5	; 0x05
    4fbe:	9e 81       	ldd	r25, Y+6	; 0x06
    4fc0:	00 97       	sbiw	r24, 0x00	; 0
    4fc2:	69 f7       	brne	.-38     	; 0x4f9e <KPD_u8GetPressed+0xd6>
    4fc4:	14 c0       	rjmp	.+40     	; 0x4fee <KPD_u8GetPressed+0x126>
			__ticks --;
		}
		return;
	}
	else
		__ticks = (uint16_t)__tmp;
    4fc6:	6f 81       	ldd	r22, Y+7	; 0x07
    4fc8:	78 85       	ldd	r23, Y+8	; 0x08
    4fca:	89 85       	ldd	r24, Y+9	; 0x09
    4fcc:	9a 85       	ldd	r25, Y+10	; 0x0a
    4fce:	0e 94 c0 00 	call	0x180	; 0x180 <__fixunssfsi>
    4fd2:	dc 01       	movw	r26, r24
    4fd4:	cb 01       	movw	r24, r22
    4fd6:	9e 83       	std	Y+6, r25	; 0x06
    4fd8:	8d 83       	std	Y+5, r24	; 0x05
    4fda:	8d 81       	ldd	r24, Y+5	; 0x05
    4fdc:	9e 81       	ldd	r25, Y+6	; 0x06
    4fde:	9a 83       	std	Y+2, r25	; 0x02
    4fe0:	89 83       	std	Y+1, r24	; 0x01
    4fe2:	89 81       	ldd	r24, Y+1	; 0x01
    4fe4:	9a 81       	ldd	r25, Y+2	; 0x02
    4fe6:	01 97       	sbiw	r24, 0x01	; 1
    4fe8:	f1 f7       	brne	.-4      	; 0x4fe6 <KPD_u8GetPressed+0x11e>
    4fea:	9a 83       	std	Y+2, r25	; 0x02
    4fec:	89 83       	std	Y+1, r24	; 0x01
			{
				_delay_ms(50); // delay for bouncing
				DIO_enumGetPINValue(KPD_PORT,LOC_u8ROW,&LOC_u8PinValue);
    4fee:	9e 01       	movw	r18, r28
    4ff0:	2e 5e       	subi	r18, 0xEE	; 238
    4ff2:	3f 4f       	sbci	r19, 0xFF	; 255
    4ff4:	84 e0       	ldi	r24, 0x04	; 4
    4ff6:	68 89       	ldd	r22, Y+16	; 0x10
    4ff8:	a9 01       	movw	r20, r18
    4ffa:	0e 94 a0 1c 	call	0x3940	; 0x3940 <DIO_enumGetPINValue>
				if(LOC_u8PinValue == DIO_LOW)
    4ffe:	8a 89       	ldd	r24, Y+18	; 0x12
    5000:	88 23       	and	r24, r24
    5002:	a9 f4       	brne	.+42     	; 0x502e <KPD_u8GetPressed+0x166>
							{
								LOC_u8ReturnData = KPD_u8Buttons[LOC_u8ROW-KPD_ROW_INIT][LOC_u8COL-KPD_COL_INIT];// store the data according to 2d array
    5004:	88 89       	ldd	r24, Y+16	; 0x10
    5006:	48 2f       	mov	r20, r24
    5008:	50 e0       	ldi	r21, 0x00	; 0
    500a:	8f 85       	ldd	r24, Y+15	; 0x0f
    500c:	88 2f       	mov	r24, r24
    500e:	90 e0       	ldi	r25, 0x00	; 0
    5010:	9c 01       	movw	r18, r24
    5012:	24 50       	subi	r18, 0x04	; 4
    5014:	30 40       	sbci	r19, 0x00	; 0
    5016:	ca 01       	movw	r24, r20
    5018:	88 0f       	add	r24, r24
    501a:	99 1f       	adc	r25, r25
    501c:	88 0f       	add	r24, r24
    501e:	99 1f       	adc	r25, r25
    5020:	82 0f       	add	r24, r18
    5022:	93 1f       	adc	r25, r19
    5024:	fc 01       	movw	r30, r24
    5026:	ea 51       	subi	r30, 0x1A	; 26
    5028:	fe 4f       	sbci	r31, 0xFE	; 254
    502a:	80 81       	ld	r24, Z
    502c:	89 8b       	std	Y+17, r24	; 0x11
							}
				DIO_enumGetPINValue(KPD_PORT,LOC_u8ROW,&LOC_u8PinValue);
    502e:	9e 01       	movw	r18, r28
    5030:	2e 5e       	subi	r18, 0xEE	; 238
    5032:	3f 4f       	sbci	r19, 0xFF	; 255
    5034:	84 e0       	ldi	r24, 0x04	; 4
    5036:	68 89       	ldd	r22, Y+16	; 0x10
    5038:	a9 01       	movw	r20, r18
    503a:	0e 94 a0 1c 	call	0x3940	; 0x3940 <DIO_enumGetPINValue>
    503e:	08 c0       	rjmp	.+16     	; 0x5050 <KPD_u8GetPressed+0x188>
				while(LOC_u8PinValue == DIO_LOW) // make code stuck until you free the btn
				{
					DIO_enumGetPINValue(KPD_PORT,LOC_u8ROW,&LOC_u8PinValue);
    5040:	9e 01       	movw	r18, r28
    5042:	2e 5e       	subi	r18, 0xEE	; 238
    5044:	3f 4f       	sbci	r19, 0xFF	; 255
    5046:	84 e0       	ldi	r24, 0x04	; 4
    5048:	68 89       	ldd	r22, Y+16	; 0x10
    504a:	a9 01       	movw	r20, r18
    504c:	0e 94 a0 1c 	call	0x3940	; 0x3940 <DIO_enumGetPINValue>
				if(LOC_u8PinValue == DIO_LOW)
							{
								LOC_u8ReturnData = KPD_u8Buttons[LOC_u8ROW-KPD_ROW_INIT][LOC_u8COL-KPD_COL_INIT];// store the data according to 2d array
							}
				DIO_enumGetPINValue(KPD_PORT,LOC_u8ROW,&LOC_u8PinValue);
				while(LOC_u8PinValue == DIO_LOW) // make code stuck until you free the btn
    5050:	8a 89       	ldd	r24, Y+18	; 0x12
    5052:	88 23       	and	r24, r24
    5054:	a9 f3       	breq	.-22     	; 0x5040 <KPD_u8GetPressed+0x178>
    5056:	07 c0       	rjmp	.+14     	; 0x5066 <KPD_u8GetPressed+0x19e>
	u8 LOC_u8COL            ;

	for(LOC_u8COL=0 + KPD_COL_INIT; LOC_u8COL < KPD_COL_END + 1 ; LOC_u8COL++) // loop on col pins
	{
		DIO_enumSetPINValue(KPD_PORT,LOC_u8COL,DIO_LOW); // make col pin low
		for(LOC_u8ROW = 0 + KPD_ROW_INIT ;LOC_u8ROW < KPD_ROW_END + 1 ;LOC_u8ROW++ ) // loop on rows pins
    5058:	88 89       	ldd	r24, Y+16	; 0x10
    505a:	8f 5f       	subi	r24, 0xFF	; 255
    505c:	88 8b       	std	Y+16, r24	; 0x10
    505e:	88 89       	ldd	r24, Y+16	; 0x10
    5060:	84 30       	cpi	r24, 0x04	; 4
    5062:	08 f4       	brcc	.+2      	; 0x5066 <KPD_u8GetPressed+0x19e>
    5064:	46 cf       	rjmp	.-372    	; 0x4ef2 <KPD_u8GetPressed+0x2a>
					DIO_enumGetPINValue(KPD_PORT,LOC_u8ROW,&LOC_u8PinValue);
				}
				break; // we get the btn no need to loop
			}
		}
		DIO_enumSetPINValue(KPD_PORT,LOC_u8COL,DIO_HIGH); // make col pin high to loop
    5066:	84 e0       	ldi	r24, 0x04	; 4
    5068:	6f 85       	ldd	r22, Y+15	; 0x0f
    506a:	41 e0       	ldi	r20, 0x01	; 1
    506c:	0e 94 49 1b 	call	0x3692	; 0x3692 <DIO_enumSetPINValue>
	u8 LOC_u8ReturnData = 0 ;
	u8 LOC_u8PinValue       ;
	u8 LOC_u8ROW            ;
	u8 LOC_u8COL            ;

	for(LOC_u8COL=0 + KPD_COL_INIT; LOC_u8COL < KPD_COL_END + 1 ; LOC_u8COL++) // loop on col pins
    5070:	8f 85       	ldd	r24, Y+15	; 0x0f
    5072:	8f 5f       	subi	r24, 0xFF	; 255
    5074:	8f 87       	std	Y+15, r24	; 0x0f
    5076:	8f 85       	ldd	r24, Y+15	; 0x0f
    5078:	88 30       	cpi	r24, 0x08	; 8
    507a:	08 f4       	brcc	.+2      	; 0x507e <KPD_u8GetPressed+0x1b6>
    507c:	33 cf       	rjmp	.-410    	; 0x4ee4 <KPD_u8GetPressed+0x1c>
			}
		}
		DIO_enumSetPINValue(KPD_PORT,LOC_u8COL,DIO_HIGH); // make col pin high to loop

	}
return LOC_u8ReturnData;
    507e:	89 89       	ldd	r24, Y+17	; 0x11
}
    5080:	62 96       	adiw	r28, 0x12	; 18
    5082:	0f b6       	in	r0, 0x3f	; 63
    5084:	f8 94       	cli
    5086:	de bf       	out	0x3e, r29	; 62
    5088:	0f be       	out	0x3f, r0	; 63
    508a:	cd bf       	out	0x3d, r28	; 61
    508c:	cf 91       	pop	r28
    508e:	df 91       	pop	r29
    5090:	08 95       	ret

00005092 <__mulsi3>:
    5092:	62 9f       	mul	r22, r18
    5094:	d0 01       	movw	r26, r0
    5096:	73 9f       	mul	r23, r19
    5098:	f0 01       	movw	r30, r0
    509a:	82 9f       	mul	r24, r18
    509c:	e0 0d       	add	r30, r0
    509e:	f1 1d       	adc	r31, r1
    50a0:	64 9f       	mul	r22, r20
    50a2:	e0 0d       	add	r30, r0
    50a4:	f1 1d       	adc	r31, r1
    50a6:	92 9f       	mul	r25, r18
    50a8:	f0 0d       	add	r31, r0
    50aa:	83 9f       	mul	r24, r19
    50ac:	f0 0d       	add	r31, r0
    50ae:	74 9f       	mul	r23, r20
    50b0:	f0 0d       	add	r31, r0
    50b2:	65 9f       	mul	r22, r21
    50b4:	f0 0d       	add	r31, r0
    50b6:	99 27       	eor	r25, r25
    50b8:	72 9f       	mul	r23, r18
    50ba:	b0 0d       	add	r27, r0
    50bc:	e1 1d       	adc	r30, r1
    50be:	f9 1f       	adc	r31, r25
    50c0:	63 9f       	mul	r22, r19
    50c2:	b0 0d       	add	r27, r0
    50c4:	e1 1d       	adc	r30, r1
    50c6:	f9 1f       	adc	r31, r25
    50c8:	bd 01       	movw	r22, r26
    50ca:	cf 01       	movw	r24, r30
    50cc:	11 24       	eor	r1, r1
    50ce:	08 95       	ret

000050d0 <__udivmodsi4>:
    50d0:	a1 e2       	ldi	r26, 0x21	; 33
    50d2:	1a 2e       	mov	r1, r26
    50d4:	aa 1b       	sub	r26, r26
    50d6:	bb 1b       	sub	r27, r27
    50d8:	fd 01       	movw	r30, r26
    50da:	0d c0       	rjmp	.+26     	; 0x50f6 <__udivmodsi4_ep>

000050dc <__udivmodsi4_loop>:
    50dc:	aa 1f       	adc	r26, r26
    50de:	bb 1f       	adc	r27, r27
    50e0:	ee 1f       	adc	r30, r30
    50e2:	ff 1f       	adc	r31, r31
    50e4:	a2 17       	cp	r26, r18
    50e6:	b3 07       	cpc	r27, r19
    50e8:	e4 07       	cpc	r30, r20
    50ea:	f5 07       	cpc	r31, r21
    50ec:	20 f0       	brcs	.+8      	; 0x50f6 <__udivmodsi4_ep>
    50ee:	a2 1b       	sub	r26, r18
    50f0:	b3 0b       	sbc	r27, r19
    50f2:	e4 0b       	sbc	r30, r20
    50f4:	f5 0b       	sbc	r31, r21

000050f6 <__udivmodsi4_ep>:
    50f6:	66 1f       	adc	r22, r22
    50f8:	77 1f       	adc	r23, r23
    50fa:	88 1f       	adc	r24, r24
    50fc:	99 1f       	adc	r25, r25
    50fe:	1a 94       	dec	r1
    5100:	69 f7       	brne	.-38     	; 0x50dc <__udivmodsi4_loop>
    5102:	60 95       	com	r22
    5104:	70 95       	com	r23
    5106:	80 95       	com	r24
    5108:	90 95       	com	r25
    510a:	9b 01       	movw	r18, r22
    510c:	ac 01       	movw	r20, r24
    510e:	bd 01       	movw	r22, r26
    5110:	cf 01       	movw	r24, r30
    5112:	08 95       	ret

00005114 <__prologue_saves__>:
    5114:	2f 92       	push	r2
    5116:	3f 92       	push	r3
    5118:	4f 92       	push	r4
    511a:	5f 92       	push	r5
    511c:	6f 92       	push	r6
    511e:	7f 92       	push	r7
    5120:	8f 92       	push	r8
    5122:	9f 92       	push	r9
    5124:	af 92       	push	r10
    5126:	bf 92       	push	r11
    5128:	cf 92       	push	r12
    512a:	df 92       	push	r13
    512c:	ef 92       	push	r14
    512e:	ff 92       	push	r15
    5130:	0f 93       	push	r16
    5132:	1f 93       	push	r17
    5134:	cf 93       	push	r28
    5136:	df 93       	push	r29
    5138:	cd b7       	in	r28, 0x3d	; 61
    513a:	de b7       	in	r29, 0x3e	; 62
    513c:	ca 1b       	sub	r28, r26
    513e:	db 0b       	sbc	r29, r27
    5140:	0f b6       	in	r0, 0x3f	; 63
    5142:	f8 94       	cli
    5144:	de bf       	out	0x3e, r29	; 62
    5146:	0f be       	out	0x3f, r0	; 63
    5148:	cd bf       	out	0x3d, r28	; 61
    514a:	09 94       	ijmp

0000514c <__epilogue_restores__>:
    514c:	2a 88       	ldd	r2, Y+18	; 0x12
    514e:	39 88       	ldd	r3, Y+17	; 0x11
    5150:	48 88       	ldd	r4, Y+16	; 0x10
    5152:	5f 84       	ldd	r5, Y+15	; 0x0f
    5154:	6e 84       	ldd	r6, Y+14	; 0x0e
    5156:	7d 84       	ldd	r7, Y+13	; 0x0d
    5158:	8c 84       	ldd	r8, Y+12	; 0x0c
    515a:	9b 84       	ldd	r9, Y+11	; 0x0b
    515c:	aa 84       	ldd	r10, Y+10	; 0x0a
    515e:	b9 84       	ldd	r11, Y+9	; 0x09
    5160:	c8 84       	ldd	r12, Y+8	; 0x08
    5162:	df 80       	ldd	r13, Y+7	; 0x07
    5164:	ee 80       	ldd	r14, Y+6	; 0x06
    5166:	fd 80       	ldd	r15, Y+5	; 0x05
    5168:	0c 81       	ldd	r16, Y+4	; 0x04
    516a:	1b 81       	ldd	r17, Y+3	; 0x03
    516c:	aa 81       	ldd	r26, Y+2	; 0x02
    516e:	b9 81       	ldd	r27, Y+1	; 0x01
    5170:	ce 0f       	add	r28, r30
    5172:	d1 1d       	adc	r29, r1
    5174:	0f b6       	in	r0, 0x3f	; 63
    5176:	f8 94       	cli
    5178:	de bf       	out	0x3e, r29	; 62
    517a:	0f be       	out	0x3f, r0	; 63
    517c:	cd bf       	out	0x3d, r28	; 61
    517e:	ed 01       	movw	r28, r26
    5180:	08 95       	ret

00005182 <_exit>:
    5182:	f8 94       	cli

00005184 <__stop_program>:
    5184:	ff cf       	rjmp	.-2      	; 0x5184 <__stop_program>
